   1              	 .syntax unified
   2              	 .cpu cortex-m4
   3              	 .eabi_attribute 27,3
   4              	 .fpu fpv4-sp-d16
   5              	 .eabi_attribute 20,1
   6              	 .eabi_attribute 21,1
   7              	 .eabi_attribute 23,3
   8              	 .eabi_attribute 24,1
   9              	 .eabi_attribute 25,1
  10              	 .eabi_attribute 26,1
  11              	 .eabi_attribute 30,6
  12              	 .eabi_attribute 34,1
  13              	 .eabi_attribute 18,4
  14              	 .thumb
  15              	 .file "ieee488.c"
  16              	 .text
  17              	.Ltext0:
  18              	 .cfi_sections .debug_frame
  19              	 .section .rodata.scpi_reg_details,"a",%progbits
  20              	 .align 2
  23              	scpi_reg_details:
  24 0000 00       	 .byte 0
  25 0001 00       	 .byte 0
  26 0002 01       	 .byte 1
  27 0003 00       	 .byte 0
  28 0004 02       	 .byte 2
  29 0005 01       	 .byte 1
  30 0006 03       	 .byte 3
  31 0007 01       	 .byte 1
  32 0008 02       	 .byte 2
  33 0009 02       	 .byte 2
  34 000a 03       	 .byte 3
  35 000b 02       	 .byte 2
  36 000c 04       	 .byte 4
  37 000d 02       	 .byte 2
  38 000e 02       	 .byte 2
  39 000f 03       	 .byte 3
  40 0010 03       	 .byte 3
  41 0011 03       	 .byte 3
  42 0012 04       	 .byte 4
  43 0013 03       	 .byte 3
  44              	 .section .rodata.scpi_reg_group_details,"a",%progbits
  45              	 .align 2
  48              	scpi_reg_group_details:
  49 0000 00       	 .byte 0
  50 0001 01       	 .byte 1
  51 0002 0B       	 .byte 11
  52 0003 0B       	 .byte 11
  53 0004 0B       	 .byte 11
  54 0005 0B       	 .byte 11
  55 0006 0000     	 .short 0
  56 0008 02       	 .byte 2
  57 0009 03       	 .byte 3
  58 000a 0B       	 .byte 11
  59 000b 0B       	 .byte 11
  60 000c 0B       	 .byte 11
  61 000d 00       	 .byte 0
  62 000e 2000     	 .short 32
  63 0010 04       	 .byte 4
  64 0011 05       	 .byte 5
  65 0012 06       	 .byte 6
  66 0013 0B       	 .byte 11
  67 0014 0B       	 .byte 11
  68 0015 00       	 .byte 0
  69 0016 8000     	 .short 128
  70 0018 07       	 .byte 7
  71 0019 08       	 .byte 8
  72 001a 09       	 .byte 9
  73 001b 0B       	 .byte 11
  74 001c 0B       	 .byte 11
  75 001d 00       	 .byte 0
  76 001e 0800     	 .short 8
  77              	 .section .text.SCPI_RegGet,"ax",%progbits
  78              	 .align 2
  79              	 .global SCPI_RegGet
  80              	 .thumb
  81              	 .thumb_func
  83              	SCPI_RegGet:
  84              	.LFB0:
  85              	 .file 1 "../Libraries/libscpi/src/ieee488.c"
   1:../Libraries/libscpi/src/ieee488.c **** /*-
   2:../Libraries/libscpi/src/ieee488.c ****  * BSD 2-Clause License
   3:../Libraries/libscpi/src/ieee488.c ****  *
   4:../Libraries/libscpi/src/ieee488.c ****  * Copyright (c) 2012-2018, Jan Breuer
   5:../Libraries/libscpi/src/ieee488.c ****  * All rights reserved.
   6:../Libraries/libscpi/src/ieee488.c ****  *
   7:../Libraries/libscpi/src/ieee488.c ****  * Redistribution and use in source and binary forms, with or without
   8:../Libraries/libscpi/src/ieee488.c ****  * modification, are permitted provided that the following conditions are met:
   9:../Libraries/libscpi/src/ieee488.c ****  *
  10:../Libraries/libscpi/src/ieee488.c ****  * * Redistributions of source code must retain the above copyright notice, this
  11:../Libraries/libscpi/src/ieee488.c ****  *   list of conditions and the following disclaimer.
  12:../Libraries/libscpi/src/ieee488.c ****  *
  13:../Libraries/libscpi/src/ieee488.c ****  * * Redistributions in binary form must reproduce the above copyright notice,
  14:../Libraries/libscpi/src/ieee488.c ****  *   this list of conditions and the following disclaimer in the documentation
  15:../Libraries/libscpi/src/ieee488.c ****  *   and/or other materials provided with the distribution.
  16:../Libraries/libscpi/src/ieee488.c ****  *
  17:../Libraries/libscpi/src/ieee488.c ****  * THIS SOFTWARE IS PROVIDED BY THE COPYRIGHT HOLDERS AND CONTRIBUTORS "AS IS"
  18:../Libraries/libscpi/src/ieee488.c ****  * AND ANY EXPRESS OR IMPLIED WARRANTIES, INCLUDING, BUT NOT LIMITED TO, THE
  19:../Libraries/libscpi/src/ieee488.c ****  * IMPLIED WARRANTIES OF MERCHANTABILITY AND FITNESS FOR A PARTICULAR PURPOSE ARE
  20:../Libraries/libscpi/src/ieee488.c ****  * DISCLAIMED. IN NO EVENT SHALL THE COPYRIGHT HOLDER OR CONTRIBUTORS BE LIABLE
  21:../Libraries/libscpi/src/ieee488.c ****  * FOR ANY DIRECT, INDIRECT, INCIDENTAL, SPECIAL, EXEMPLARY, OR CONSEQUENTIAL
  22:../Libraries/libscpi/src/ieee488.c ****  * DAMAGES (INCLUDING, BUT NOT LIMITED TO, PROCUREMENT OF SUBSTITUTE GOODS OR
  23:../Libraries/libscpi/src/ieee488.c ****  * SERVICES; LOSS OF USE, DATA, OR PROFITS; OR BUSINESS INTERRUPTION) HOWEVER
  24:../Libraries/libscpi/src/ieee488.c ****  * CAUSED AND ON ANY THEORY OF LIABILITY, WHETHER IN CONTRACT, STRICT LIABILITY,
  25:../Libraries/libscpi/src/ieee488.c ****  * OR TORT (INCLUDING NEGLIGENCE OR OTHERWISE) ARISING IN ANY WAY OUT OF THE USE
  26:../Libraries/libscpi/src/ieee488.c ****  * OF THIS SOFTWARE, EVEN IF ADVISED OF THE POSSIBILITY OF SUCH DAMAGE.
  27:../Libraries/libscpi/src/ieee488.c ****  */
  28:../Libraries/libscpi/src/ieee488.c **** 
  29:../Libraries/libscpi/src/ieee488.c **** /**
  30:../Libraries/libscpi/src/ieee488.c ****  * @file   scpi_ieee488.c
  31:../Libraries/libscpi/src/ieee488.c ****  * @date   Thu Nov 15 10:58:45 UTC 2012
  32:../Libraries/libscpi/src/ieee488.c ****  * 
  33:../Libraries/libscpi/src/ieee488.c ****  * @brief  Implementation of IEEE488.2 commands and state model
  34:../Libraries/libscpi/src/ieee488.c ****  * 
  35:../Libraries/libscpi/src/ieee488.c ****  * 
  36:../Libraries/libscpi/src/ieee488.c ****  */
  37:../Libraries/libscpi/src/ieee488.c **** 
  38:../Libraries/libscpi/src/ieee488.c **** #include "scpi/parser.h"
  39:../Libraries/libscpi/src/ieee488.c **** #include "scpi/ieee488.h"
  40:../Libraries/libscpi/src/ieee488.c **** #include "scpi/error.h"
  41:../Libraries/libscpi/src/ieee488.c **** #include "scpi/constants.h"
  42:../Libraries/libscpi/src/ieee488.c **** 
  43:../Libraries/libscpi/src/ieee488.c **** #include <stdio.h>
  44:../Libraries/libscpi/src/ieee488.c **** 
  45:../Libraries/libscpi/src/ieee488.c **** static const scpi_reg_info_t scpi_reg_details[SCPI_REG_COUNT] = {
  46:../Libraries/libscpi/src/ieee488.c ****     { SCPI_REG_CLASS_STB, SCPI_REG_GROUP_STB },
  47:../Libraries/libscpi/src/ieee488.c ****     { SCPI_REG_CLASS_SRE, SCPI_REG_GROUP_STB },
  48:../Libraries/libscpi/src/ieee488.c ****     { SCPI_REG_CLASS_EVEN, SCPI_REG_GROUP_ESR },
  49:../Libraries/libscpi/src/ieee488.c ****     { SCPI_REG_CLASS_ENAB, SCPI_REG_GROUP_ESR },
  50:../Libraries/libscpi/src/ieee488.c ****     { SCPI_REG_CLASS_EVEN, SCPI_REG_GROUP_OPER },
  51:../Libraries/libscpi/src/ieee488.c ****     { SCPI_REG_CLASS_ENAB, SCPI_REG_GROUP_OPER },
  52:../Libraries/libscpi/src/ieee488.c ****     { SCPI_REG_CLASS_COND, SCPI_REG_GROUP_OPER },
  53:../Libraries/libscpi/src/ieee488.c ****     { SCPI_REG_CLASS_EVEN, SCPI_REG_GROUP_QUES },
  54:../Libraries/libscpi/src/ieee488.c ****     { SCPI_REG_CLASS_ENAB, SCPI_REG_GROUP_QUES },
  55:../Libraries/libscpi/src/ieee488.c ****     { SCPI_REG_CLASS_COND, SCPI_REG_GROUP_QUES },
  56:../Libraries/libscpi/src/ieee488.c **** 
  57:../Libraries/libscpi/src/ieee488.c **** #if USE_CUSTOM_REGISTERS
  58:../Libraries/libscpi/src/ieee488.c **** #ifndef USER_REGISTER_DETAILS
  59:../Libraries/libscpi/src/ieee488.c **** #error "No user register details defined"
  60:../Libraries/libscpi/src/ieee488.c **** #else
  61:../Libraries/libscpi/src/ieee488.c ****     USER_REGISTER_DETAILS
  62:../Libraries/libscpi/src/ieee488.c **** #endif
  63:../Libraries/libscpi/src/ieee488.c **** #endif
  64:../Libraries/libscpi/src/ieee488.c **** 
  65:../Libraries/libscpi/src/ieee488.c **** };
  66:../Libraries/libscpi/src/ieee488.c **** 
  67:../Libraries/libscpi/src/ieee488.c **** static const scpi_reg_group_info_t scpi_reg_group_details[SCPI_REG_GROUP_COUNT] = {
  68:../Libraries/libscpi/src/ieee488.c ****     { 
  69:../Libraries/libscpi/src/ieee488.c ****         SCPI_REG_STB,
  70:../Libraries/libscpi/src/ieee488.c ****         SCPI_REG_SRE,
  71:../Libraries/libscpi/src/ieee488.c ****         SCPI_REG_NONE,
  72:../Libraries/libscpi/src/ieee488.c ****         SCPI_REG_NONE,
  73:../Libraries/libscpi/src/ieee488.c ****         SCPI_REG_NONE,
  74:../Libraries/libscpi/src/ieee488.c ****         SCPI_REG_NONE,
  75:../Libraries/libscpi/src/ieee488.c ****         0
  76:../Libraries/libscpi/src/ieee488.c ****     }, /* SCPI_REG_GROUP_STB */
  77:../Libraries/libscpi/src/ieee488.c ****     { 
  78:../Libraries/libscpi/src/ieee488.c ****         SCPI_REG_ESR,
  79:../Libraries/libscpi/src/ieee488.c ****         SCPI_REG_ESE,
  80:../Libraries/libscpi/src/ieee488.c ****         SCPI_REG_NONE,
  81:../Libraries/libscpi/src/ieee488.c ****         SCPI_REG_NONE,
  82:../Libraries/libscpi/src/ieee488.c ****         SCPI_REG_NONE,
  83:../Libraries/libscpi/src/ieee488.c ****         SCPI_REG_STB,
  84:../Libraries/libscpi/src/ieee488.c ****         STB_ESR
  85:../Libraries/libscpi/src/ieee488.c ****     }, /* SCPI_REG_GROUP_ESR */
  86:../Libraries/libscpi/src/ieee488.c ****     { 
  87:../Libraries/libscpi/src/ieee488.c ****         SCPI_REG_OPER,
  88:../Libraries/libscpi/src/ieee488.c ****         SCPI_REG_OPERE,
  89:../Libraries/libscpi/src/ieee488.c ****         SCPI_REG_OPERC,
  90:../Libraries/libscpi/src/ieee488.c ****         SCPI_REG_NONE,
  91:../Libraries/libscpi/src/ieee488.c ****         SCPI_REG_NONE,
  92:../Libraries/libscpi/src/ieee488.c ****         SCPI_REG_STB,
  93:../Libraries/libscpi/src/ieee488.c ****         STB_OPS
  94:../Libraries/libscpi/src/ieee488.c ****     }, /* SCPI_REG_GROUP_OPER */
  95:../Libraries/libscpi/src/ieee488.c ****     { 
  96:../Libraries/libscpi/src/ieee488.c ****         SCPI_REG_QUES,
  97:../Libraries/libscpi/src/ieee488.c ****         SCPI_REG_QUESE,
  98:../Libraries/libscpi/src/ieee488.c ****         SCPI_REG_QUESC,
  99:../Libraries/libscpi/src/ieee488.c ****         SCPI_REG_NONE,
 100:../Libraries/libscpi/src/ieee488.c ****         SCPI_REG_NONE,
 101:../Libraries/libscpi/src/ieee488.c ****         SCPI_REG_STB,
 102:../Libraries/libscpi/src/ieee488.c ****         STB_QES
 103:../Libraries/libscpi/src/ieee488.c ****     }, /* SCPI_REG_GROUP_QUES */
 104:../Libraries/libscpi/src/ieee488.c **** 
 105:../Libraries/libscpi/src/ieee488.c **** #if USE_CUSTOM_REGISTERS
 106:../Libraries/libscpi/src/ieee488.c **** #ifndef USER_REGISTER_GROUP_DETAILS
 107:../Libraries/libscpi/src/ieee488.c **** #error "No user register group details defined"
 108:../Libraries/libscpi/src/ieee488.c **** #else
 109:../Libraries/libscpi/src/ieee488.c ****     USER_REGISTER_GROUP_DETAILS
 110:../Libraries/libscpi/src/ieee488.c **** #endif
 111:../Libraries/libscpi/src/ieee488.c **** #endif
 112:../Libraries/libscpi/src/ieee488.c **** 
 113:../Libraries/libscpi/src/ieee488.c **** };
 114:../Libraries/libscpi/src/ieee488.c **** 
 115:../Libraries/libscpi/src/ieee488.c **** /**
 116:../Libraries/libscpi/src/ieee488.c ****  * Get register value
 117:../Libraries/libscpi/src/ieee488.c ****  * @param name - register name
 118:../Libraries/libscpi/src/ieee488.c ****  * @return register value
 119:../Libraries/libscpi/src/ieee488.c ****  */
 120:../Libraries/libscpi/src/ieee488.c **** scpi_reg_val_t SCPI_RegGet(scpi_t * context, scpi_reg_name_t name) {
  86              	 .loc 1 120 0
  87              	 .cfi_startproc
  88              	 
  89              	 
  90              	 
  91 0000 80B4     	 push {r7}
  92              	.LCFI0:
  93              	 .cfi_def_cfa_offset 4
  94              	 .cfi_offset 7,-4
  95 0002 83B0     	 sub sp,sp,#12
  96              	.LCFI1:
  97              	 .cfi_def_cfa_offset 16
  98 0004 00AF     	 add r7,sp,#0
  99              	.LCFI2:
 100              	 .cfi_def_cfa_register 7
 101 0006 7860     	 str r0,[r7,#4]
 102 0008 0B46     	 mov r3,r1
 103 000a FB70     	 strb r3,[r7,#3]
 121:../Libraries/libscpi/src/ieee488.c ****     if ((name < SCPI_REG_COUNT) && context) {
 104              	 .loc 1 121 0
 105 000c FB78     	 ldrb r3,[r7,#3]
 106 000e 092B     	 cmp r3,#9
 107 0010 08D8     	 bhi .L2
 108              	 .loc 1 121 0 is_stmt 0 discriminator 1
 109 0012 7B68     	 ldr r3,[r7,#4]
 110 0014 002B     	 cmp r3,#0
 111 0016 05D0     	 beq .L2
 122:../Libraries/libscpi/src/ieee488.c ****         return context->registers[name];
 112              	 .loc 1 122 0 is_stmt 1
 113 0018 FA78     	 ldrb r2,[r7,#3]
 114 001a 7B68     	 ldr r3,[r7,#4]
 115 001c 2432     	 adds r2,r2,#36
 116 001e 33F81230 	 ldrh r3,[r3,r2,lsl#1]
 117 0022 00E0     	 b .L3
 118              	.L2:
 123:../Libraries/libscpi/src/ieee488.c ****     } else {
 124:../Libraries/libscpi/src/ieee488.c ****         return 0;
 119              	 .loc 1 124 0
 120 0024 0023     	 movs r3,#0
 121              	.L3:
 125:../Libraries/libscpi/src/ieee488.c ****     }
 126:../Libraries/libscpi/src/ieee488.c **** }
 122              	 .loc 1 126 0
 123 0026 1846     	 mov r0,r3
 124 0028 0C37     	 adds r7,r7,#12
 125              	.LCFI3:
 126              	 .cfi_def_cfa_offset 4
 127 002a BD46     	 mov sp,r7
 128              	.LCFI4:
 129              	 .cfi_def_cfa_register 13
 130              	 
 131 002c 5DF8047B 	 ldr r7,[sp],#4
 132              	.LCFI5:
 133              	 .cfi_restore 7
 134              	 .cfi_def_cfa_offset 0
 135 0030 7047     	 bx lr
 136              	 .cfi_endproc
 137              	.LFE0:
 139 0032 00BF     	 .section .text.writeControl,"ax",%progbits
 140              	 .align 2
 141              	 .thumb
 142              	 .thumb_func
 144              	writeControl:
 145              	.LFB1:
 127:../Libraries/libscpi/src/ieee488.c **** 
 128:../Libraries/libscpi/src/ieee488.c **** /**
 129:../Libraries/libscpi/src/ieee488.c ****  * Wrapper function to control interface from context
 130:../Libraries/libscpi/src/ieee488.c ****  * @param context
 131:../Libraries/libscpi/src/ieee488.c ****  * @param ctrl number of controll message
 132:../Libraries/libscpi/src/ieee488.c ****  * @param value value of related register
 133:../Libraries/libscpi/src/ieee488.c ****  */
 134:../Libraries/libscpi/src/ieee488.c **** static size_t writeControl(scpi_t * context, scpi_ctrl_name_t ctrl, scpi_reg_val_t val) {
 146              	 .loc 1 134 0
 147              	 .cfi_startproc
 148              	 
 149              	 
 150 0000 80B5     	 push {r7,lr}
 151              	.LCFI6:
 152              	 .cfi_def_cfa_offset 8
 153              	 .cfi_offset 7,-8
 154              	 .cfi_offset 14,-4
 155 0002 82B0     	 sub sp,sp,#8
 156              	.LCFI7:
 157              	 .cfi_def_cfa_offset 16
 158 0004 00AF     	 add r7,sp,#0
 159              	.LCFI8:
 160              	 .cfi_def_cfa_register 7
 161 0006 7860     	 str r0,[r7,#4]
 162 0008 0B46     	 mov r3,r1
 163 000a FB70     	 strb r3,[r7,#3]
 164 000c 1346     	 mov r3,r2
 165 000e 3B80     	 strh r3,[r7]
 135:../Libraries/libscpi/src/ieee488.c ****     if (context && context->interface && context->interface->control) {
 166              	 .loc 1 135 0
 167 0010 7B68     	 ldr r3,[r7,#4]
 168 0012 002B     	 cmp r3,#0
 169 0014 11D0     	 beq .L5
 170              	 .loc 1 135 0 is_stmt 0 discriminator 1
 171 0016 7B68     	 ldr r3,[r7,#4]
 172 0018 DB6A     	 ldr r3,[r3,#44]
 173 001a 002B     	 cmp r3,#0
 174 001c 0DD0     	 beq .L5
 175              	 .loc 1 135 0 discriminator 2
 176 001e 7B68     	 ldr r3,[r7,#4]
 177 0020 DB6A     	 ldr r3,[r3,#44]
 178 0022 9B68     	 ldr r3,[r3,#8]
 179 0024 002B     	 cmp r3,#0
 180 0026 08D0     	 beq .L5
 136:../Libraries/libscpi/src/ieee488.c ****         return context->interface->control(context, ctrl, val);
 181              	 .loc 1 136 0 is_stmt 1
 182 0028 7B68     	 ldr r3,[r7,#4]
 183 002a DB6A     	 ldr r3,[r3,#44]
 184 002c 9B68     	 ldr r3,[r3,#8]
 185 002e F978     	 ldrb r1,[r7,#3]
 186 0030 3A88     	 ldrh r2,[r7]
 187 0032 7868     	 ldr r0,[r7,#4]
 188 0034 9847     	 blx r3
 189 0036 0346     	 mov r3,r0
 190 0038 00E0     	 b .L6
 191              	.L5:
 137:../Libraries/libscpi/src/ieee488.c ****     } else {
 138:../Libraries/libscpi/src/ieee488.c ****         return 0;
 192              	 .loc 1 138 0
 193 003a 0023     	 movs r3,#0
 194              	.L6:
 139:../Libraries/libscpi/src/ieee488.c ****     }
 140:../Libraries/libscpi/src/ieee488.c **** }
 195              	 .loc 1 140 0
 196 003c 1846     	 mov r0,r3
 197 003e 0837     	 adds r7,r7,#8
 198              	.LCFI9:
 199              	 .cfi_def_cfa_offset 8
 200 0040 BD46     	 mov sp,r7
 201              	.LCFI10:
 202              	 .cfi_def_cfa_register 13
 203              	 
 204 0042 80BD     	 pop {r7,pc}
 205              	 .cfi_endproc
 206              	.LFE1:
 208              	 .section .text.SCPI_RegSet,"ax",%progbits
 209              	 .align 2
 210              	 .global SCPI_RegSet
 211              	 .thumb
 212              	 .thumb_func
 214              	SCPI_RegSet:
 215              	.LFB2:
 141:../Libraries/libscpi/src/ieee488.c **** 
 142:../Libraries/libscpi/src/ieee488.c **** /**
 143:../Libraries/libscpi/src/ieee488.c ****  * Set register value
 144:../Libraries/libscpi/src/ieee488.c ****  * @param name - register name
 145:../Libraries/libscpi/src/ieee488.c ****  * @param val - new value
 146:../Libraries/libscpi/src/ieee488.c ****  */
 147:../Libraries/libscpi/src/ieee488.c **** void SCPI_RegSet(scpi_t * context, scpi_reg_name_t name, scpi_reg_val_t val) {
 216              	 .loc 1 147 0
 217              	 .cfi_startproc
 218              	 
 219              	 
 220 0000 90B5     	 push {r4,r7,lr}
 221              	.LCFI11:
 222              	 .cfi_def_cfa_offset 12
 223              	 .cfi_offset 4,-12
 224              	 .cfi_offset 7,-8
 225              	 .cfi_offset 14,-4
 226 0002 8BB0     	 sub sp,sp,#44
 227              	.LCFI12:
 228              	 .cfi_def_cfa_offset 56
 229 0004 00AF     	 add r7,sp,#0
 230              	.LCFI13:
 231              	 .cfi_def_cfa_register 7
 232 0006 7860     	 str r0,[r7,#4]
 233 0008 0B46     	 mov r3,r1
 234 000a FB70     	 strb r3,[r7,#3]
 235 000c 1346     	 mov r3,r2
 236 000e 3B80     	 strh r3,[r7]
 148:../Libraries/libscpi/src/ieee488.c ****     if ((name >= SCPI_REG_COUNT) || (context == NULL)) {
 237              	 .loc 1 148 0
 238 0010 FB78     	 ldrb r3,[r7,#3]
 239 0012 092B     	 cmp r3,#9
 240 0014 02D8     	 bhi .L8
 241              	 .loc 1 148 0 is_stmt 0 discriminator 1
 242 0016 7B68     	 ldr r3,[r7,#4]
 243 0018 002B     	 cmp r3,#0
 244 001a 00D1     	 bne .L9
 245              	.L8:
 149:../Libraries/libscpi/src/ieee488.c ****         return;
 246              	 .loc 1 149 0 is_stmt 1
 247 001c FDE0     	 b .L7
 248              	.L9:
 249              	.LBB2:
 150:../Libraries/libscpi/src/ieee488.c ****     }
 151:../Libraries/libscpi/src/ieee488.c **** 
 152:../Libraries/libscpi/src/ieee488.c ****     scpi_reg_group_info_t register_group;
 153:../Libraries/libscpi/src/ieee488.c **** 
 154:../Libraries/libscpi/src/ieee488.c ****     do {
 155:../Libraries/libscpi/src/ieee488.c ****         scpi_reg_class_t register_type = scpi_reg_details[name].type;
 250              	 .loc 1 155 0
 251 001e FB78     	 ldrb r3,[r7,#3]
 252 0020 7F4A     	 ldr r2,.L32
 253 0022 12F81330 	 ldrb r3,[r2,r3,lsl#1]
 254 0026 87F82130 	 strb r3,[r7,#33]
 156:../Libraries/libscpi/src/ieee488.c ****         register_group = scpi_reg_group_details[scpi_reg_details[name].group];
 255              	 .loc 1 156 0
 256 002a FB78     	 ldrb r3,[r7,#3]
 257 002c 7C4A     	 ldr r2,.L32
 258 002e 5B00     	 lsls r3,r3,#1
 259 0030 1344     	 add r3,r3,r2
 260 0032 5B78     	 ldrb r3,[r3,#1]
 261 0034 7B49     	 ldr r1,.L32+4
 262 0036 07F10802 	 add r2,r7,#8
 263 003a DB00     	 lsls r3,r3,#3
 264 003c 0B44     	 add r3,r3,r1
 265 003e 93E80300 	 ldmia r3,{r0,r1}
 266 0042 82E80300 	 stmia r2,{r0,r1}
 157:../Libraries/libscpi/src/ieee488.c **** 
 158:../Libraries/libscpi/src/ieee488.c ****         scpi_reg_val_t ptrans;
 159:../Libraries/libscpi/src/ieee488.c **** 
 160:../Libraries/libscpi/src/ieee488.c ****         /* store old register value */
 161:../Libraries/libscpi/src/ieee488.c ****         scpi_reg_val_t old_val = context->registers[name];
 267              	 .loc 1 161 0
 268 0046 FA78     	 ldrb r2,[r7,#3]
 269 0048 7B68     	 ldr r3,[r7,#4]
 270 004a 2432     	 adds r2,r2,#36
 271 004c 33F81230 	 ldrh r3,[r3,r2,lsl#1]
 272 0050 FB83     	 strh r3,[r7,#30]
 162:../Libraries/libscpi/src/ieee488.c **** 
 163:../Libraries/libscpi/src/ieee488.c ****         if (old_val == val) {
 273              	 .loc 1 163 0
 274 0052 FA8B     	 ldrh r2,[r7,#30]
 275 0054 3B88     	 ldrh r3,[r7]
 276 0056 9A42     	 cmp r2,r3
 277 0058 00D1     	 bne .L11
 164:../Libraries/libscpi/src/ieee488.c ****             return;
 278              	 .loc 1 164 0
 279 005a DEE0     	 b .L7
 280              	.L11:
 165:../Libraries/libscpi/src/ieee488.c ****         } else {
 166:../Libraries/libscpi/src/ieee488.c ****             context->registers[name] = val;
 281              	 .loc 1 166 0
 282 005c FA78     	 ldrb r2,[r7,#3]
 283 005e 7B68     	 ldr r3,[r7,#4]
 284 0060 2432     	 adds r2,r2,#36
 285 0062 3988     	 ldrh r1,[r7]
 286 0064 23F81210 	 strh r1,[r3,r2,lsl#1]
 167:../Libraries/libscpi/src/ieee488.c ****         }
 168:../Libraries/libscpi/src/ieee488.c **** 
 169:../Libraries/libscpi/src/ieee488.c ****         switch (register_type) {
 287              	 .loc 1 169 0
 288 0068 97F82130 	 ldrb r3,[r7,#33]
 289 006c 062B     	 cmp r3,#6
 290 006e 00F2CE80 	 bhi .L12
 291 0072 01A2     	 adr r2,.L14
 292 0074 52F823F0 	 ldr pc,[r2,r3,lsl#2]
 293              	 .p2align 2
 294              	.L14:
 295 0078 95000000 	 .word .L13+1
 296 007c 95000000 	 .word .L13+1
 297 0080 0B010000 	 .word .L15+1
 298 0084 19020000 	 .word .L30+1
 299 0088 6D010000 	 .word .L17+1
 300 008c 19020000 	 .word .L30+1
 301 0090 19020000 	 .word .L30+1
 302              	 .p2align 1
 303              	.L13:
 304              	.LBB3:
 170:../Libraries/libscpi/src/ieee488.c ****             case SCPI_REG_CLASS_STB:
 171:../Libraries/libscpi/src/ieee488.c ****             case SCPI_REG_CLASS_SRE:
 172:../Libraries/libscpi/src/ieee488.c ****             {
 173:../Libraries/libscpi/src/ieee488.c ****                 scpi_reg_val_t stb = context->registers[SCPI_REG_STB] & ~STB_SRQ;
 305              	 .loc 1 173 0
 306 0094 7B68     	 ldr r3,[r7,#4]
 307 0096 B3F84830 	 ldrh r3,[r3,#72]
 308 009a 23F04003 	 bic r3,r3,#64
 309 009e BB83     	 strh r3,[r7,#28]
 174:../Libraries/libscpi/src/ieee488.c ****                 scpi_reg_val_t sre = context->registers[SCPI_REG_SRE] & ~STB_SRQ;
 310              	 .loc 1 174 0
 311 00a0 7B68     	 ldr r3,[r7,#4]
 312 00a2 B3F84A30 	 ldrh r3,[r3,#74]
 313 00a6 23F04003 	 bic r3,r3,#64
 314 00aa 7B83     	 strh r3,[r7,#26]
 175:../Libraries/libscpi/src/ieee488.c **** 
 176:../Libraries/libscpi/src/ieee488.c ****                 if (stb & sre) {
 315              	 .loc 1 176 0
 316 00ac BA8B     	 ldrh r2,[r7,#28]
 317 00ae 7B8B     	 ldrh r3,[r7,#26]
 318 00b0 1340     	 ands r3,r3,r2
 319 00b2 9BB2     	 uxth r3,r3
 320 00b4 002B     	 cmp r3,#0
 321 00b6 1DD0     	 beq .L18
 177:../Libraries/libscpi/src/ieee488.c ****                     ptrans = ((old_val ^ val) & val);
 322              	 .loc 1 177 0
 323 00b8 FB8B     	 ldrh r3,[r7,#30]
 324 00ba DB43     	 mvns r3,r3
 325 00bc 9AB2     	 uxth r2,r3
 326 00be 3B88     	 ldrh r3,[r7]
 327 00c0 1340     	 ands r3,r3,r2
 328 00c2 3B83     	 strh r3,[r7,#24]
 178:../Libraries/libscpi/src/ieee488.c ****                     context->registers[SCPI_REG_STB] |= STB_SRQ;
 329              	 .loc 1 178 0
 330 00c4 7B68     	 ldr r3,[r7,#4]
 331 00c6 B3F84830 	 ldrh r3,[r3,#72]
 332 00ca 43F04003 	 orr r3,r3,#64
 333 00ce 9AB2     	 uxth r2,r3
 334 00d0 7B68     	 ldr r3,[r7,#4]
 335 00d2 A3F84820 	 strh r2,[r3,#72]
 179:../Libraries/libscpi/src/ieee488.c ****                     if (ptrans & val) {
 336              	 .loc 1 179 0
 337 00d6 3A8B     	 ldrh r2,[r7,#24]
 338 00d8 3B88     	 ldrh r3,[r7]
 339 00da 1340     	 ands r3,r3,r2
 340 00dc 9BB2     	 uxth r3,r3
 341 00de 002B     	 cmp r3,#0
 342 00e0 12D0     	 beq .L20
 180:../Libraries/libscpi/src/ieee488.c ****                         writeControl(context, SCPI_CTRL_SRQ, context->registers[SCPI_REG_STB]);
 343              	 .loc 1 180 0
 344 00e2 7B68     	 ldr r3,[r7,#4]
 345 00e4 B3F84830 	 ldrh r3,[r3,#72]
 346 00e8 7868     	 ldr r0,[r7,#4]
 347 00ea 0121     	 movs r1,#1
 348 00ec 1A46     	 mov r2,r3
 349 00ee FFF7FEFF 	 bl writeControl
 181:../Libraries/libscpi/src/ieee488.c ****                     }
 182:../Libraries/libscpi/src/ieee488.c ****                 } else {
 183:../Libraries/libscpi/src/ieee488.c ****                     context->registers[SCPI_REG_STB] &= ~STB_SRQ;
 184:../Libraries/libscpi/src/ieee488.c ****                 }
 185:../Libraries/libscpi/src/ieee488.c ****                 break;
 350              	 .loc 1 185 0
 351 00f2 8CE0     	 b .L12
 352              	.L18:
 183:../Libraries/libscpi/src/ieee488.c ****                 }
 353              	 .loc 1 183 0
 354 00f4 7B68     	 ldr r3,[r7,#4]
 355 00f6 B3F84830 	 ldrh r3,[r3,#72]
 356 00fa 23F04003 	 bic r3,r3,#64
 357 00fe 9AB2     	 uxth r2,r3
 358 0100 7B68     	 ldr r3,[r7,#4]
 359 0102 A3F84820 	 strh r2,[r3,#72]
 360              	 .loc 1 185 0
 361 0106 82E0     	 b .L12
 362              	.L20:
 363              	 .loc 1 185 0 is_stmt 0 discriminator 1
 364 0108 81E0     	 b .L12
 365              	.L15:
 366              	.LBE3:
 367              	.LBB4:
 186:../Libraries/libscpi/src/ieee488.c ****             }
 187:../Libraries/libscpi/src/ieee488.c ****             case SCPI_REG_CLASS_EVEN:
 188:../Libraries/libscpi/src/ieee488.c ****             {
 189:../Libraries/libscpi/src/ieee488.c ****                 scpi_reg_val_t enable;
 190:../Libraries/libscpi/src/ieee488.c ****                 if(register_group.enable != SCPI_REG_NONE) {
 368              	 .loc 1 190 0 is_stmt 1
 369 010a 7B7A     	 ldrb r3,[r7,#9]
 370 010c 0B2B     	 cmp r3,#11
 371 010e 07D0     	 beq .L21
 191:../Libraries/libscpi/src/ieee488.c ****                     enable = SCPI_RegGet(context, register_group.enable);
 372              	 .loc 1 191 0
 373 0110 7B7A     	 ldrb r3,[r7,#9]
 374 0112 7868     	 ldr r0,[r7,#4]
 375 0114 1946     	 mov r1,r3
 376 0116 FFF7FEFF 	 bl SCPI_RegGet
 377 011a 0346     	 mov r3,r0
 378 011c FB84     	 strh r3,[r7,#38]
 379 011e 02E0     	 b .L22
 380              	.L21:
 192:../Libraries/libscpi/src/ieee488.c ****                 } else {
 193:../Libraries/libscpi/src/ieee488.c ****                     enable = 0xFFFF;
 381              	 .loc 1 193 0
 382 0120 4FF6FF73 	 movw r3,#65535
 383 0124 FB84     	 strh r3,[r7,#38]
 384              	.L22:
 194:../Libraries/libscpi/src/ieee488.c ****                 }
 195:../Libraries/libscpi/src/ieee488.c **** 
 196:../Libraries/libscpi/src/ieee488.c ****                 scpi_bool_t summary = val & enable;
 385              	 .loc 1 196 0
 386 0126 3A88     	 ldrh r2,[r7]
 387 0128 FB8C     	 ldrh r3,[r7,#38]
 388 012a 1340     	 ands r3,r3,r2
 389 012c 9BB2     	 uxth r3,r3
 390 012e 002B     	 cmp r3,#0
 391 0130 14BF     	 ite ne
 392 0132 0123     	 movne r3,#1
 393 0134 0023     	 moveq r3,#0
 394 0136 FB75     	 strb r3,[r7,#23]
 197:../Libraries/libscpi/src/ieee488.c **** 
 198:../Libraries/libscpi/src/ieee488.c ****                 name = register_group.parent_reg;
 395              	 .loc 1 198 0
 396 0138 7B7B     	 ldrb r3,[r7,#13]
 397 013a FB70     	 strb r3,[r7,#3]
 199:../Libraries/libscpi/src/ieee488.c ****                 val = SCPI_RegGet(context, register_group.parent_reg);
 398              	 .loc 1 199 0
 399 013c 7B7B     	 ldrb r3,[r7,#13]
 400 013e 7868     	 ldr r0,[r7,#4]
 401 0140 1946     	 mov r1,r3
 402 0142 FFF7FEFF 	 bl SCPI_RegGet
 403 0146 0346     	 mov r3,r0
 404 0148 3B80     	 strh r3,[r7]
 200:../Libraries/libscpi/src/ieee488.c ****                 if (summary) {
 405              	 .loc 1 200 0
 406 014a FB7D     	 ldrb r3,[r7,#23]
 407 014c 002B     	 cmp r3,#0
 408 014e 04D0     	 beq .L23
 201:../Libraries/libscpi/src/ieee488.c ****                     val |= register_group.parent_bit;
 409              	 .loc 1 201 0
 410 0150 FA89     	 ldrh r2,[r7,#14]
 411 0152 3B88     	 ldrh r3,[r7]
 412 0154 1343     	 orrs r3,r3,r2
 413 0156 3B80     	 strh r3,[r7]
 202:../Libraries/libscpi/src/ieee488.c ****                 } else {
 203:../Libraries/libscpi/src/ieee488.c ****                     val &= ~(register_group.parent_bit);
 204:../Libraries/libscpi/src/ieee488.c ****                 }
 205:../Libraries/libscpi/src/ieee488.c ****                 break;
 414              	 .loc 1 205 0
 415 0158 59E0     	 b .L12
 416              	.L23:
 203:../Libraries/libscpi/src/ieee488.c ****                 }
 417              	 .loc 1 203 0
 418 015a FB89     	 ldrh r3,[r7,#14]
 419 015c 9BB2     	 uxth r3,r3
 420 015e DB43     	 mvns r3,r3
 421 0160 9AB2     	 uxth r2,r3
 422 0162 3B88     	 ldrh r3,[r7]
 423 0164 1340     	 ands r3,r3,r2
 424 0166 9BB2     	 uxth r3,r3
 425 0168 3B80     	 strh r3,[r7]
 426              	 .loc 1 205 0
 427 016a 50E0     	 b .L12
 428              	.L17:
 429              	.LBE4:
 206:../Libraries/libscpi/src/ieee488.c ****             }
 207:../Libraries/libscpi/src/ieee488.c ****             case SCPI_REG_CLASS_COND:
 208:../Libraries/libscpi/src/ieee488.c ****             {
 209:../Libraries/libscpi/src/ieee488.c ****                 name = register_group.event;
 430              	 .loc 1 209 0
 431 016c 3B7A     	 ldrb r3,[r7,#8]
 432 016e FB70     	 strb r3,[r7,#3]
 210:../Libraries/libscpi/src/ieee488.c **** 
 211:../Libraries/libscpi/src/ieee488.c ****                 if(register_group.ptfilt == SCPI_REG_NONE && register_group.ntfilt == SCPI_REG_NONE
 433              	 .loc 1 211 0
 434 0170 FB7A     	 ldrb r3,[r7,#11]
 435 0172 0B2B     	 cmp r3,#11
 436 0174 11D1     	 bne .L25
 437              	 .loc 1 211 0 is_stmt 0 discriminator 1
 438 0176 3B7B     	 ldrb r3,[r7,#12]
 439 0178 0B2B     	 cmp r3,#11
 440 017a 0ED1     	 bne .L25
 212:../Libraries/libscpi/src/ieee488.c ****                     val = ((old_val ^ val) & val) | SCPI_RegGet(context, register_group.event);
 441              	 .loc 1 212 0 is_stmt 1
 442 017c FB8B     	 ldrh r3,[r7,#30]
 443 017e DB43     	 mvns r3,r3
 444 0180 9AB2     	 uxth r2,r3
 445 0182 3B88     	 ldrh r3,[r7]
 446 0184 1340     	 ands r3,r3,r2
 447 0186 9CB2     	 uxth r4,r3
 448 0188 3B7A     	 ldrb r3,[r7,#8]
 449 018a 7868     	 ldr r0,[r7,#4]
 450 018c 1946     	 mov r1,r3
 451 018e FFF7FEFF 	 bl SCPI_RegGet
 452 0192 0346     	 mov r3,r0
 453 0194 2343     	 orrs r3,r3,r4
 454 0196 3B80     	 strh r3,[r7]
 213:../Libraries/libscpi/src/ieee488.c ****                 } else {
 214:../Libraries/libscpi/src/ieee488.c ****                     scpi_reg_val_t ptfilt = 0, ntfilt = 0;
 215:../Libraries/libscpi/src/ieee488.c ****                     scpi_reg_val_t transitions;
 216:../Libraries/libscpi/src/ieee488.c ****                     scpi_reg_val_t ntrans;
 217:../Libraries/libscpi/src/ieee488.c **** 
 218:../Libraries/libscpi/src/ieee488.c ****                     if(register_group.ptfilt != SCPI_REG_NONE) {
 219:../Libraries/libscpi/src/ieee488.c ****                         ptfilt = SCPI_RegGet(context, register_group.ptfilt);
 220:../Libraries/libscpi/src/ieee488.c ****                     }
 221:../Libraries/libscpi/src/ieee488.c **** 
 222:../Libraries/libscpi/src/ieee488.c ****                     if(register_group.ntfilt != SCPI_REG_NONE) {
 223:../Libraries/libscpi/src/ieee488.c ****                         ntfilt = SCPI_RegGet(context, register_group.ntfilt);
 224:../Libraries/libscpi/src/ieee488.c ****                     }
 225:../Libraries/libscpi/src/ieee488.c **** 
 226:../Libraries/libscpi/src/ieee488.c ****                     transitions = old_val ^ val;
 227:../Libraries/libscpi/src/ieee488.c ****                     ptrans = transitions & val;
 228:../Libraries/libscpi/src/ieee488.c ****                     ntrans = transitions & ~ptrans;
 229:../Libraries/libscpi/src/ieee488.c **** 
 230:../Libraries/libscpi/src/ieee488.c ****                     val = ((ptrans & ptfilt) | (ntrans & ntfilt)) | SCPI_RegGet(context, register_g
 231:../Libraries/libscpi/src/ieee488.c ****                 }
 232:../Libraries/libscpi/src/ieee488.c ****                 break;
 455              	 .loc 1 232 0
 456 0198 38E0     	 b .L31
 457              	.L25:
 458              	.LBB5:
 214:../Libraries/libscpi/src/ieee488.c ****                     scpi_reg_val_t transitions;
 459              	 .loc 1 214 0
 460 019a 0023     	 movs r3,#0
 461 019c BB84     	 strh r3,[r7,#36]
 462 019e 0023     	 movs r3,#0
 463 01a0 7B84     	 strh r3,[r7,#34]
 218:../Libraries/libscpi/src/ieee488.c ****                         ptfilt = SCPI_RegGet(context, register_group.ptfilt);
 464              	 .loc 1 218 0
 465 01a2 FB7A     	 ldrb r3,[r7,#11]
 466 01a4 0B2B     	 cmp r3,#11
 467 01a6 06D0     	 beq .L27
 219:../Libraries/libscpi/src/ieee488.c ****                     }
 468              	 .loc 1 219 0
 469 01a8 FB7A     	 ldrb r3,[r7,#11]
 470 01aa 7868     	 ldr r0,[r7,#4]
 471 01ac 1946     	 mov r1,r3
 472 01ae FFF7FEFF 	 bl SCPI_RegGet
 473 01b2 0346     	 mov r3,r0
 474 01b4 BB84     	 strh r3,[r7,#36]
 475              	.L27:
 222:../Libraries/libscpi/src/ieee488.c ****                         ntfilt = SCPI_RegGet(context, register_group.ntfilt);
 476              	 .loc 1 222 0
 477 01b6 3B7B     	 ldrb r3,[r7,#12]
 478 01b8 0B2B     	 cmp r3,#11
 479 01ba 06D0     	 beq .L28
 223:../Libraries/libscpi/src/ieee488.c ****                     }
 480              	 .loc 1 223 0
 481 01bc 3B7B     	 ldrb r3,[r7,#12]
 482 01be 7868     	 ldr r0,[r7,#4]
 483 01c0 1946     	 mov r1,r3
 484 01c2 FFF7FEFF 	 bl SCPI_RegGet
 485 01c6 0346     	 mov r3,r0
 486 01c8 7B84     	 strh r3,[r7,#34]
 487              	.L28:
 226:../Libraries/libscpi/src/ieee488.c ****                     ptrans = transitions & val;
 488              	 .loc 1 226 0
 489 01ca FA8B     	 ldrh r2,[r7,#30]
 490 01cc 3B88     	 ldrh r3,[r7]
 491 01ce 5340     	 eors r3,r3,r2
 492 01d0 BB82     	 strh r3,[r7,#20]
 227:../Libraries/libscpi/src/ieee488.c ****                     ntrans = transitions & ~ptrans;
 493              	 .loc 1 227 0
 494 01d2 BA8A     	 ldrh r2,[r7,#20]
 495 01d4 3B88     	 ldrh r3,[r7]
 496 01d6 1340     	 ands r3,r3,r2
 497 01d8 3B83     	 strh r3,[r7,#24]
 228:../Libraries/libscpi/src/ieee488.c **** 
 498              	 .loc 1 228 0
 499 01da 3B8B     	 ldrh r3,[r7,#24]
 500 01dc DB43     	 mvns r3,r3
 501 01de 9AB2     	 uxth r2,r3
 502 01e0 BB8A     	 ldrh r3,[r7,#20]
 503 01e2 1340     	 ands r3,r3,r2
 504 01e4 9BB2     	 uxth r3,r3
 505 01e6 7B82     	 strh r3,[r7,#18]
 230:../Libraries/libscpi/src/ieee488.c ****                 }
 506              	 .loc 1 230 0
 507 01e8 3A8B     	 ldrh r2,[r7,#24]
 508 01ea BB8C     	 ldrh r3,[r7,#36]
 509 01ec 1340     	 ands r3,r3,r2
 510 01ee 9AB2     	 uxth r2,r3
 511 01f0 798A     	 ldrh r1,[r7,#18]
 512 01f2 7B8C     	 ldrh r3,[r7,#34]
 513 01f4 0B40     	 ands r3,r3,r1
 514 01f6 9BB2     	 uxth r3,r3
 515 01f8 1343     	 orrs r3,r3,r2
 516 01fa 9CB2     	 uxth r4,r3
 517 01fc 3B7A     	 ldrb r3,[r7,#8]
 518 01fe 7868     	 ldr r0,[r7,#4]
 519 0200 1946     	 mov r1,r3
 520 0202 FFF7FEFF 	 bl SCPI_RegGet
 521 0206 0346     	 mov r3,r0
 522 0208 2343     	 orrs r3,r3,r4
 523 020a 3B80     	 strh r3,[r7]
 524              	.L31:
 525              	.LBE5:
 526              	 .loc 1 232 0
 527 020c 00BF     	 nop
 528              	.L12:
 529              	.LBE2:
 233:../Libraries/libscpi/src/ieee488.c ****             }
 234:../Libraries/libscpi/src/ieee488.c ****             case SCPI_REG_CLASS_ENAB:
 235:../Libraries/libscpi/src/ieee488.c ****             case SCPI_REG_CLASS_NTR:
 236:../Libraries/libscpi/src/ieee488.c ****             case SCPI_REG_CLASS_PTR:
 237:../Libraries/libscpi/src/ieee488.c ****                 return;
 238:../Libraries/libscpi/src/ieee488.c ****         }
 239:../Libraries/libscpi/src/ieee488.c ****     } while(register_group.parent_reg != SCPI_REG_NONE);
 530              	 .loc 1 239 0
 531 020e 7B7B     	 ldrb r3,[r7,#13]
 532 0210 0B2B     	 cmp r3,#11
 533 0212 7FF404AF 	 bne .L9
 534 0216 00E0     	 b .L7
 535              	.L30:
 536              	.LBB6:
 237:../Libraries/libscpi/src/ieee488.c ****         }
 537              	 .loc 1 237 0
 538 0218 00BF     	 nop
 539              	.L7:
 540              	.LBE6:
 240:../Libraries/libscpi/src/ieee488.c **** }
 541              	 .loc 1 240 0
 542 021a 2C37     	 adds r7,r7,#44
 543              	.LCFI14:
 544              	 .cfi_def_cfa_offset 12
 545 021c BD46     	 mov sp,r7
 546              	.LCFI15:
 547              	 .cfi_def_cfa_register 13
 548              	 
 549 021e 90BD     	 pop {r4,r7,pc}
 550              	.L33:
 551              	 .align 2
 552              	.L32:
 553 0220 00000000 	 .word scpi_reg_details
 554 0224 00000000 	 .word scpi_reg_group_details
 555              	 .cfi_endproc
 556              	.LFE2:
 558              	 .section .text.SCPI_RegSetBits,"ax",%progbits
 559              	 .align 2
 560              	 .global SCPI_RegSetBits
 561              	 .thumb
 562              	 .thumb_func
 564              	SCPI_RegSetBits:
 565              	.LFB3:
 241:../Libraries/libscpi/src/ieee488.c **** 
 242:../Libraries/libscpi/src/ieee488.c **** /**
 243:../Libraries/libscpi/src/ieee488.c ****  * Set register bits
 244:../Libraries/libscpi/src/ieee488.c ****  * @param name - register name
 245:../Libraries/libscpi/src/ieee488.c ****  * @param bits bit mask
 246:../Libraries/libscpi/src/ieee488.c ****  */
 247:../Libraries/libscpi/src/ieee488.c **** void SCPI_RegSetBits(scpi_t * context, scpi_reg_name_t name, scpi_reg_val_t bits) {
 566              	 .loc 1 247 0
 567              	 .cfi_startproc
 568              	 
 569              	 
 570 0000 80B5     	 push {r7,lr}
 571              	.LCFI16:
 572              	 .cfi_def_cfa_offset 8
 573              	 .cfi_offset 7,-8
 574              	 .cfi_offset 14,-4
 575 0002 82B0     	 sub sp,sp,#8
 576              	.LCFI17:
 577              	 .cfi_def_cfa_offset 16
 578 0004 00AF     	 add r7,sp,#0
 579              	.LCFI18:
 580              	 .cfi_def_cfa_register 7
 581 0006 7860     	 str r0,[r7,#4]
 582 0008 0B46     	 mov r3,r1
 583 000a FB70     	 strb r3,[r7,#3]
 584 000c 1346     	 mov r3,r2
 585 000e 3B80     	 strh r3,[r7]
 248:../Libraries/libscpi/src/ieee488.c ****     SCPI_RegSet(context, name, SCPI_RegGet(context, name) | bits);
 586              	 .loc 1 248 0
 587 0010 FB78     	 ldrb r3,[r7,#3]
 588 0012 7868     	 ldr r0,[r7,#4]
 589 0014 1946     	 mov r1,r3
 590 0016 FFF7FEFF 	 bl SCPI_RegGet
 591 001a 0346     	 mov r3,r0
 592 001c 1A46     	 mov r2,r3
 593 001e 3B88     	 ldrh r3,[r7]
 594 0020 1343     	 orrs r3,r3,r2
 595 0022 9BB2     	 uxth r3,r3
 596 0024 FA78     	 ldrb r2,[r7,#3]
 597 0026 7868     	 ldr r0,[r7,#4]
 598 0028 1146     	 mov r1,r2
 599 002a 1A46     	 mov r2,r3
 600 002c FFF7FEFF 	 bl SCPI_RegSet
 249:../Libraries/libscpi/src/ieee488.c **** }
 601              	 .loc 1 249 0
 602 0030 0837     	 adds r7,r7,#8
 603              	.LCFI19:
 604              	 .cfi_def_cfa_offset 8
 605 0032 BD46     	 mov sp,r7
 606              	.LCFI20:
 607              	 .cfi_def_cfa_register 13
 608              	 
 609 0034 80BD     	 pop {r7,pc}
 610              	 .cfi_endproc
 611              	.LFE3:
 613 0036 00BF     	 .section .text.SCPI_RegClearBits,"ax",%progbits
 614              	 .align 2
 615              	 .global SCPI_RegClearBits
 616              	 .thumb
 617              	 .thumb_func
 619              	SCPI_RegClearBits:
 620              	.LFB4:
 250:../Libraries/libscpi/src/ieee488.c **** 
 251:../Libraries/libscpi/src/ieee488.c **** /**
 252:../Libraries/libscpi/src/ieee488.c ****  * Clear register bits
 253:../Libraries/libscpi/src/ieee488.c ****  * @param name - register name
 254:../Libraries/libscpi/src/ieee488.c ****  * @param bits bit mask
 255:../Libraries/libscpi/src/ieee488.c ****  */
 256:../Libraries/libscpi/src/ieee488.c **** void SCPI_RegClearBits(scpi_t * context, scpi_reg_name_t name, scpi_reg_val_t bits) {
 621              	 .loc 1 256 0
 622              	 .cfi_startproc
 623              	 
 624              	 
 625 0000 80B5     	 push {r7,lr}
 626              	.LCFI21:
 627              	 .cfi_def_cfa_offset 8
 628              	 .cfi_offset 7,-8
 629              	 .cfi_offset 14,-4
 630 0002 82B0     	 sub sp,sp,#8
 631              	.LCFI22:
 632              	 .cfi_def_cfa_offset 16
 633 0004 00AF     	 add r7,sp,#0
 634              	.LCFI23:
 635              	 .cfi_def_cfa_register 7
 636 0006 7860     	 str r0,[r7,#4]
 637 0008 0B46     	 mov r3,r1
 638 000a FB70     	 strb r3,[r7,#3]
 639 000c 1346     	 mov r3,r2
 640 000e 3B80     	 strh r3,[r7]
 257:../Libraries/libscpi/src/ieee488.c ****     SCPI_RegSet(context, name, SCPI_RegGet(context, name) & ~bits);
 641              	 .loc 1 257 0
 642 0010 FB78     	 ldrb r3,[r7,#3]
 643 0012 7868     	 ldr r0,[r7,#4]
 644 0014 1946     	 mov r1,r3
 645 0016 FFF7FEFF 	 bl SCPI_RegGet
 646 001a 0346     	 mov r3,r0
 647 001c 9AB2     	 uxth r2,r3
 648 001e 3B88     	 ldrh r3,[r7]
 649 0020 DB43     	 mvns r3,r3
 650 0022 9BB2     	 uxth r3,r3
 651 0024 1340     	 ands r3,r3,r2
 652 0026 9BB2     	 uxth r3,r3
 653 0028 9BB2     	 uxth r3,r3
 654 002a FA78     	 ldrb r2,[r7,#3]
 655 002c 7868     	 ldr r0,[r7,#4]
 656 002e 1146     	 mov r1,r2
 657 0030 1A46     	 mov r2,r3
 658 0032 FFF7FEFF 	 bl SCPI_RegSet
 258:../Libraries/libscpi/src/ieee488.c **** }
 659              	 .loc 1 258 0
 660 0036 0837     	 adds r7,r7,#8
 661              	.LCFI24:
 662              	 .cfi_def_cfa_offset 8
 663 0038 BD46     	 mov sp,r7
 664              	.LCFI25:
 665              	 .cfi_def_cfa_register 13
 666              	 
 667 003a 80BD     	 pop {r7,pc}
 668              	 .cfi_endproc
 669              	.LFE4:
 671              	 .section .text.SCPI_CoreCls,"ax",%progbits
 672              	 .align 2
 673              	 .global SCPI_CoreCls
 674              	 .thumb
 675              	 .thumb_func
 677              	SCPI_CoreCls:
 678              	.LFB5:
 259:../Libraries/libscpi/src/ieee488.c **** 
 260:../Libraries/libscpi/src/ieee488.c **** /**
 261:../Libraries/libscpi/src/ieee488.c ****  * *CLS - This command clears all status data structures in a device. 
 262:../Libraries/libscpi/src/ieee488.c ****  *        For a device which minimally complies with SCPI. (SCPI std 4.1.3.2)
 263:../Libraries/libscpi/src/ieee488.c ****  * @param context
 264:../Libraries/libscpi/src/ieee488.c ****  * @return 
 265:../Libraries/libscpi/src/ieee488.c ****  */
 266:../Libraries/libscpi/src/ieee488.c **** scpi_result_t SCPI_CoreCls(scpi_t * context) {
 679              	 .loc 1 266 0
 680              	 .cfi_startproc
 681              	 
 682              	 
 683 0000 80B5     	 push {r7,lr}
 684              	.LCFI26:
 685              	 .cfi_def_cfa_offset 8
 686              	 .cfi_offset 7,-8
 687              	 .cfi_offset 14,-4
 688 0002 84B0     	 sub sp,sp,#16
 689              	.LCFI27:
 690              	 .cfi_def_cfa_offset 24
 691 0004 00AF     	 add r7,sp,#0
 692              	.LCFI28:
 693              	 .cfi_def_cfa_register 7
 694 0006 7860     	 str r0,[r7,#4]
 267:../Libraries/libscpi/src/ieee488.c ****     SCPI_ErrorClear(context);
 695              	 .loc 1 267 0
 696 0008 7868     	 ldr r0,[r7,#4]
 697 000a FFF7FEFF 	 bl SCPI_ErrorClear
 268:../Libraries/libscpi/src/ieee488.c ****     int i;
 269:../Libraries/libscpi/src/ieee488.c ****     for (i = 0; i < SCPI_REG_GROUP_COUNT; ++i) {
 698              	 .loc 1 269 0
 699 000e 0023     	 movs r3,#0
 700 0010 FB60     	 str r3,[r7,#12]
 701 0012 10E0     	 b .L37
 702              	.L39:
 703              	.LBB7:
 270:../Libraries/libscpi/src/ieee488.c ****         scpi_reg_name_t event_reg = scpi_reg_group_details[i].event;
 704              	 .loc 1 270 0
 705 0014 0C4A     	 ldr r2,.L41
 706 0016 FB68     	 ldr r3,[r7,#12]
 707 0018 12F83330 	 ldrb r3,[r2,r3,lsl#3]
 708 001c FB72     	 strb r3,[r7,#11]
 271:../Libraries/libscpi/src/ieee488.c ****         if (event_reg != SCPI_REG_STB) {
 709              	 .loc 1 271 0
 710 001e FB7A     	 ldrb r3,[r7,#11]
 711 0020 002B     	 cmp r3,#0
 712 0022 05D0     	 beq .L38
 272:../Libraries/libscpi/src/ieee488.c ****             SCPI_RegSet(context, event_reg, 0);
 713              	 .loc 1 272 0
 714 0024 FB7A     	 ldrb r3,[r7,#11]
 715 0026 7868     	 ldr r0,[r7,#4]
 716 0028 1946     	 mov r1,r3
 717 002a 0022     	 movs r2,#0
 718 002c FFF7FEFF 	 bl SCPI_RegSet
 719              	.L38:
 720              	.LBE7:
 269:../Libraries/libscpi/src/ieee488.c ****         scpi_reg_name_t event_reg = scpi_reg_group_details[i].event;
 721              	 .loc 1 269 0 discriminator 2
 722 0030 FB68     	 ldr r3,[r7,#12]
 723 0032 0133     	 adds r3,r3,#1
 724 0034 FB60     	 str r3,[r7,#12]
 725              	.L37:
 269:../Libraries/libscpi/src/ieee488.c ****         scpi_reg_name_t event_reg = scpi_reg_group_details[i].event;
 726              	 .loc 1 269 0 is_stmt 0 discriminator 1
 727 0036 FB68     	 ldr r3,[r7,#12]
 728 0038 032B     	 cmp r3,#3
 729 003a EBDD     	 ble .L39
 273:../Libraries/libscpi/src/ieee488.c ****         }
 274:../Libraries/libscpi/src/ieee488.c ****     }
 275:../Libraries/libscpi/src/ieee488.c ****     return SCPI_RES_OK;
 730              	 .loc 1 275 0 is_stmt 1
 731 003c 0123     	 movs r3,#1
 732 003e 5BB2     	 sxtb r3,r3
 276:../Libraries/libscpi/src/ieee488.c **** }
 733              	 .loc 1 276 0
 734 0040 1846     	 mov r0,r3
 735 0042 1037     	 adds r7,r7,#16
 736              	.LCFI29:
 737              	 .cfi_def_cfa_offset 8
 738 0044 BD46     	 mov sp,r7
 739              	.LCFI30:
 740              	 .cfi_def_cfa_register 13
 741              	 
 742 0046 80BD     	 pop {r7,pc}
 743              	.L42:
 744              	 .align 2
 745              	.L41:
 746 0048 00000000 	 .word scpi_reg_group_details
 747              	 .cfi_endproc
 748              	.LFE5:
 750              	 .section .text.SCPI_CoreEse,"ax",%progbits
 751              	 .align 2
 752              	 .global SCPI_CoreEse
 753              	 .thumb
 754              	 .thumb_func
 756              	SCPI_CoreEse:
 757              	.LFB6:
 277:../Libraries/libscpi/src/ieee488.c **** 
 278:../Libraries/libscpi/src/ieee488.c **** /**
 279:../Libraries/libscpi/src/ieee488.c ****  * *ESE
 280:../Libraries/libscpi/src/ieee488.c ****  * @param context
 281:../Libraries/libscpi/src/ieee488.c ****  * @return 
 282:../Libraries/libscpi/src/ieee488.c ****  */
 283:../Libraries/libscpi/src/ieee488.c **** scpi_result_t SCPI_CoreEse(scpi_t * context) {
 758              	 .loc 1 283 0
 759              	 .cfi_startproc
 760              	 
 761              	 
 762 0000 80B5     	 push {r7,lr}
 763              	.LCFI31:
 764              	 .cfi_def_cfa_offset 8
 765              	 .cfi_offset 7,-8
 766              	 .cfi_offset 14,-4
 767 0002 84B0     	 sub sp,sp,#16
 768              	.LCFI32:
 769              	 .cfi_def_cfa_offset 24
 770 0004 00AF     	 add r7,sp,#0
 771              	.LCFI33:
 772              	 .cfi_def_cfa_register 7
 773 0006 7860     	 str r0,[r7,#4]
 284:../Libraries/libscpi/src/ieee488.c ****     int32_t new_ESE;
 285:../Libraries/libscpi/src/ieee488.c ****     if (SCPI_ParamInt32(context, &new_ESE, TRUE)) {
 774              	 .loc 1 285 0
 775 0008 07F10C03 	 add r3,r7,#12
 776 000c 7868     	 ldr r0,[r7,#4]
 777 000e 1946     	 mov r1,r3
 778 0010 0122     	 movs r2,#1
 779 0012 FFF7FEFF 	 bl SCPI_ParamInt32
 780 0016 0346     	 mov r3,r0
 781 0018 002B     	 cmp r3,#0
 782 001a 08D0     	 beq .L44
 286:../Libraries/libscpi/src/ieee488.c ****         SCPI_RegSet(context, SCPI_REG_ESE, (scpi_reg_val_t) new_ESE);
 783              	 .loc 1 286 0
 784 001c FB68     	 ldr r3,[r7,#12]
 785 001e 9BB2     	 uxth r3,r3
 786 0020 7868     	 ldr r0,[r7,#4]
 787 0022 0321     	 movs r1,#3
 788 0024 1A46     	 mov r2,r3
 789 0026 FFF7FEFF 	 bl SCPI_RegSet
 287:../Libraries/libscpi/src/ieee488.c ****         return SCPI_RES_OK;
 790              	 .loc 1 287 0
 791 002a 0123     	 movs r3,#1
 792 002c 00E0     	 b .L46
 793              	.L44:
 288:../Libraries/libscpi/src/ieee488.c ****     }
 289:../Libraries/libscpi/src/ieee488.c ****     return SCPI_RES_ERR;
 794              	 .loc 1 289 0
 795 002e FF23     	 movs r3,#255
 796              	.L46:
 797 0030 5BB2     	 sxtb r3,r3
 290:../Libraries/libscpi/src/ieee488.c **** }
 798              	 .loc 1 290 0 discriminator 1
 799 0032 1846     	 mov r0,r3
 800 0034 1037     	 adds r7,r7,#16
 801              	.LCFI34:
 802              	 .cfi_def_cfa_offset 8
 803 0036 BD46     	 mov sp,r7
 804              	.LCFI35:
 805              	 .cfi_def_cfa_register 13
 806              	 
 807 0038 80BD     	 pop {r7,pc}
 808              	 .cfi_endproc
 809              	.LFE6:
 811 003a 00BF     	 .section .text.SCPI_CoreEseQ,"ax",%progbits
 812              	 .align 2
 813              	 .global SCPI_CoreEseQ
 814              	 .thumb
 815              	 .thumb_func
 817              	SCPI_CoreEseQ:
 818              	.LFB7:
 291:../Libraries/libscpi/src/ieee488.c **** 
 292:../Libraries/libscpi/src/ieee488.c **** /**
 293:../Libraries/libscpi/src/ieee488.c ****  * *ESE?
 294:../Libraries/libscpi/src/ieee488.c ****  * @param context
 295:../Libraries/libscpi/src/ieee488.c ****  * @return 
 296:../Libraries/libscpi/src/ieee488.c ****  */
 297:../Libraries/libscpi/src/ieee488.c **** scpi_result_t SCPI_CoreEseQ(scpi_t * context) {
 819              	 .loc 1 297 0
 820              	 .cfi_startproc
 821              	 
 822              	 
 823 0000 80B5     	 push {r7,lr}
 824              	.LCFI36:
 825              	 .cfi_def_cfa_offset 8
 826              	 .cfi_offset 7,-8
 827              	 .cfi_offset 14,-4
 828 0002 82B0     	 sub sp,sp,#8
 829              	.LCFI37:
 830              	 .cfi_def_cfa_offset 16
 831 0004 00AF     	 add r7,sp,#0
 832              	.LCFI38:
 833              	 .cfi_def_cfa_register 7
 834 0006 7860     	 str r0,[r7,#4]
 298:../Libraries/libscpi/src/ieee488.c ****     SCPI_ResultInt32(context, SCPI_RegGet(context, SCPI_REG_ESE));
 835              	 .loc 1 298 0
 836 0008 7868     	 ldr r0,[r7,#4]
 837 000a 0321     	 movs r1,#3
 838 000c FFF7FEFF 	 bl SCPI_RegGet
 839 0010 0346     	 mov r3,r0
 840 0012 7868     	 ldr r0,[r7,#4]
 841 0014 1946     	 mov r1,r3
 842 0016 FFF7FEFF 	 bl SCPI_ResultInt32
 299:../Libraries/libscpi/src/ieee488.c ****     return SCPI_RES_OK;
 843              	 .loc 1 299 0
 844 001a 0123     	 movs r3,#1
 845 001c 5BB2     	 sxtb r3,r3
 300:../Libraries/libscpi/src/ieee488.c **** }
 846              	 .loc 1 300 0
 847 001e 1846     	 mov r0,r3
 848 0020 0837     	 adds r7,r7,#8
 849              	.LCFI39:
 850              	 .cfi_def_cfa_offset 8
 851 0022 BD46     	 mov sp,r7
 852              	.LCFI40:
 853              	 .cfi_def_cfa_register 13
 854              	 
 855 0024 80BD     	 pop {r7,pc}
 856              	 .cfi_endproc
 857              	.LFE7:
 859 0026 00BF     	 .section .text.SCPI_CoreEsrQ,"ax",%progbits
 860              	 .align 2
 861              	 .global SCPI_CoreEsrQ
 862              	 .thumb
 863              	 .thumb_func
 865              	SCPI_CoreEsrQ:
 866              	.LFB8:
 301:../Libraries/libscpi/src/ieee488.c **** 
 302:../Libraries/libscpi/src/ieee488.c **** /**
 303:../Libraries/libscpi/src/ieee488.c ****  * *ESR?
 304:../Libraries/libscpi/src/ieee488.c ****  * @param context
 305:../Libraries/libscpi/src/ieee488.c ****  * @return 
 306:../Libraries/libscpi/src/ieee488.c ****  */
 307:../Libraries/libscpi/src/ieee488.c **** scpi_result_t SCPI_CoreEsrQ(scpi_t * context) {
 867              	 .loc 1 307 0
 868              	 .cfi_startproc
 869              	 
 870              	 
 871 0000 80B5     	 push {r7,lr}
 872              	.LCFI41:
 873              	 .cfi_def_cfa_offset 8
 874              	 .cfi_offset 7,-8
 875              	 .cfi_offset 14,-4
 876 0002 82B0     	 sub sp,sp,#8
 877              	.LCFI42:
 878              	 .cfi_def_cfa_offset 16
 879 0004 00AF     	 add r7,sp,#0
 880              	.LCFI43:
 881              	 .cfi_def_cfa_register 7
 882 0006 7860     	 str r0,[r7,#4]
 308:../Libraries/libscpi/src/ieee488.c ****     SCPI_ResultInt32(context, SCPI_RegGet(context, SCPI_REG_ESR));
 883              	 .loc 1 308 0
 884 0008 7868     	 ldr r0,[r7,#4]
 885 000a 0221     	 movs r1,#2
 886 000c FFF7FEFF 	 bl SCPI_RegGet
 887 0010 0346     	 mov r3,r0
 888 0012 7868     	 ldr r0,[r7,#4]
 889 0014 1946     	 mov r1,r3
 890 0016 FFF7FEFF 	 bl SCPI_ResultInt32
 309:../Libraries/libscpi/src/ieee488.c ****     SCPI_RegSet(context, SCPI_REG_ESR, 0);
 891              	 .loc 1 309 0
 892 001a 7868     	 ldr r0,[r7,#4]
 893 001c 0221     	 movs r1,#2
 894 001e 0022     	 movs r2,#0
 895 0020 FFF7FEFF 	 bl SCPI_RegSet
 310:../Libraries/libscpi/src/ieee488.c ****     return SCPI_RES_OK;
 896              	 .loc 1 310 0
 897 0024 0123     	 movs r3,#1
 898 0026 5BB2     	 sxtb r3,r3
 311:../Libraries/libscpi/src/ieee488.c **** }
 899              	 .loc 1 311 0
 900 0028 1846     	 mov r0,r3
 901 002a 0837     	 adds r7,r7,#8
 902              	.LCFI44:
 903              	 .cfi_def_cfa_offset 8
 904 002c BD46     	 mov sp,r7
 905              	.LCFI45:
 906              	 .cfi_def_cfa_register 13
 907              	 
 908 002e 80BD     	 pop {r7,pc}
 909              	 .cfi_endproc
 910              	.LFE8:
 912              	 .section .rodata
 913              	 .align 2
 914              	.LC0:
 915 0000 3000     	 .ascii "0\000"
 916 0002 0000     	 .section .text.SCPI_CoreIdnQ,"ax",%progbits
 917              	 .align 2
 918              	 .global SCPI_CoreIdnQ
 919              	 .thumb
 920              	 .thumb_func
 922              	SCPI_CoreIdnQ:
 923              	.LFB9:
 312:../Libraries/libscpi/src/ieee488.c **** 
 313:../Libraries/libscpi/src/ieee488.c **** /**
 314:../Libraries/libscpi/src/ieee488.c ****  * *IDN?
 315:../Libraries/libscpi/src/ieee488.c ****  * 
 316:../Libraries/libscpi/src/ieee488.c ****  * field1: MANUFACTURE
 317:../Libraries/libscpi/src/ieee488.c ****  * field2: MODEL
 318:../Libraries/libscpi/src/ieee488.c ****  * field4: SUBSYSTEMS REVISIONS
 319:../Libraries/libscpi/src/ieee488.c ****  * 
 320:../Libraries/libscpi/src/ieee488.c ****  * example: MANUFACTURE,MODEL,0,01-02-01
 321:../Libraries/libscpi/src/ieee488.c ****  * @param context
 322:../Libraries/libscpi/src/ieee488.c ****  * @return 
 323:../Libraries/libscpi/src/ieee488.c ****  */
 324:../Libraries/libscpi/src/ieee488.c **** scpi_result_t SCPI_CoreIdnQ(scpi_t * context) {
 924              	 .loc 1 324 0
 925              	 .cfi_startproc
 926              	 
 927              	 
 928 0000 90B5     	 push {r4,r7,lr}
 929              	.LCFI46:
 930              	 .cfi_def_cfa_offset 12
 931              	 .cfi_offset 4,-12
 932              	 .cfi_offset 7,-8
 933              	 .cfi_offset 14,-4
 934 0002 85B0     	 sub sp,sp,#20
 935              	.LCFI47:
 936              	 .cfi_def_cfa_offset 32
 937 0004 00AF     	 add r7,sp,#0
 938              	.LCFI48:
 939              	 .cfi_def_cfa_register 7
 940 0006 7860     	 str r0,[r7,#4]
 325:../Libraries/libscpi/src/ieee488.c ****     int i;
 326:../Libraries/libscpi/src/ieee488.c ****     for (i = 0; i < 4; i++) {
 941              	 .loc 1 326 0
 942 0008 0023     	 movs r3,#0
 943 000a FB60     	 str r3,[r7,#12]
 944 000c 25E0     	 b .L52
 945              	.L55:
 327:../Libraries/libscpi/src/ieee488.c ****         if (context->idn[i]) {
 946              	 .loc 1 327 0
 947 000e 7A68     	 ldr r2,[r7,#4]
 948 0010 FB68     	 ldr r3,[r7,#12]
 949 0012 2033     	 adds r3,r3,#32
 950 0014 9B00     	 lsls r3,r3,#2
 951 0016 1344     	 add r3,r3,r2
 952 0018 5B68     	 ldr r3,[r3,#4]
 953 001a 002B     	 cmp r3,#0
 954 001c 15D0     	 beq .L53
 328:../Libraries/libscpi/src/ieee488.c ****             SCPI_ResultMnemonic(context, context->idn[i]);
 955              	 .loc 1 328 0
 956 001e 7A68     	 ldr r2,[r7,#4]
 957 0020 FB68     	 ldr r3,[r7,#12]
 958 0022 2033     	 adds r3,r3,#32
 959 0024 9B00     	 lsls r3,r3,#2
 960 0026 1344     	 add r3,r3,r2
 961 0028 5C68     	 ldr r4,[r3,#4]
 962 002a 7A68     	 ldr r2,[r7,#4]
 963 002c FB68     	 ldr r3,[r7,#12]
 964 002e 2033     	 adds r3,r3,#32
 965 0030 9B00     	 lsls r3,r3,#2
 966 0032 1344     	 add r3,r3,r2
 967 0034 5B68     	 ldr r3,[r3,#4]
 968 0036 1846     	 mov r0,r3
 969 0038 FFF7FEFF 	 bl strlen
 970 003c 0346     	 mov r3,r0
 971 003e 7868     	 ldr r0,[r7,#4]
 972 0040 2146     	 mov r1,r4
 973 0042 1A46     	 mov r2,r3
 974 0044 FFF7FEFF 	 bl SCPI_ResultCharacters
 975 0048 04E0     	 b .L54
 976              	.L53:
 329:../Libraries/libscpi/src/ieee488.c ****         } else {
 330:../Libraries/libscpi/src/ieee488.c ****             SCPI_ResultMnemonic(context, "0");
 977              	 .loc 1 330 0
 978 004a 7868     	 ldr r0,[r7,#4]
 979 004c 0749     	 ldr r1,.L57
 980 004e 0122     	 movs r2,#1
 981 0050 FFF7FEFF 	 bl SCPI_ResultCharacters
 982              	.L54:
 326:../Libraries/libscpi/src/ieee488.c ****         if (context->idn[i]) {
 983              	 .loc 1 326 0 discriminator 2
 984 0054 FB68     	 ldr r3,[r7,#12]
 985 0056 0133     	 adds r3,r3,#1
 986 0058 FB60     	 str r3,[r7,#12]
 987              	.L52:
 326:../Libraries/libscpi/src/ieee488.c ****         if (context->idn[i]) {
 988              	 .loc 1 326 0 is_stmt 0 discriminator 1
 989 005a FB68     	 ldr r3,[r7,#12]
 990 005c 032B     	 cmp r3,#3
 991 005e D6DD     	 ble .L55
 331:../Libraries/libscpi/src/ieee488.c ****         }
 332:../Libraries/libscpi/src/ieee488.c ****     }
 333:../Libraries/libscpi/src/ieee488.c ****     return SCPI_RES_OK;
 992              	 .loc 1 333 0 is_stmt 1
 993 0060 0123     	 movs r3,#1
 994 0062 5BB2     	 sxtb r3,r3
 334:../Libraries/libscpi/src/ieee488.c **** }
 995              	 .loc 1 334 0
 996 0064 1846     	 mov r0,r3
 997 0066 1437     	 adds r7,r7,#20
 998              	.LCFI49:
 999              	 .cfi_def_cfa_offset 12
 1000 0068 BD46     	 mov sp,r7
 1001              	.LCFI50:
 1002              	 .cfi_def_cfa_register 13
 1003              	 
 1004 006a 90BD     	 pop {r4,r7,pc}
 1005              	.L58:
 1006              	 .align 2
 1007              	.L57:
 1008 006c 00000000 	 .word .LC0
 1009              	 .cfi_endproc
 1010              	.LFE9:
 1012              	 .section .text.SCPI_CoreOpc,"ax",%progbits
 1013              	 .align 2
 1014              	 .global SCPI_CoreOpc
 1015              	 .thumb
 1016              	 .thumb_func
 1018              	SCPI_CoreOpc:
 1019              	.LFB10:
 335:../Libraries/libscpi/src/ieee488.c **** 
 336:../Libraries/libscpi/src/ieee488.c **** /**
 337:../Libraries/libscpi/src/ieee488.c ****  * *OPC
 338:../Libraries/libscpi/src/ieee488.c ****  * @param context
 339:../Libraries/libscpi/src/ieee488.c ****  * @return 
 340:../Libraries/libscpi/src/ieee488.c ****  */
 341:../Libraries/libscpi/src/ieee488.c **** scpi_result_t SCPI_CoreOpc(scpi_t * context) {
 1020              	 .loc 1 341 0
 1021              	 .cfi_startproc
 1022              	 
 1023              	 
 1024 0000 80B5     	 push {r7,lr}
 1025              	.LCFI51:
 1026              	 .cfi_def_cfa_offset 8
 1027              	 .cfi_offset 7,-8
 1028              	 .cfi_offset 14,-4
 1029 0002 82B0     	 sub sp,sp,#8
 1030              	.LCFI52:
 1031              	 .cfi_def_cfa_offset 16
 1032 0004 00AF     	 add r7,sp,#0
 1033              	.LCFI53:
 1034              	 .cfi_def_cfa_register 7
 1035 0006 7860     	 str r0,[r7,#4]
 342:../Libraries/libscpi/src/ieee488.c ****     SCPI_RegSetBits(context, SCPI_REG_ESR, ESR_OPC);
 1036              	 .loc 1 342 0
 1037 0008 7868     	 ldr r0,[r7,#4]
 1038 000a 0221     	 movs r1,#2
 1039 000c 0122     	 movs r2,#1
 1040 000e FFF7FEFF 	 bl SCPI_RegSetBits
 343:../Libraries/libscpi/src/ieee488.c ****     return SCPI_RES_OK;
 1041              	 .loc 1 343 0
 1042 0012 0123     	 movs r3,#1
 1043 0014 5BB2     	 sxtb r3,r3
 344:../Libraries/libscpi/src/ieee488.c **** }
 1044              	 .loc 1 344 0
 1045 0016 1846     	 mov r0,r3
 1046 0018 0837     	 adds r7,r7,#8
 1047              	.LCFI54:
 1048              	 .cfi_def_cfa_offset 8
 1049 001a BD46     	 mov sp,r7
 1050              	.LCFI55:
 1051              	 .cfi_def_cfa_register 13
 1052              	 
 1053 001c 80BD     	 pop {r7,pc}
 1054              	 .cfi_endproc
 1055              	.LFE10:
 1057 001e 00BF     	 .section .text.SCPI_CoreOpcQ,"ax",%progbits
 1058              	 .align 2
 1059              	 .global SCPI_CoreOpcQ
 1060              	 .thumb
 1061              	 .thumb_func
 1063              	SCPI_CoreOpcQ:
 1064              	.LFB11:
 345:../Libraries/libscpi/src/ieee488.c **** 
 346:../Libraries/libscpi/src/ieee488.c **** /**
 347:../Libraries/libscpi/src/ieee488.c ****  * *OPC?
 348:../Libraries/libscpi/src/ieee488.c ****  * @param context
 349:../Libraries/libscpi/src/ieee488.c ****  * @return 
 350:../Libraries/libscpi/src/ieee488.c ****  */
 351:../Libraries/libscpi/src/ieee488.c **** scpi_result_t SCPI_CoreOpcQ(scpi_t * context) {
 1065              	 .loc 1 351 0
 1066              	 .cfi_startproc
 1067              	 
 1068              	 
 1069 0000 80B5     	 push {r7,lr}
 1070              	.LCFI56:
 1071              	 .cfi_def_cfa_offset 8
 1072              	 .cfi_offset 7,-8
 1073              	 .cfi_offset 14,-4
 1074 0002 82B0     	 sub sp,sp,#8
 1075              	.LCFI57:
 1076              	 .cfi_def_cfa_offset 16
 1077 0004 00AF     	 add r7,sp,#0
 1078              	.LCFI58:
 1079              	 .cfi_def_cfa_register 7
 1080 0006 7860     	 str r0,[r7,#4]
 352:../Libraries/libscpi/src/ieee488.c ****     /* Operation is always completed */
 353:../Libraries/libscpi/src/ieee488.c ****     SCPI_ResultInt32(context, 1);
 1081              	 .loc 1 353 0
 1082 0008 7868     	 ldr r0,[r7,#4]
 1083 000a 0121     	 movs r1,#1
 1084 000c FFF7FEFF 	 bl SCPI_ResultInt32
 354:../Libraries/libscpi/src/ieee488.c ****     return SCPI_RES_OK;
 1085              	 .loc 1 354 0
 1086 0010 0123     	 movs r3,#1
 1087 0012 5BB2     	 sxtb r3,r3
 355:../Libraries/libscpi/src/ieee488.c **** }
 1088              	 .loc 1 355 0
 1089 0014 1846     	 mov r0,r3
 1090 0016 0837     	 adds r7,r7,#8
 1091              	.LCFI59:
 1092              	 .cfi_def_cfa_offset 8
 1093 0018 BD46     	 mov sp,r7
 1094              	.LCFI60:
 1095              	 .cfi_def_cfa_register 13
 1096              	 
 1097 001a 80BD     	 pop {r7,pc}
 1098              	 .cfi_endproc
 1099              	.LFE11:
 1101              	 .section .text.SCPI_CoreRst,"ax",%progbits
 1102              	 .align 2
 1103              	 .global SCPI_CoreRst
 1104              	 .thumb
 1105              	 .thumb_func
 1107              	SCPI_CoreRst:
 1108              	.LFB12:
 356:../Libraries/libscpi/src/ieee488.c **** 
 357:../Libraries/libscpi/src/ieee488.c **** /**
 358:../Libraries/libscpi/src/ieee488.c ****  * *RST
 359:../Libraries/libscpi/src/ieee488.c ****  * @param context
 360:../Libraries/libscpi/src/ieee488.c ****  * @return 
 361:../Libraries/libscpi/src/ieee488.c ****  */
 362:../Libraries/libscpi/src/ieee488.c **** scpi_result_t SCPI_CoreRst(scpi_t * context) {
 1109              	 .loc 1 362 0
 1110              	 .cfi_startproc
 1111              	 
 1112              	 
 1113 0000 80B5     	 push {r7,lr}
 1114              	.LCFI61:
 1115              	 .cfi_def_cfa_offset 8
 1116              	 .cfi_offset 7,-8
 1117              	 .cfi_offset 14,-4
 1118 0002 82B0     	 sub sp,sp,#8
 1119              	.LCFI62:
 1120              	 .cfi_def_cfa_offset 16
 1121 0004 00AF     	 add r7,sp,#0
 1122              	.LCFI63:
 1123              	 .cfi_def_cfa_register 7
 1124 0006 7860     	 str r0,[r7,#4]
 363:../Libraries/libscpi/src/ieee488.c ****     if (context && context->interface && context->interface->reset) {
 1125              	 .loc 1 363 0
 1126 0008 7B68     	 ldr r3,[r7,#4]
 1127 000a 002B     	 cmp r3,#0
 1128 000c 0FD0     	 beq .L64
 1129              	 .loc 1 363 0 is_stmt 0 discriminator 1
 1130 000e 7B68     	 ldr r3,[r7,#4]
 1131 0010 DB6A     	 ldr r3,[r3,#44]
 1132 0012 002B     	 cmp r3,#0
 1133 0014 0BD0     	 beq .L64
 1134              	 .loc 1 363 0 discriminator 2
 1135 0016 7B68     	 ldr r3,[r7,#4]
 1136 0018 DB6A     	 ldr r3,[r3,#44]
 1137 001a 1B69     	 ldr r3,[r3,#16]
 1138 001c 002B     	 cmp r3,#0
 1139 001e 06D0     	 beq .L64
 364:../Libraries/libscpi/src/ieee488.c ****         return context->interface->reset(context);
 1140              	 .loc 1 364 0 is_stmt 1
 1141 0020 7B68     	 ldr r3,[r7,#4]
 1142 0022 DB6A     	 ldr r3,[r3,#44]
 1143 0024 1B69     	 ldr r3,[r3,#16]
 1144 0026 7868     	 ldr r0,[r7,#4]
 1145 0028 9847     	 blx r3
 1146 002a 0346     	 mov r3,r0
 1147 002c 00E0     	 b .L65
 1148              	.L64:
 365:../Libraries/libscpi/src/ieee488.c ****     }
 366:../Libraries/libscpi/src/ieee488.c ****     return SCPI_RES_OK;
 1149              	 .loc 1 366 0
 1150 002e 0123     	 movs r3,#1
 1151              	.L65:
 1152 0030 5BB2     	 sxtb r3,r3
 367:../Libraries/libscpi/src/ieee488.c **** }
 1153              	 .loc 1 367 0
 1154 0032 1846     	 mov r0,r3
 1155 0034 0837     	 adds r7,r7,#8
 1156              	.LCFI64:
 1157              	 .cfi_def_cfa_offset 8
 1158 0036 BD46     	 mov sp,r7
 1159              	.LCFI65:
 1160              	 .cfi_def_cfa_register 13
 1161              	 
 1162 0038 80BD     	 pop {r7,pc}
 1163              	 .cfi_endproc
 1164              	.LFE12:
 1166 003a 00BF     	 .section .text.SCPI_CoreSre,"ax",%progbits
 1167              	 .align 2
 1168              	 .global SCPI_CoreSre
 1169              	 .thumb
 1170              	 .thumb_func
 1172              	SCPI_CoreSre:
 1173              	.LFB13:
 368:../Libraries/libscpi/src/ieee488.c **** 
 369:../Libraries/libscpi/src/ieee488.c **** /**
 370:../Libraries/libscpi/src/ieee488.c ****  * *SRE
 371:../Libraries/libscpi/src/ieee488.c ****  * @param context
 372:../Libraries/libscpi/src/ieee488.c ****  * @return 
 373:../Libraries/libscpi/src/ieee488.c ****  */
 374:../Libraries/libscpi/src/ieee488.c **** scpi_result_t SCPI_CoreSre(scpi_t * context) {
 1174              	 .loc 1 374 0
 1175              	 .cfi_startproc
 1176              	 
 1177              	 
 1178 0000 80B5     	 push {r7,lr}
 1179              	.LCFI66:
 1180              	 .cfi_def_cfa_offset 8
 1181              	 .cfi_offset 7,-8
 1182              	 .cfi_offset 14,-4
 1183 0002 84B0     	 sub sp,sp,#16
 1184              	.LCFI67:
 1185              	 .cfi_def_cfa_offset 24
 1186 0004 00AF     	 add r7,sp,#0
 1187              	.LCFI68:
 1188              	 .cfi_def_cfa_register 7
 1189 0006 7860     	 str r0,[r7,#4]
 375:../Libraries/libscpi/src/ieee488.c ****     int32_t new_SRE;
 376:../Libraries/libscpi/src/ieee488.c ****     if (SCPI_ParamInt32(context, &new_SRE, TRUE)) {
 1190              	 .loc 1 376 0
 1191 0008 07F10C03 	 add r3,r7,#12
 1192 000c 7868     	 ldr r0,[r7,#4]
 1193 000e 1946     	 mov r1,r3
 1194 0010 0122     	 movs r2,#1
 1195 0012 FFF7FEFF 	 bl SCPI_ParamInt32
 1196 0016 0346     	 mov r3,r0
 1197 0018 002B     	 cmp r3,#0
 1198 001a 08D0     	 beq .L67
 377:../Libraries/libscpi/src/ieee488.c ****         SCPI_RegSet(context, SCPI_REG_SRE, (scpi_reg_val_t) new_SRE);
 1199              	 .loc 1 377 0
 1200 001c FB68     	 ldr r3,[r7,#12]
 1201 001e 9BB2     	 uxth r3,r3
 1202 0020 7868     	 ldr r0,[r7,#4]
 1203 0022 0121     	 movs r1,#1
 1204 0024 1A46     	 mov r2,r3
 1205 0026 FFF7FEFF 	 bl SCPI_RegSet
 378:../Libraries/libscpi/src/ieee488.c ****         return SCPI_RES_OK;
 1206              	 .loc 1 378 0
 1207 002a 0123     	 movs r3,#1
 1208 002c 00E0     	 b .L69
 1209              	.L67:
 379:../Libraries/libscpi/src/ieee488.c ****     }
 380:../Libraries/libscpi/src/ieee488.c ****     return SCPI_RES_ERR;
 1210              	 .loc 1 380 0
 1211 002e FF23     	 movs r3,#255
 1212              	.L69:
 1213 0030 5BB2     	 sxtb r3,r3
 381:../Libraries/libscpi/src/ieee488.c **** }
 1214              	 .loc 1 381 0 discriminator 1
 1215 0032 1846     	 mov r0,r3
 1216 0034 1037     	 adds r7,r7,#16
 1217              	.LCFI69:
 1218              	 .cfi_def_cfa_offset 8
 1219 0036 BD46     	 mov sp,r7
 1220              	.LCFI70:
 1221              	 .cfi_def_cfa_register 13
 1222              	 
 1223 0038 80BD     	 pop {r7,pc}
 1224              	 .cfi_endproc
 1225              	.LFE13:
 1227 003a 00BF     	 .section .text.SCPI_CoreSreQ,"ax",%progbits
 1228              	 .align 2
 1229              	 .global SCPI_CoreSreQ
 1230              	 .thumb
 1231              	 .thumb_func
 1233              	SCPI_CoreSreQ:
 1234              	.LFB14:
 382:../Libraries/libscpi/src/ieee488.c **** 
 383:../Libraries/libscpi/src/ieee488.c **** /**
 384:../Libraries/libscpi/src/ieee488.c ****  * *SRE?
 385:../Libraries/libscpi/src/ieee488.c ****  * @param context
 386:../Libraries/libscpi/src/ieee488.c ****  * @return 
 387:../Libraries/libscpi/src/ieee488.c ****  */
 388:../Libraries/libscpi/src/ieee488.c **** scpi_result_t SCPI_CoreSreQ(scpi_t * context) {
 1235              	 .loc 1 388 0
 1236              	 .cfi_startproc
 1237              	 
 1238              	 
 1239 0000 80B5     	 push {r7,lr}
 1240              	.LCFI71:
 1241              	 .cfi_def_cfa_offset 8
 1242              	 .cfi_offset 7,-8
 1243              	 .cfi_offset 14,-4
 1244 0002 82B0     	 sub sp,sp,#8
 1245              	.LCFI72:
 1246              	 .cfi_def_cfa_offset 16
 1247 0004 00AF     	 add r7,sp,#0
 1248              	.LCFI73:
 1249              	 .cfi_def_cfa_register 7
 1250 0006 7860     	 str r0,[r7,#4]
 389:../Libraries/libscpi/src/ieee488.c ****     SCPI_ResultInt32(context, SCPI_RegGet(context, SCPI_REG_SRE));
 1251              	 .loc 1 389 0
 1252 0008 7868     	 ldr r0,[r7,#4]
 1253 000a 0121     	 movs r1,#1
 1254 000c FFF7FEFF 	 bl SCPI_RegGet
 1255 0010 0346     	 mov r3,r0
 1256 0012 7868     	 ldr r0,[r7,#4]
 1257 0014 1946     	 mov r1,r3
 1258 0016 FFF7FEFF 	 bl SCPI_ResultInt32
 390:../Libraries/libscpi/src/ieee488.c ****     return SCPI_RES_OK;
 1259              	 .loc 1 390 0
 1260 001a 0123     	 movs r3,#1
 1261 001c 5BB2     	 sxtb r3,r3
 391:../Libraries/libscpi/src/ieee488.c **** }
 1262              	 .loc 1 391 0
 1263 001e 1846     	 mov r0,r3
 1264 0020 0837     	 adds r7,r7,#8
 1265              	.LCFI74:
 1266              	 .cfi_def_cfa_offset 8
 1267 0022 BD46     	 mov sp,r7
 1268              	.LCFI75:
 1269              	 .cfi_def_cfa_register 13
 1270              	 
 1271 0024 80BD     	 pop {r7,pc}
 1272              	 .cfi_endproc
 1273              	.LFE14:
 1275 0026 00BF     	 .section .text.SCPI_CoreStbQ,"ax",%progbits
 1276              	 .align 2
 1277              	 .global SCPI_CoreStbQ
 1278              	 .thumb
 1279              	 .thumb_func
 1281              	SCPI_CoreStbQ:
 1282              	.LFB15:
 392:../Libraries/libscpi/src/ieee488.c **** 
 393:../Libraries/libscpi/src/ieee488.c **** /**
 394:../Libraries/libscpi/src/ieee488.c ****  * *STB?
 395:../Libraries/libscpi/src/ieee488.c ****  * @param context
 396:../Libraries/libscpi/src/ieee488.c ****  * @return 
 397:../Libraries/libscpi/src/ieee488.c ****  */
 398:../Libraries/libscpi/src/ieee488.c **** scpi_result_t SCPI_CoreStbQ(scpi_t * context) {
 1283              	 .loc 1 398 0
 1284              	 .cfi_startproc
 1285              	 
 1286              	 
 1287 0000 80B5     	 push {r7,lr}
 1288              	.LCFI76:
 1289              	 .cfi_def_cfa_offset 8
 1290              	 .cfi_offset 7,-8
 1291              	 .cfi_offset 14,-4
 1292 0002 82B0     	 sub sp,sp,#8
 1293              	.LCFI77:
 1294              	 .cfi_def_cfa_offset 16
 1295 0004 00AF     	 add r7,sp,#0
 1296              	.LCFI78:
 1297              	 .cfi_def_cfa_register 7
 1298 0006 7860     	 str r0,[r7,#4]
 399:../Libraries/libscpi/src/ieee488.c ****     SCPI_ResultInt32(context, SCPI_RegGet(context, SCPI_REG_STB));
 1299              	 .loc 1 399 0
 1300 0008 7868     	 ldr r0,[r7,#4]
 1301 000a 0021     	 movs r1,#0
 1302 000c FFF7FEFF 	 bl SCPI_RegGet
 1303 0010 0346     	 mov r3,r0
 1304 0012 7868     	 ldr r0,[r7,#4]
 1305 0014 1946     	 mov r1,r3
 1306 0016 FFF7FEFF 	 bl SCPI_ResultInt32
 400:../Libraries/libscpi/src/ieee488.c ****     return SCPI_RES_OK;
 1307              	 .loc 1 400 0
 1308 001a 0123     	 movs r3,#1
 1309 001c 5BB2     	 sxtb r3,r3
 401:../Libraries/libscpi/src/ieee488.c **** }
 1310              	 .loc 1 401 0
 1311 001e 1846     	 mov r0,r3
 1312 0020 0837     	 adds r7,r7,#8
 1313              	.LCFI79:
 1314              	 .cfi_def_cfa_offset 8
 1315 0022 BD46     	 mov sp,r7
 1316              	.LCFI80:
 1317              	 .cfi_def_cfa_register 13
 1318              	 
 1319 0024 80BD     	 pop {r7,pc}
 1320              	 .cfi_endproc
 1321              	.LFE15:
 1323 0026 00BF     	 .section .text.SCPI_CoreTstQ,"ax",%progbits
 1324              	 .align 2
 1325              	 .global SCPI_CoreTstQ
 1326              	 .thumb
 1327              	 .thumb_func
 1329              	SCPI_CoreTstQ:
 1330              	.LFB16:
 402:../Libraries/libscpi/src/ieee488.c **** 
 403:../Libraries/libscpi/src/ieee488.c **** /**
 404:../Libraries/libscpi/src/ieee488.c ****  * *TST?
 405:../Libraries/libscpi/src/ieee488.c ****  * @param context
 406:../Libraries/libscpi/src/ieee488.c ****  * @return 
 407:../Libraries/libscpi/src/ieee488.c ****  */
 408:../Libraries/libscpi/src/ieee488.c **** scpi_result_t SCPI_CoreTstQ(scpi_t * context) {
 1331              	 .loc 1 408 0
 1332              	 .cfi_startproc
 1333              	 
 1334              	 
 1335 0000 80B5     	 push {r7,lr}
 1336              	.LCFI81:
 1337              	 .cfi_def_cfa_offset 8
 1338              	 .cfi_offset 7,-8
 1339              	 .cfi_offset 14,-4
 1340 0002 82B0     	 sub sp,sp,#8
 1341              	.LCFI82:
 1342              	 .cfi_def_cfa_offset 16
 1343 0004 00AF     	 add r7,sp,#0
 1344              	.LCFI83:
 1345              	 .cfi_def_cfa_register 7
 1346 0006 7860     	 str r0,[r7,#4]
 409:../Libraries/libscpi/src/ieee488.c ****     (void) context;
 410:../Libraries/libscpi/src/ieee488.c ****     SCPI_ResultInt32(context, 0);
 1347              	 .loc 1 410 0
 1348 0008 7868     	 ldr r0,[r7,#4]
 1349 000a 0021     	 movs r1,#0
 1350 000c FFF7FEFF 	 bl SCPI_ResultInt32
 411:../Libraries/libscpi/src/ieee488.c ****     return SCPI_RES_OK;
 1351              	 .loc 1 411 0
 1352 0010 0123     	 movs r3,#1
 1353 0012 5BB2     	 sxtb r3,r3
 412:../Libraries/libscpi/src/ieee488.c **** }
 1354              	 .loc 1 412 0
 1355 0014 1846     	 mov r0,r3
 1356 0016 0837     	 adds r7,r7,#8
 1357              	.LCFI84:
 1358              	 .cfi_def_cfa_offset 8
 1359 0018 BD46     	 mov sp,r7
 1360              	.LCFI85:
 1361              	 .cfi_def_cfa_register 13
 1362              	 
 1363 001a 80BD     	 pop {r7,pc}
 1364              	 .cfi_endproc
 1365              	.LFE16:
 1367              	 .section .text.SCPI_CoreWai,"ax",%progbits
 1368              	 .align 2
 1369              	 .global SCPI_CoreWai
 1370              	 .thumb
 1371              	 .thumb_func
 1373              	SCPI_CoreWai:
 1374              	.LFB17:
 413:../Libraries/libscpi/src/ieee488.c **** 
 414:../Libraries/libscpi/src/ieee488.c **** /**
 415:../Libraries/libscpi/src/ieee488.c ****  * *WAI
 416:../Libraries/libscpi/src/ieee488.c ****  * @param context
 417:../Libraries/libscpi/src/ieee488.c ****  * @return 
 418:../Libraries/libscpi/src/ieee488.c ****  */
 419:../Libraries/libscpi/src/ieee488.c **** scpi_result_t SCPI_CoreWai(scpi_t * context) {
 1375              	 .loc 1 419 0
 1376              	 .cfi_startproc
 1377              	 
 1378              	 
 1379              	 
 1380 0000 80B4     	 push {r7}
 1381              	.LCFI86:
 1382              	 .cfi_def_cfa_offset 4
 1383              	 .cfi_offset 7,-4
 1384 0002 83B0     	 sub sp,sp,#12
 1385              	.LCFI87:
 1386              	 .cfi_def_cfa_offset 16
 1387 0004 00AF     	 add r7,sp,#0
 1388              	.LCFI88:
 1389              	 .cfi_def_cfa_register 7
 1390 0006 7860     	 str r0,[r7,#4]
 420:../Libraries/libscpi/src/ieee488.c ****     (void) context;
 421:../Libraries/libscpi/src/ieee488.c ****     /* NOP */
 422:../Libraries/libscpi/src/ieee488.c ****     return SCPI_RES_OK;
 1391              	 .loc 1 422 0
 1392 0008 0123     	 movs r3,#1
 1393 000a 5BB2     	 sxtb r3,r3
 423:../Libraries/libscpi/src/ieee488.c **** }
 1394              	 .loc 1 423 0
 1395 000c 1846     	 mov r0,r3
 1396 000e 0C37     	 adds r7,r7,#12
 1397              	.LCFI89:
 1398              	 .cfi_def_cfa_offset 4
 1399 0010 BD46     	 mov sp,r7
 1400              	.LCFI90:
 1401              	 .cfi_def_cfa_register 13
 1402              	 
 1403 0012 5DF8047B 	 ldr r7,[sp],#4
 1404              	.LCFI91:
 1405              	 .cfi_restore 7
 1406              	 .cfi_def_cfa_offset 0
 1407 0016 7047     	 bx lr
 1408              	 .cfi_endproc
 1409              	.LFE17:
 1411              	 .text
 1412              	.Letext0:
 1413              	 .file 2 "c:\\infineon\\tools\\dave ide\\4.5.0.202105191637\\eclipse\\arm-gcc-49\\lib\\gcc\\arm-none-eabi\\4.9.3\\include\\stddef.h"
 1414              	 .file 3 "c:\\infineon\\tools\\dave ide\\4.5.0.202105191637\\eclipse\\arm-gcc-49\\arm-none-eabi\\include\\machine\\_default_types.h"
 1415              	 .file 4 "c:\\infineon\\tools\\dave ide\\4.5.0.202105191637\\eclipse\\arm-gcc-49\\arm-none-eabi\\include\\stdint.h"
 1416              	 .file 5 "C:/Infineon/Tools/DAVE IDE/4.5.0.202105191637/eclipse/workspace/ScpiRelax/Libraries/libscpi/inc/scpi/types.h"