   1              	 .syntax unified
   2              	 .cpu cortex-m4
   3              	 .eabi_attribute 27,3
   4              	 .fpu fpv4-sp-d16
   5              	 .eabi_attribute 20,1
   6              	 .eabi_attribute 21,1
   7              	 .eabi_attribute 23,3
   8              	 .eabi_attribute 24,1
   9              	 .eabi_attribute 25,1
  10              	 .eabi_attribute 26,1
  11              	 .eabi_attribute 30,6
  12              	 .eabi_attribute 34,1
  13              	 .eabi_attribute 18,4
  14              	 .thumb
  15              	 .file "lexer.c"
  16              	 .text
  17              	.Ltext0:
  18              	 .cfi_sections .debug_frame
  19              	 .section .text.isws,"ax",%progbits
  20              	 .align 2
  21              	 .thumb
  22              	 .thumb_func
  24              	isws:
  25              	.LFB0:
  26              	 .file 1 "../Libraries/libscpi/src/lexer.c"
   1:../Libraries/libscpi/src/lexer.c **** /*-
   2:../Libraries/libscpi/src/lexer.c ****  * BSD 2-Clause License
   3:../Libraries/libscpi/src/lexer.c ****  *
   4:../Libraries/libscpi/src/lexer.c ****  * Copyright (c) 2012-2018, Jan Breuer
   5:../Libraries/libscpi/src/lexer.c ****  * All rights reserved.
   6:../Libraries/libscpi/src/lexer.c ****  *
   7:../Libraries/libscpi/src/lexer.c ****  * Redistribution and use in source and binary forms, with or without
   8:../Libraries/libscpi/src/lexer.c ****  * modification, are permitted provided that the following conditions are met:
   9:../Libraries/libscpi/src/lexer.c ****  *
  10:../Libraries/libscpi/src/lexer.c ****  * * Redistributions of source code must retain the above copyright notice, this
  11:../Libraries/libscpi/src/lexer.c ****  *   list of conditions and the following disclaimer.
  12:../Libraries/libscpi/src/lexer.c ****  *
  13:../Libraries/libscpi/src/lexer.c ****  * * Redistributions in binary form must reproduce the above copyright notice,
  14:../Libraries/libscpi/src/lexer.c ****  *   this list of conditions and the following disclaimer in the documentation
  15:../Libraries/libscpi/src/lexer.c ****  *   and/or other materials provided with the distribution.
  16:../Libraries/libscpi/src/lexer.c ****  *
  17:../Libraries/libscpi/src/lexer.c ****  * THIS SOFTWARE IS PROVIDED BY THE COPYRIGHT HOLDERS AND CONTRIBUTORS "AS IS"
  18:../Libraries/libscpi/src/lexer.c ****  * AND ANY EXPRESS OR IMPLIED WARRANTIES, INCLUDING, BUT NOT LIMITED TO, THE
  19:../Libraries/libscpi/src/lexer.c ****  * IMPLIED WARRANTIES OF MERCHANTABILITY AND FITNESS FOR A PARTICULAR PURPOSE ARE
  20:../Libraries/libscpi/src/lexer.c ****  * DISCLAIMED. IN NO EVENT SHALL THE COPYRIGHT HOLDER OR CONTRIBUTORS BE LIABLE
  21:../Libraries/libscpi/src/lexer.c ****  * FOR ANY DIRECT, INDIRECT, INCIDENTAL, SPECIAL, EXEMPLARY, OR CONSEQUENTIAL
  22:../Libraries/libscpi/src/lexer.c ****  * DAMAGES (INCLUDING, BUT NOT LIMITED TO, PROCUREMENT OF SUBSTITUTE GOODS OR
  23:../Libraries/libscpi/src/lexer.c ****  * SERVICES; LOSS OF USE, DATA, OR PROFITS; OR BUSINESS INTERRUPTION) HOWEVER
  24:../Libraries/libscpi/src/lexer.c ****  * CAUSED AND ON ANY THEORY OF LIABILITY, WHETHER IN CONTRACT, STRICT LIABILITY,
  25:../Libraries/libscpi/src/lexer.c ****  * OR TORT (INCLUDING NEGLIGENCE OR OTHERWISE) ARISING IN ANY WAY OUT OF THE USE
  26:../Libraries/libscpi/src/lexer.c ****  * OF THIS SOFTWARE, EVEN IF ADVISED OF THE POSSIBILITY OF SUCH DAMAGE.
  27:../Libraries/libscpi/src/lexer.c ****  */
  28:../Libraries/libscpi/src/lexer.c **** 
  29:../Libraries/libscpi/src/lexer.c **** /**
  30:../Libraries/libscpi/src/lexer.c ****  * @file   lexer.c
  31:../Libraries/libscpi/src/lexer.c ****  * @date   Wed Mar 20 19:35:19 UTC 2013
  32:../Libraries/libscpi/src/lexer.c ****  * 
  33:../Libraries/libscpi/src/lexer.c ****  * @brief  SCPI Lexer
  34:../Libraries/libscpi/src/lexer.c ****  * 
  35:../Libraries/libscpi/src/lexer.c ****  * 
  36:../Libraries/libscpi/src/lexer.c ****  */
  37:../Libraries/libscpi/src/lexer.c **** 
  38:../Libraries/libscpi/src/lexer.c **** #include <ctype.h>
  39:../Libraries/libscpi/src/lexer.c **** #include <stdio.h>
  40:../Libraries/libscpi/src/lexer.c **** #include <string.h>
  41:../Libraries/libscpi/src/lexer.c **** 
  42:../Libraries/libscpi/src/lexer.c **** #include "lexer_private.h"
  43:../Libraries/libscpi/src/lexer.c **** #include "scpi/error.h"
  44:../Libraries/libscpi/src/lexer.c **** 
  45:../Libraries/libscpi/src/lexer.c **** /**
  46:../Libraries/libscpi/src/lexer.c ****  * Is white space
  47:../Libraries/libscpi/src/lexer.c ****  * @param c
  48:../Libraries/libscpi/src/lexer.c ****  * @return 
  49:../Libraries/libscpi/src/lexer.c ****  */
  50:../Libraries/libscpi/src/lexer.c **** static int isws(int c) {
  27              	 .loc 1 50 0
  28              	 .cfi_startproc
  29              	 
  30              	 
  31              	 
  32 0000 80B4     	 push {r7}
  33              	.LCFI0:
  34              	 .cfi_def_cfa_offset 4
  35              	 .cfi_offset 7,-4
  36 0002 83B0     	 sub sp,sp,#12
  37              	.LCFI1:
  38              	 .cfi_def_cfa_offset 16
  39 0004 00AF     	 add r7,sp,#0
  40              	.LCFI2:
  41              	 .cfi_def_cfa_register 7
  42 0006 7860     	 str r0,[r7,#4]
  51:../Libraries/libscpi/src/lexer.c ****     if ((c == ' ') || (c == '\t')) {
  43              	 .loc 1 51 0
  44 0008 7B68     	 ldr r3,[r7,#4]
  45 000a 202B     	 cmp r3,#32
  46 000c 02D0     	 beq .L2
  47              	 .loc 1 51 0 is_stmt 0 discriminator 1
  48 000e 7B68     	 ldr r3,[r7,#4]
  49 0010 092B     	 cmp r3,#9
  50 0012 01D1     	 bne .L3
  51              	.L2:
  52:../Libraries/libscpi/src/lexer.c ****         return 1;
  52              	 .loc 1 52 0 is_stmt 1
  53 0014 0123     	 movs r3,#1
  54 0016 00E0     	 b .L4
  55              	.L3:
  53:../Libraries/libscpi/src/lexer.c ****     }
  54:../Libraries/libscpi/src/lexer.c ****     return 0;
  56              	 .loc 1 54 0
  57 0018 0023     	 movs r3,#0
  58              	.L4:
  55:../Libraries/libscpi/src/lexer.c **** }
  59              	 .loc 1 55 0
  60 001a 1846     	 mov r0,r3
  61 001c 0C37     	 adds r7,r7,#12
  62              	.LCFI3:
  63              	 .cfi_def_cfa_offset 4
  64 001e BD46     	 mov sp,r7
  65              	.LCFI4:
  66              	 .cfi_def_cfa_register 13
  67              	 
  68 0020 5DF8047B 	 ldr r7,[sp],#4
  69              	.LCFI5:
  70              	 .cfi_restore 7
  71              	 .cfi_def_cfa_offset 0
  72 0024 7047     	 bx lr
  73              	 .cfi_endproc
  74              	.LFE0:
  76 0026 00BF     	 .section .text.isbdigit,"ax",%progbits
  77              	 .align 2
  78              	 .thumb
  79              	 .thumb_func
  81              	isbdigit:
  82              	.LFB1:
  56:../Libraries/libscpi/src/lexer.c **** 
  57:../Libraries/libscpi/src/lexer.c **** /**
  58:../Libraries/libscpi/src/lexer.c ****  * Is binary digit
  59:../Libraries/libscpi/src/lexer.c ****  * @param c
  60:../Libraries/libscpi/src/lexer.c ****  * @return 
  61:../Libraries/libscpi/src/lexer.c ****  */
  62:../Libraries/libscpi/src/lexer.c **** static int isbdigit(int c) {
  83              	 .loc 1 62 0
  84              	 .cfi_startproc
  85              	 
  86              	 
  87              	 
  88 0000 80B4     	 push {r7}
  89              	.LCFI6:
  90              	 .cfi_def_cfa_offset 4
  91              	 .cfi_offset 7,-4
  92 0002 83B0     	 sub sp,sp,#12
  93              	.LCFI7:
  94              	 .cfi_def_cfa_offset 16
  95 0004 00AF     	 add r7,sp,#0
  96              	.LCFI8:
  97              	 .cfi_def_cfa_register 7
  98 0006 7860     	 str r0,[r7,#4]
  63:../Libraries/libscpi/src/lexer.c ****     if ((c == '0') || (c == '1')) {
  99              	 .loc 1 63 0
 100 0008 7B68     	 ldr r3,[r7,#4]
 101 000a 302B     	 cmp r3,#48
 102 000c 02D0     	 beq .L6
 103              	 .loc 1 63 0 is_stmt 0 discriminator 1
 104 000e 7B68     	 ldr r3,[r7,#4]
 105 0010 312B     	 cmp r3,#49
 106 0012 01D1     	 bne .L7
 107              	.L6:
  64:../Libraries/libscpi/src/lexer.c ****         return 1;
 108              	 .loc 1 64 0 is_stmt 1
 109 0014 0123     	 movs r3,#1
 110 0016 00E0     	 b .L8
 111              	.L7:
  65:../Libraries/libscpi/src/lexer.c ****     }
  66:../Libraries/libscpi/src/lexer.c ****     return 0;
 112              	 .loc 1 66 0
 113 0018 0023     	 movs r3,#0
 114              	.L8:
  67:../Libraries/libscpi/src/lexer.c **** }
 115              	 .loc 1 67 0
 116 001a 1846     	 mov r0,r3
 117 001c 0C37     	 adds r7,r7,#12
 118              	.LCFI9:
 119              	 .cfi_def_cfa_offset 4
 120 001e BD46     	 mov sp,r7
 121              	.LCFI10:
 122              	 .cfi_def_cfa_register 13
 123              	 
 124 0020 5DF8047B 	 ldr r7,[sp],#4
 125              	.LCFI11:
 126              	 .cfi_restore 7
 127              	 .cfi_def_cfa_offset 0
 128 0024 7047     	 bx lr
 129              	 .cfi_endproc
 130              	.LFE1:
 132 0026 00BF     	 .section .text.isqdigit,"ax",%progbits
 133              	 .align 2
 134              	 .thumb
 135              	 .thumb_func
 137              	isqdigit:
 138              	.LFB2:
  68:../Libraries/libscpi/src/lexer.c **** 
  69:../Libraries/libscpi/src/lexer.c **** /**
  70:../Libraries/libscpi/src/lexer.c ****  * Is hexadecimal digit
  71:../Libraries/libscpi/src/lexer.c ****  * @param c
  72:../Libraries/libscpi/src/lexer.c ****  * @return 
  73:../Libraries/libscpi/src/lexer.c ****  */
  74:../Libraries/libscpi/src/lexer.c **** static int isqdigit(int c) {
 139              	 .loc 1 74 0
 140              	 .cfi_startproc
 141              	 
 142              	 
 143              	 
 144 0000 80B4     	 push {r7}
 145              	.LCFI12:
 146              	 .cfi_def_cfa_offset 4
 147              	 .cfi_offset 7,-4
 148 0002 83B0     	 sub sp,sp,#12
 149              	.LCFI13:
 150              	 .cfi_def_cfa_offset 16
 151 0004 00AF     	 add r7,sp,#0
 152              	.LCFI14:
 153              	 .cfi_def_cfa_register 7
 154 0006 7860     	 str r0,[r7,#4]
  75:../Libraries/libscpi/src/lexer.c ****     if ((c == '0') || (c == '1') || (c == '2') || (c == '3') || (c == '4') || (c == '5') || (c == '
 155              	 .loc 1 75 0
 156 0008 7B68     	 ldr r3,[r7,#4]
 157 000a 302B     	 cmp r3,#48
 158 000c 14D0     	 beq .L10
 159              	 .loc 1 75 0 is_stmt 0 discriminator 1
 160 000e 7B68     	 ldr r3,[r7,#4]
 161 0010 312B     	 cmp r3,#49
 162 0012 11D0     	 beq .L10
 163              	 .loc 1 75 0 discriminator 2
 164 0014 7B68     	 ldr r3,[r7,#4]
 165 0016 322B     	 cmp r3,#50
 166 0018 0ED0     	 beq .L10
 167              	 .loc 1 75 0 discriminator 3
 168 001a 7B68     	 ldr r3,[r7,#4]
 169 001c 332B     	 cmp r3,#51
 170 001e 0BD0     	 beq .L10
 171              	 .loc 1 75 0 discriminator 4
 172 0020 7B68     	 ldr r3,[r7,#4]
 173 0022 342B     	 cmp r3,#52
 174 0024 08D0     	 beq .L10
 175              	 .loc 1 75 0 discriminator 5
 176 0026 7B68     	 ldr r3,[r7,#4]
 177 0028 352B     	 cmp r3,#53
 178 002a 05D0     	 beq .L10
 179              	 .loc 1 75 0 discriminator 6
 180 002c 7B68     	 ldr r3,[r7,#4]
 181 002e 362B     	 cmp r3,#54
 182 0030 02D0     	 beq .L10
 183              	 .loc 1 75 0 discriminator 7
 184 0032 7B68     	 ldr r3,[r7,#4]
 185 0034 372B     	 cmp r3,#55
 186 0036 01D1     	 bne .L11
 187              	.L10:
  76:../Libraries/libscpi/src/lexer.c ****         return 1;
 188              	 .loc 1 76 0 is_stmt 1
 189 0038 0123     	 movs r3,#1
 190 003a 00E0     	 b .L12
 191              	.L11:
  77:../Libraries/libscpi/src/lexer.c ****     }
  78:../Libraries/libscpi/src/lexer.c ****     return 0;
 192              	 .loc 1 78 0
 193 003c 0023     	 movs r3,#0
 194              	.L12:
  79:../Libraries/libscpi/src/lexer.c **** }
 195              	 .loc 1 79 0
 196 003e 1846     	 mov r0,r3
 197 0040 0C37     	 adds r7,r7,#12
 198              	.LCFI15:
 199              	 .cfi_def_cfa_offset 4
 200 0042 BD46     	 mov sp,r7
 201              	.LCFI16:
 202              	 .cfi_def_cfa_register 13
 203              	 
 204 0044 5DF8047B 	 ldr r7,[sp],#4
 205              	.LCFI17:
 206              	 .cfi_restore 7
 207              	 .cfi_def_cfa_offset 0
 208 0048 7047     	 bx lr
 209              	 .cfi_endproc
 210              	.LFE2:
 212 004a 00BF     	 .section .text.iseos,"ax",%progbits
 213              	 .align 2
 214              	 .thumb
 215              	 .thumb_func
 217              	iseos:
 218              	.LFB3:
  80:../Libraries/libscpi/src/lexer.c **** 
  81:../Libraries/libscpi/src/lexer.c **** /**
  82:../Libraries/libscpi/src/lexer.c ****  * Is end of string
  83:../Libraries/libscpi/src/lexer.c ****  * @param state
  84:../Libraries/libscpi/src/lexer.c ****  * @return 
  85:../Libraries/libscpi/src/lexer.c ****  */
  86:../Libraries/libscpi/src/lexer.c **** static int iseos(lex_state_t * state) {
 219              	 .loc 1 86 0
 220              	 .cfi_startproc
 221              	 
 222              	 
 223              	 
 224 0000 80B4     	 push {r7}
 225              	.LCFI18:
 226              	 .cfi_def_cfa_offset 4
 227              	 .cfi_offset 7,-4
 228 0002 83B0     	 sub sp,sp,#12
 229              	.LCFI19:
 230              	 .cfi_def_cfa_offset 16
 231 0004 00AF     	 add r7,sp,#0
 232              	.LCFI20:
 233              	 .cfi_def_cfa_register 7
 234 0006 7860     	 str r0,[r7,#4]
  87:../Libraries/libscpi/src/lexer.c ****     if ((state->buffer + state->len) <= (state->pos)) {
 235              	 .loc 1 87 0
 236 0008 7B68     	 ldr r3,[r7,#4]
 237 000a 1B68     	 ldr r3,[r3]
 238 000c 7A68     	 ldr r2,[r7,#4]
 239 000e 9268     	 ldr r2,[r2,#8]
 240 0010 1A44     	 add r2,r2,r3
 241 0012 7B68     	 ldr r3,[r7,#4]
 242 0014 5B68     	 ldr r3,[r3,#4]
 243 0016 9A42     	 cmp r2,r3
 244 0018 01D8     	 bhi .L14
  88:../Libraries/libscpi/src/lexer.c ****         return 1;
 245              	 .loc 1 88 0
 246 001a 0123     	 movs r3,#1
 247 001c 00E0     	 b .L15
 248              	.L14:
  89:../Libraries/libscpi/src/lexer.c ****     } else {
  90:../Libraries/libscpi/src/lexer.c ****         return 0;
 249              	 .loc 1 90 0
 250 001e 0023     	 movs r3,#0
 251              	.L15:
  91:../Libraries/libscpi/src/lexer.c ****     }
  92:../Libraries/libscpi/src/lexer.c **** }
 252              	 .loc 1 92 0
 253 0020 1846     	 mov r0,r3
 254 0022 0C37     	 adds r7,r7,#12
 255              	.LCFI21:
 256              	 .cfi_def_cfa_offset 4
 257 0024 BD46     	 mov sp,r7
 258              	.LCFI22:
 259              	 .cfi_def_cfa_register 13
 260              	 
 261 0026 5DF8047B 	 ldr r7,[sp],#4
 262              	.LCFI23:
 263              	 .cfi_restore 7
 264              	 .cfi_def_cfa_offset 0
 265 002a 7047     	 bx lr
 266              	 .cfi_endproc
 267              	.LFE3:
 269              	 .section .text.scpiLex_IsEos,"ax",%progbits
 270              	 .align 2
 271              	 .global scpiLex_IsEos
 272              	 .hidden scpiLex_IsEos
 273              	 .thumb
 274              	 .thumb_func
 276              	scpiLex_IsEos:
 277              	.LFB4:
  93:../Libraries/libscpi/src/lexer.c **** 
  94:../Libraries/libscpi/src/lexer.c **** /**
  95:../Libraries/libscpi/src/lexer.c ****  * Private export of iseos
  96:../Libraries/libscpi/src/lexer.c ****  * @param state
  97:../Libraries/libscpi/src/lexer.c ****  * @return 
  98:../Libraries/libscpi/src/lexer.c ****  */
  99:../Libraries/libscpi/src/lexer.c **** int scpiLex_IsEos(lex_state_t * state) {
 278              	 .loc 1 99 0
 279              	 .cfi_startproc
 280              	 
 281              	 
 282 0000 80B5     	 push {r7,lr}
 283              	.LCFI24:
 284              	 .cfi_def_cfa_offset 8
 285              	 .cfi_offset 7,-8
 286              	 .cfi_offset 14,-4
 287 0002 82B0     	 sub sp,sp,#8
 288              	.LCFI25:
 289              	 .cfi_def_cfa_offset 16
 290 0004 00AF     	 add r7,sp,#0
 291              	.LCFI26:
 292              	 .cfi_def_cfa_register 7
 293 0006 7860     	 str r0,[r7,#4]
 100:../Libraries/libscpi/src/lexer.c ****     return iseos(state);
 294              	 .loc 1 100 0
 295 0008 7868     	 ldr r0,[r7,#4]
 296 000a FFF7FEFF 	 bl iseos
 297 000e 0346     	 mov r3,r0
 101:../Libraries/libscpi/src/lexer.c **** }
 298              	 .loc 1 101 0
 299 0010 1846     	 mov r0,r3
 300 0012 0837     	 adds r7,r7,#8
 301              	.LCFI27:
 302              	 .cfi_def_cfa_offset 8
 303 0014 BD46     	 mov sp,r7
 304              	.LCFI28:
 305              	 .cfi_def_cfa_register 13
 306              	 
 307 0016 80BD     	 pop {r7,pc}
 308              	 .cfi_endproc
 309              	.LFE4:
 311              	 .section .text.ischr,"ax",%progbits
 312              	 .align 2
 313              	 .thumb
 314              	 .thumb_func
 316              	ischr:
 317              	.LFB5:
 102:../Libraries/libscpi/src/lexer.c **** 
 103:../Libraries/libscpi/src/lexer.c **** /**
 104:../Libraries/libscpi/src/lexer.c ****  * Test current character
 105:../Libraries/libscpi/src/lexer.c ****  * @param state
 106:../Libraries/libscpi/src/lexer.c ****  * @param chr
 107:../Libraries/libscpi/src/lexer.c ****  * @return 
 108:../Libraries/libscpi/src/lexer.c ****  */
 109:../Libraries/libscpi/src/lexer.c **** static int ischr(lex_state_t * state, char chr) {
 318              	 .loc 1 109 0
 319              	 .cfi_startproc
 320              	 
 321              	 
 322              	 
 323 0000 80B4     	 push {r7}
 324              	.LCFI29:
 325              	 .cfi_def_cfa_offset 4
 326              	 .cfi_offset 7,-4
 327 0002 83B0     	 sub sp,sp,#12
 328              	.LCFI30:
 329              	 .cfi_def_cfa_offset 16
 330 0004 00AF     	 add r7,sp,#0
 331              	.LCFI31:
 332              	 .cfi_def_cfa_register 7
 333 0006 7860     	 str r0,[r7,#4]
 334 0008 0B46     	 mov r3,r1
 335 000a FB70     	 strb r3,[r7,#3]
 110:../Libraries/libscpi/src/lexer.c ****     return (state->pos[0] == chr);
 336              	 .loc 1 110 0
 337 000c 7B68     	 ldr r3,[r7,#4]
 338 000e 5B68     	 ldr r3,[r3,#4]
 339 0010 1B78     	 ldrb r3,[r3]
 340 0012 FA78     	 ldrb r2,[r7,#3]
 341 0014 9A42     	 cmp r2,r3
 342 0016 0CBF     	 ite eq
 343 0018 0123     	 moveq r3,#1
 344 001a 0023     	 movne r3,#0
 345 001c DBB2     	 uxtb r3,r3
 111:../Libraries/libscpi/src/lexer.c **** }
 346              	 .loc 1 111 0
 347 001e 1846     	 mov r0,r3
 348 0020 0C37     	 adds r7,r7,#12
 349              	.LCFI32:
 350              	 .cfi_def_cfa_offset 4
 351 0022 BD46     	 mov sp,r7
 352              	.LCFI33:
 353              	 .cfi_def_cfa_register 13
 354              	 
 355 0024 5DF8047B 	 ldr r7,[sp],#4
 356              	.LCFI34:
 357              	 .cfi_restore 7
 358              	 .cfi_def_cfa_offset 0
 359 0028 7047     	 bx lr
 360              	 .cfi_endproc
 361              	.LFE5:
 363 002a 00BF     	 .section .text.isplusmn,"ax",%progbits
 364              	 .align 2
 365              	 .thumb
 366              	 .thumb_func
 368              	isplusmn:
 369              	.LFB6:
 112:../Libraries/libscpi/src/lexer.c **** 
 113:../Libraries/libscpi/src/lexer.c **** /**
 114:../Libraries/libscpi/src/lexer.c ****  * Is plus or minus
 115:../Libraries/libscpi/src/lexer.c ****  * @param c
 116:../Libraries/libscpi/src/lexer.c ****  * @return 
 117:../Libraries/libscpi/src/lexer.c ****  */
 118:../Libraries/libscpi/src/lexer.c **** static int isplusmn(int c) {
 370              	 .loc 1 118 0
 371              	 .cfi_startproc
 372              	 
 373              	 
 374              	 
 375 0000 80B4     	 push {r7}
 376              	.LCFI35:
 377              	 .cfi_def_cfa_offset 4
 378              	 .cfi_offset 7,-4
 379 0002 83B0     	 sub sp,sp,#12
 380              	.LCFI36:
 381              	 .cfi_def_cfa_offset 16
 382 0004 00AF     	 add r7,sp,#0
 383              	.LCFI37:
 384              	 .cfi_def_cfa_register 7
 385 0006 7860     	 str r0,[r7,#4]
 119:../Libraries/libscpi/src/lexer.c ****     return c == '+' || c == '-';
 386              	 .loc 1 119 0
 387 0008 7B68     	 ldr r3,[r7,#4]
 388 000a 2B2B     	 cmp r3,#43
 389 000c 02D0     	 beq .L21
 390              	 .loc 1 119 0 is_stmt 0 discriminator 2
 391 000e 7B68     	 ldr r3,[r7,#4]
 392 0010 2D2B     	 cmp r3,#45
 393 0012 01D1     	 bne .L22
 394              	.L21:
 395              	 .loc 1 119 0 discriminator 3
 396 0014 0123     	 movs r3,#1
 397 0016 00E0     	 b .L23
 398              	.L22:
 399              	 .loc 1 119 0 discriminator 4
 400 0018 0023     	 movs r3,#0
 401              	.L23:
 120:../Libraries/libscpi/src/lexer.c **** }
 402              	 .loc 1 120 0 is_stmt 1 discriminator 6
 403 001a 1846     	 mov r0,r3
 404 001c 0C37     	 adds r7,r7,#12
 405              	.LCFI38:
 406              	 .cfi_def_cfa_offset 4
 407 001e BD46     	 mov sp,r7
 408              	.LCFI39:
 409              	 .cfi_def_cfa_register 13
 410              	 
 411 0020 5DF8047B 	 ldr r7,[sp],#4
 412              	.LCFI40:
 413              	 .cfi_restore 7
 414              	 .cfi_def_cfa_offset 0
 415 0024 7047     	 bx lr
 416              	 .cfi_endproc
 417              	.LFE6:
 419 0026 00BF     	 .section .text.isH,"ax",%progbits
 420              	 .align 2
 421              	 .thumb
 422              	 .thumb_func
 424              	isH:
 425              	.LFB7:
 121:../Libraries/libscpi/src/lexer.c **** 
 122:../Libraries/libscpi/src/lexer.c **** /**
 123:../Libraries/libscpi/src/lexer.c ****  * Is letter H
 124:../Libraries/libscpi/src/lexer.c ****  * @param c
 125:../Libraries/libscpi/src/lexer.c ****  * @return 
 126:../Libraries/libscpi/src/lexer.c ****  */
 127:../Libraries/libscpi/src/lexer.c **** static int isH(int c) {
 426              	 .loc 1 127 0
 427              	 .cfi_startproc
 428              	 
 429              	 
 430              	 
 431 0000 80B4     	 push {r7}
 432              	.LCFI41:
 433              	 .cfi_def_cfa_offset 4
 434              	 .cfi_offset 7,-4
 435 0002 83B0     	 sub sp,sp,#12
 436              	.LCFI42:
 437              	 .cfi_def_cfa_offset 16
 438 0004 00AF     	 add r7,sp,#0
 439              	.LCFI43:
 440              	 .cfi_def_cfa_register 7
 441 0006 7860     	 str r0,[r7,#4]
 128:../Libraries/libscpi/src/lexer.c ****     return c == 'h' || c == 'H';
 442              	 .loc 1 128 0
 443 0008 7B68     	 ldr r3,[r7,#4]
 444 000a 682B     	 cmp r3,#104
 445 000c 02D0     	 beq .L26
 446              	 .loc 1 128 0 is_stmt 0 discriminator 2
 447 000e 7B68     	 ldr r3,[r7,#4]
 448 0010 482B     	 cmp r3,#72
 449 0012 01D1     	 bne .L27
 450              	.L26:
 451              	 .loc 1 128 0 discriminator 3
 452 0014 0123     	 movs r3,#1
 453 0016 00E0     	 b .L28
 454              	.L27:
 455              	 .loc 1 128 0 discriminator 4
 456 0018 0023     	 movs r3,#0
 457              	.L28:
 129:../Libraries/libscpi/src/lexer.c **** }
 458              	 .loc 1 129 0 is_stmt 1 discriminator 6
 459 001a 1846     	 mov r0,r3
 460 001c 0C37     	 adds r7,r7,#12
 461              	.LCFI44:
 462              	 .cfi_def_cfa_offset 4
 463 001e BD46     	 mov sp,r7
 464              	.LCFI45:
 465              	 .cfi_def_cfa_register 13
 466              	 
 467 0020 5DF8047B 	 ldr r7,[sp],#4
 468              	.LCFI46:
 469              	 .cfi_restore 7
 470              	 .cfi_def_cfa_offset 0
 471 0024 7047     	 bx lr
 472              	 .cfi_endproc
 473              	.LFE7:
 475 0026 00BF     	 .section .text.isB,"ax",%progbits
 476              	 .align 2
 477              	 .thumb
 478              	 .thumb_func
 480              	isB:
 481              	.LFB8:
 130:../Libraries/libscpi/src/lexer.c **** 
 131:../Libraries/libscpi/src/lexer.c **** /**
 132:../Libraries/libscpi/src/lexer.c ****  * Is letter B
 133:../Libraries/libscpi/src/lexer.c ****  * @param c
 134:../Libraries/libscpi/src/lexer.c ****  * @return 
 135:../Libraries/libscpi/src/lexer.c ****  */
 136:../Libraries/libscpi/src/lexer.c **** static int isB(int c) {
 482              	 .loc 1 136 0
 483              	 .cfi_startproc
 484              	 
 485              	 
 486              	 
 487 0000 80B4     	 push {r7}
 488              	.LCFI47:
 489              	 .cfi_def_cfa_offset 4
 490              	 .cfi_offset 7,-4
 491 0002 83B0     	 sub sp,sp,#12
 492              	.LCFI48:
 493              	 .cfi_def_cfa_offset 16
 494 0004 00AF     	 add r7,sp,#0
 495              	.LCFI49:
 496              	 .cfi_def_cfa_register 7
 497 0006 7860     	 str r0,[r7,#4]
 137:../Libraries/libscpi/src/lexer.c ****     return c == 'b' || c == 'B';
 498              	 .loc 1 137 0
 499 0008 7B68     	 ldr r3,[r7,#4]
 500 000a 622B     	 cmp r3,#98
 501 000c 02D0     	 beq .L31
 502              	 .loc 1 137 0 is_stmt 0 discriminator 2
 503 000e 7B68     	 ldr r3,[r7,#4]
 504 0010 422B     	 cmp r3,#66
 505 0012 01D1     	 bne .L32
 506              	.L31:
 507              	 .loc 1 137 0 discriminator 3
 508 0014 0123     	 movs r3,#1
 509 0016 00E0     	 b .L33
 510              	.L32:
 511              	 .loc 1 137 0 discriminator 4
 512 0018 0023     	 movs r3,#0
 513              	.L33:
 138:../Libraries/libscpi/src/lexer.c **** }
 514              	 .loc 1 138 0 is_stmt 1 discriminator 6
 515 001a 1846     	 mov r0,r3
 516 001c 0C37     	 adds r7,r7,#12
 517              	.LCFI50:
 518              	 .cfi_def_cfa_offset 4
 519 001e BD46     	 mov sp,r7
 520              	.LCFI51:
 521              	 .cfi_def_cfa_register 13
 522              	 
 523 0020 5DF8047B 	 ldr r7,[sp],#4
 524              	.LCFI52:
 525              	 .cfi_restore 7
 526              	 .cfi_def_cfa_offset 0
 527 0024 7047     	 bx lr
 528              	 .cfi_endproc
 529              	.LFE8:
 531 0026 00BF     	 .section .text.isQ,"ax",%progbits
 532              	 .align 2
 533              	 .thumb
 534              	 .thumb_func
 536              	isQ:
 537              	.LFB9:
 139:../Libraries/libscpi/src/lexer.c **** 
 140:../Libraries/libscpi/src/lexer.c **** /**
 141:../Libraries/libscpi/src/lexer.c ****  * Is letter Q
 142:../Libraries/libscpi/src/lexer.c ****  * @param c
 143:../Libraries/libscpi/src/lexer.c ****  * @return 
 144:../Libraries/libscpi/src/lexer.c ****  */
 145:../Libraries/libscpi/src/lexer.c **** static int isQ(int c) {
 538              	 .loc 1 145 0
 539              	 .cfi_startproc
 540              	 
 541              	 
 542              	 
 543 0000 80B4     	 push {r7}
 544              	.LCFI53:
 545              	 .cfi_def_cfa_offset 4
 546              	 .cfi_offset 7,-4
 547 0002 83B0     	 sub sp,sp,#12
 548              	.LCFI54:
 549              	 .cfi_def_cfa_offset 16
 550 0004 00AF     	 add r7,sp,#0
 551              	.LCFI55:
 552              	 .cfi_def_cfa_register 7
 553 0006 7860     	 str r0,[r7,#4]
 146:../Libraries/libscpi/src/lexer.c ****     return c == 'q' || c == 'Q';
 554              	 .loc 1 146 0
 555 0008 7B68     	 ldr r3,[r7,#4]
 556 000a 712B     	 cmp r3,#113
 557 000c 02D0     	 beq .L36
 558              	 .loc 1 146 0 is_stmt 0 discriminator 2
 559 000e 7B68     	 ldr r3,[r7,#4]
 560 0010 512B     	 cmp r3,#81
 561 0012 01D1     	 bne .L37
 562              	.L36:
 563              	 .loc 1 146 0 discriminator 3
 564 0014 0123     	 movs r3,#1
 565 0016 00E0     	 b .L38
 566              	.L37:
 567              	 .loc 1 146 0 discriminator 4
 568 0018 0023     	 movs r3,#0
 569              	.L38:
 147:../Libraries/libscpi/src/lexer.c **** }
 570              	 .loc 1 147 0 is_stmt 1 discriminator 6
 571 001a 1846     	 mov r0,r3
 572 001c 0C37     	 adds r7,r7,#12
 573              	.LCFI56:
 574              	 .cfi_def_cfa_offset 4
 575 001e BD46     	 mov sp,r7
 576              	.LCFI57:
 577              	 .cfi_def_cfa_register 13
 578              	 
 579 0020 5DF8047B 	 ldr r7,[sp],#4
 580              	.LCFI58:
 581              	 .cfi_restore 7
 582              	 .cfi_def_cfa_offset 0
 583 0024 7047     	 bx lr
 584              	 .cfi_endproc
 585              	.LFE9:
 587 0026 00BF     	 .section .text.isE,"ax",%progbits
 588              	 .align 2
 589              	 .thumb
 590              	 .thumb_func
 592              	isE:
 593              	.LFB10:
 148:../Libraries/libscpi/src/lexer.c **** 
 149:../Libraries/libscpi/src/lexer.c **** /**
 150:../Libraries/libscpi/src/lexer.c ****  * Is letter E
 151:../Libraries/libscpi/src/lexer.c ****  * @param c
 152:../Libraries/libscpi/src/lexer.c ****  * @return 
 153:../Libraries/libscpi/src/lexer.c ****  */
 154:../Libraries/libscpi/src/lexer.c **** static int isE(int c) {
 594              	 .loc 1 154 0
 595              	 .cfi_startproc
 596              	 
 597              	 
 598              	 
 599 0000 80B4     	 push {r7}
 600              	.LCFI59:
 601              	 .cfi_def_cfa_offset 4
 602              	 .cfi_offset 7,-4
 603 0002 83B0     	 sub sp,sp,#12
 604              	.LCFI60:
 605              	 .cfi_def_cfa_offset 16
 606 0004 00AF     	 add r7,sp,#0
 607              	.LCFI61:
 608              	 .cfi_def_cfa_register 7
 609 0006 7860     	 str r0,[r7,#4]
 155:../Libraries/libscpi/src/lexer.c ****     return c == 'e' || c == 'E';
 610              	 .loc 1 155 0
 611 0008 7B68     	 ldr r3,[r7,#4]
 612 000a 652B     	 cmp r3,#101
 613 000c 02D0     	 beq .L41
 614              	 .loc 1 155 0 is_stmt 0 discriminator 2
 615 000e 7B68     	 ldr r3,[r7,#4]
 616 0010 452B     	 cmp r3,#69
 617 0012 01D1     	 bne .L42
 618              	.L41:
 619              	 .loc 1 155 0 discriminator 3
 620 0014 0123     	 movs r3,#1
 621 0016 00E0     	 b .L43
 622              	.L42:
 623              	 .loc 1 155 0 discriminator 4
 624 0018 0023     	 movs r3,#0
 625              	.L43:
 156:../Libraries/libscpi/src/lexer.c **** }
 626              	 .loc 1 156 0 is_stmt 1 discriminator 6
 627 001a 1846     	 mov r0,r3
 628 001c 0C37     	 adds r7,r7,#12
 629              	.LCFI62:
 630              	 .cfi_def_cfa_offset 4
 631 001e BD46     	 mov sp,r7
 632              	.LCFI63:
 633              	 .cfi_def_cfa_register 13
 634              	 
 635 0020 5DF8047B 	 ldr r7,[sp],#4
 636              	.LCFI64:
 637              	 .cfi_restore 7
 638              	 .cfi_def_cfa_offset 0
 639 0024 7047     	 bx lr
 640              	 .cfi_endproc
 641              	.LFE10:
 643 0026 00BF     	 .section .text.skipWs,"ax",%progbits
 644              	 .align 2
 645              	 .thumb
 646              	 .thumb_func
 648              	skipWs:
 649              	.LFB11:
 157:../Libraries/libscpi/src/lexer.c **** 
 158:../Libraries/libscpi/src/lexer.c **** #define SKIP_NONE       0
 159:../Libraries/libscpi/src/lexer.c **** #define SKIP_OK         1
 160:../Libraries/libscpi/src/lexer.c **** #define SKIP_INCOMPLETE -1
 161:../Libraries/libscpi/src/lexer.c **** 
 162:../Libraries/libscpi/src/lexer.c **** /* skip characters */
 163:../Libraries/libscpi/src/lexer.c **** /* 7.4.1 <PROGRAM MESSAGE UNIT SEPARATOR>*/
 164:../Libraries/libscpi/src/lexer.c **** /* TODO: static int skipProgramMessageUnitSeparator(lex_state_t * state) */
 165:../Libraries/libscpi/src/lexer.c **** 
 166:../Libraries/libscpi/src/lexer.c **** /**
 167:../Libraries/libscpi/src/lexer.c ****  * Skip all whitespaces
 168:../Libraries/libscpi/src/lexer.c ****  * @param state
 169:../Libraries/libscpi/src/lexer.c ****  * @return 
 170:../Libraries/libscpi/src/lexer.c ****  */
 171:../Libraries/libscpi/src/lexer.c **** static int skipWs(lex_state_t * state) {
 650              	 .loc 1 171 0
 651              	 .cfi_startproc
 652              	 
 653              	 
 654 0000 80B5     	 push {r7,lr}
 655              	.LCFI65:
 656              	 .cfi_def_cfa_offset 8
 657              	 .cfi_offset 7,-8
 658              	 .cfi_offset 14,-4
 659 0002 84B0     	 sub sp,sp,#16
 660              	.LCFI66:
 661              	 .cfi_def_cfa_offset 24
 662 0004 00AF     	 add r7,sp,#0
 663              	.LCFI67:
 664              	 .cfi_def_cfa_register 7
 665 0006 7860     	 str r0,[r7,#4]
 172:../Libraries/libscpi/src/lexer.c ****     int someSpace = 0;
 666              	 .loc 1 172 0
 667 0008 0023     	 movs r3,#0
 668 000a FB60     	 str r3,[r7,#12]
 173:../Libraries/libscpi/src/lexer.c ****     while (!iseos(state) && isws(state->pos[0])) {
 669              	 .loc 1 173 0
 670 000c 07E0     	 b .L46
 671              	.L48:
 174:../Libraries/libscpi/src/lexer.c ****         state->pos++;
 672              	 .loc 1 174 0
 673 000e 7B68     	 ldr r3,[r7,#4]
 674 0010 5B68     	 ldr r3,[r3,#4]
 675 0012 5A1C     	 adds r2,r3,#1
 676 0014 7B68     	 ldr r3,[r7,#4]
 677 0016 5A60     	 str r2,[r3,#4]
 175:../Libraries/libscpi/src/lexer.c ****         someSpace++;
 678              	 .loc 1 175 0
 679 0018 FB68     	 ldr r3,[r7,#12]
 680 001a 0133     	 adds r3,r3,#1
 681 001c FB60     	 str r3,[r7,#12]
 682              	.L46:
 173:../Libraries/libscpi/src/lexer.c ****     while (!iseos(state) && isws(state->pos[0])) {
 683              	 .loc 1 173 0
 684 001e 7868     	 ldr r0,[r7,#4]
 685 0020 FFF7FEFF 	 bl iseos
 686 0024 0346     	 mov r3,r0
 687 0026 002B     	 cmp r3,#0
 688 0028 08D1     	 bne .L47
 173:../Libraries/libscpi/src/lexer.c ****     while (!iseos(state) && isws(state->pos[0])) {
 689              	 .loc 1 173 0 is_stmt 0 discriminator 1
 690 002a 7B68     	 ldr r3,[r7,#4]
 691 002c 5B68     	 ldr r3,[r3,#4]
 692 002e 1B78     	 ldrb r3,[r3]
 693 0030 1846     	 mov r0,r3
 694 0032 FFF7FEFF 	 bl isws
 695 0036 0346     	 mov r3,r0
 696 0038 002B     	 cmp r3,#0
 697 003a E8D1     	 bne .L48
 698              	.L47:
 176:../Libraries/libscpi/src/lexer.c ****     }
 177:../Libraries/libscpi/src/lexer.c **** 
 178:../Libraries/libscpi/src/lexer.c ****     return someSpace;
 699              	 .loc 1 178 0 is_stmt 1
 700 003c FB68     	 ldr r3,[r7,#12]
 179:../Libraries/libscpi/src/lexer.c **** }
 701              	 .loc 1 179 0
 702 003e 1846     	 mov r0,r3
 703 0040 1037     	 adds r7,r7,#16
 704              	.LCFI68:
 705              	 .cfi_def_cfa_offset 8
 706 0042 BD46     	 mov sp,r7
 707              	.LCFI69:
 708              	 .cfi_def_cfa_register 13
 709              	 
 710 0044 80BD     	 pop {r7,pc}
 711              	 .cfi_endproc
 712              	.LFE11:
 714 0046 00BF     	 .section .text.skipDigit,"ax",%progbits
 715              	 .align 2
 716              	 .thumb
 717              	 .thumb_func
 719              	skipDigit:
 720              	.LFB12:
 180:../Libraries/libscpi/src/lexer.c **** 
 181:../Libraries/libscpi/src/lexer.c **** /* 7.4.2 <PROGRAM DATA SEPARATOR> */
 182:../Libraries/libscpi/src/lexer.c **** /* static int skipProgramDataSeparator(lex_state_t * state) */
 183:../Libraries/libscpi/src/lexer.c **** 
 184:../Libraries/libscpi/src/lexer.c **** /* 7.5.2 <PROGRAM MESSAGE TERMINATOR> */
 185:../Libraries/libscpi/src/lexer.c **** /* static int skipProgramMessageTerminator(lex_state_t * state) */
 186:../Libraries/libscpi/src/lexer.c **** 
 187:../Libraries/libscpi/src/lexer.c **** /**
 188:../Libraries/libscpi/src/lexer.c ****  * Skip decimal digit
 189:../Libraries/libscpi/src/lexer.c ****  * @param state
 190:../Libraries/libscpi/src/lexer.c ****  * @return 
 191:../Libraries/libscpi/src/lexer.c ****  */
 192:../Libraries/libscpi/src/lexer.c **** static int skipDigit(lex_state_t * state) {
 721              	 .loc 1 192 0
 722              	 .cfi_startproc
 723              	 
 724              	 
 725 0000 80B5     	 push {r7,lr}
 726              	.LCFI70:
 727              	 .cfi_def_cfa_offset 8
 728              	 .cfi_offset 7,-8
 729              	 .cfi_offset 14,-4
 730 0002 82B0     	 sub sp,sp,#8
 731              	.LCFI71:
 732              	 .cfi_def_cfa_offset 16
 733 0004 00AF     	 add r7,sp,#0
 734              	.LCFI72:
 735              	 .cfi_def_cfa_register 7
 736 0006 7860     	 str r0,[r7,#4]
 193:../Libraries/libscpi/src/lexer.c ****     if (!iseos(state) && isdigit((uint8_t)(state->pos[0]))) {
 737              	 .loc 1 193 0
 738 0008 7868     	 ldr r0,[r7,#4]
 739 000a FFF7FEFF 	 bl iseos
 740 000e 0346     	 mov r3,r0
 741 0010 002B     	 cmp r3,#0
 742 0012 12D1     	 bne .L51
 743              	 .loc 1 193 0 is_stmt 0 discriminator 1
 744 0014 0B4B     	 ldr r3,.L53
 745 0016 1A68     	 ldr r2,[r3]
 746 0018 7B68     	 ldr r3,[r7,#4]
 747 001a 5B68     	 ldr r3,[r3,#4]
 748 001c 1B78     	 ldrb r3,[r3]
 749 001e 0133     	 adds r3,r3,#1
 750 0020 1344     	 add r3,r3,r2
 751 0022 1B78     	 ldrb r3,[r3]
 752 0024 03F00403 	 and r3,r3,#4
 753 0028 002B     	 cmp r3,#0
 754 002a 06D0     	 beq .L51
 194:../Libraries/libscpi/src/lexer.c ****         state->pos++;
 755              	 .loc 1 194 0 is_stmt 1
 756 002c 7B68     	 ldr r3,[r7,#4]
 757 002e 5B68     	 ldr r3,[r3,#4]
 758 0030 5A1C     	 adds r2,r3,#1
 759 0032 7B68     	 ldr r3,[r7,#4]
 760 0034 5A60     	 str r2,[r3,#4]
 195:../Libraries/libscpi/src/lexer.c ****         return SKIP_OK;
 761              	 .loc 1 195 0
 762 0036 0123     	 movs r3,#1
 763 0038 00E0     	 b .L52
 764              	.L51:
 196:../Libraries/libscpi/src/lexer.c ****     } else {
 197:../Libraries/libscpi/src/lexer.c ****         return SKIP_NONE;
 765              	 .loc 1 197 0
 766 003a 0023     	 movs r3,#0
 767              	.L52:
 198:../Libraries/libscpi/src/lexer.c ****     }
 199:../Libraries/libscpi/src/lexer.c **** }
 768              	 .loc 1 199 0
 769 003c 1846     	 mov r0,r3
 770 003e 0837     	 adds r7,r7,#8
 771              	.LCFI73:
 772              	 .cfi_def_cfa_offset 8
 773 0040 BD46     	 mov sp,r7
 774              	.LCFI74:
 775              	 .cfi_def_cfa_register 13
 776              	 
 777 0042 80BD     	 pop {r7,pc}
 778              	.L54:
 779              	 .align 2
 780              	.L53:
 781 0044 00000000 	 .word __ctype_ptr__
 782              	 .cfi_endproc
 783              	.LFE12:
 785              	 .section .text.skipNumbers,"ax",%progbits
 786              	 .align 2
 787              	 .thumb
 788              	 .thumb_func
 790              	skipNumbers:
 791              	.LFB13:
 200:../Libraries/libscpi/src/lexer.c **** 
 201:../Libraries/libscpi/src/lexer.c **** /**
 202:../Libraries/libscpi/src/lexer.c ****  * Skip multiple decimal digits
 203:../Libraries/libscpi/src/lexer.c ****  * @param state
 204:../Libraries/libscpi/src/lexer.c ****  * @return 
 205:../Libraries/libscpi/src/lexer.c ****  */
 206:../Libraries/libscpi/src/lexer.c **** static int skipNumbers(lex_state_t * state) {
 792              	 .loc 1 206 0
 793              	 .cfi_startproc
 794              	 
 795              	 
 796 0000 80B5     	 push {r7,lr}
 797              	.LCFI75:
 798              	 .cfi_def_cfa_offset 8
 799              	 .cfi_offset 7,-8
 800              	 .cfi_offset 14,-4
 801 0002 84B0     	 sub sp,sp,#16
 802              	.LCFI76:
 803              	 .cfi_def_cfa_offset 24
 804 0004 00AF     	 add r7,sp,#0
 805              	.LCFI77:
 806              	 .cfi_def_cfa_register 7
 807 0006 7860     	 str r0,[r7,#4]
 207:../Libraries/libscpi/src/lexer.c ****     int someNumbers = 0;
 808              	 .loc 1 207 0
 809 0008 0023     	 movs r3,#0
 810 000a FB60     	 str r3,[r7,#12]
 208:../Libraries/libscpi/src/lexer.c ****     while (!iseos(state) && isdigit((uint8_t)(state->pos[0]))) {
 811              	 .loc 1 208 0
 812 000c 07E0     	 b .L56
 813              	.L58:
 209:../Libraries/libscpi/src/lexer.c ****         state->pos++;
 814              	 .loc 1 209 0
 815 000e 7B68     	 ldr r3,[r7,#4]
 816 0010 5B68     	 ldr r3,[r3,#4]
 817 0012 5A1C     	 adds r2,r3,#1
 818 0014 7B68     	 ldr r3,[r7,#4]
 819 0016 5A60     	 str r2,[r3,#4]
 210:../Libraries/libscpi/src/lexer.c ****         someNumbers++;
 820              	 .loc 1 210 0
 821 0018 FB68     	 ldr r3,[r7,#12]
 822 001a 0133     	 adds r3,r3,#1
 823 001c FB60     	 str r3,[r7,#12]
 824              	.L56:
 208:../Libraries/libscpi/src/lexer.c ****     while (!iseos(state) && isdigit((uint8_t)(state->pos[0]))) {
 825              	 .loc 1 208 0
 826 001e 7868     	 ldr r0,[r7,#4]
 827 0020 FFF7FEFF 	 bl iseos
 828 0024 0346     	 mov r3,r0
 829 0026 002B     	 cmp r3,#0
 830 0028 0BD1     	 bne .L57
 208:../Libraries/libscpi/src/lexer.c ****     while (!iseos(state) && isdigit((uint8_t)(state->pos[0]))) {
 831              	 .loc 1 208 0 is_stmt 0 discriminator 1
 832 002a 084B     	 ldr r3,.L60
 833 002c 1A68     	 ldr r2,[r3]
 834 002e 7B68     	 ldr r3,[r7,#4]
 835 0030 5B68     	 ldr r3,[r3,#4]
 836 0032 1B78     	 ldrb r3,[r3]
 837 0034 0133     	 adds r3,r3,#1
 838 0036 1344     	 add r3,r3,r2
 839 0038 1B78     	 ldrb r3,[r3]
 840 003a 03F00403 	 and r3,r3,#4
 841 003e 002B     	 cmp r3,#0
 842 0040 E5D1     	 bne .L58
 843              	.L57:
 211:../Libraries/libscpi/src/lexer.c ****     }
 212:../Libraries/libscpi/src/lexer.c ****     return someNumbers;
 844              	 .loc 1 212 0 is_stmt 1
 845 0042 FB68     	 ldr r3,[r7,#12]
 213:../Libraries/libscpi/src/lexer.c **** }
 846              	 .loc 1 213 0
 847 0044 1846     	 mov r0,r3
 848 0046 1037     	 adds r7,r7,#16
 849              	.LCFI78:
 850              	 .cfi_def_cfa_offset 8
 851 0048 BD46     	 mov sp,r7
 852              	.LCFI79:
 853              	 .cfi_def_cfa_register 13
 854              	 
 855 004a 80BD     	 pop {r7,pc}
 856              	.L61:
 857              	 .align 2
 858              	.L60:
 859 004c 00000000 	 .word __ctype_ptr__
 860              	 .cfi_endproc
 861              	.LFE13:
 863              	 .section .text.skipPlusmn,"ax",%progbits
 864              	 .align 2
 865              	 .thumb
 866              	 .thumb_func
 868              	skipPlusmn:
 869              	.LFB14:
 214:../Libraries/libscpi/src/lexer.c **** 
 215:../Libraries/libscpi/src/lexer.c **** /**
 216:../Libraries/libscpi/src/lexer.c ****  * Skip plus or minus
 217:../Libraries/libscpi/src/lexer.c ****  * @param state
 218:../Libraries/libscpi/src/lexer.c ****  * @return 
 219:../Libraries/libscpi/src/lexer.c ****  */
 220:../Libraries/libscpi/src/lexer.c **** static int skipPlusmn(lex_state_t * state) {
 870              	 .loc 1 220 0
 871              	 .cfi_startproc
 872              	 
 873              	 
 874 0000 80B5     	 push {r7,lr}
 875              	.LCFI80:
 876              	 .cfi_def_cfa_offset 8
 877              	 .cfi_offset 7,-8
 878              	 .cfi_offset 14,-4
 879 0002 82B0     	 sub sp,sp,#8
 880              	.LCFI81:
 881              	 .cfi_def_cfa_offset 16
 882 0004 00AF     	 add r7,sp,#0
 883              	.LCFI82:
 884              	 .cfi_def_cfa_register 7
 885 0006 7860     	 str r0,[r7,#4]
 221:../Libraries/libscpi/src/lexer.c ****     if (!iseos(state) && isplusmn(state->pos[0])) {
 886              	 .loc 1 221 0
 887 0008 7868     	 ldr r0,[r7,#4]
 888 000a FFF7FEFF 	 bl iseos
 889 000e 0346     	 mov r3,r0
 890 0010 002B     	 cmp r3,#0
 891 0012 0FD1     	 bne .L63
 892              	 .loc 1 221 0 is_stmt 0 discriminator 1
 893 0014 7B68     	 ldr r3,[r7,#4]
 894 0016 5B68     	 ldr r3,[r3,#4]
 895 0018 1B78     	 ldrb r3,[r3]
 896 001a 1846     	 mov r0,r3
 897 001c FFF7FEFF 	 bl isplusmn
 898 0020 0346     	 mov r3,r0
 899 0022 002B     	 cmp r3,#0
 900 0024 06D0     	 beq .L63
 222:../Libraries/libscpi/src/lexer.c ****         state->pos++;
 901              	 .loc 1 222 0 is_stmt 1
 902 0026 7B68     	 ldr r3,[r7,#4]
 903 0028 5B68     	 ldr r3,[r3,#4]
 904 002a 5A1C     	 adds r2,r3,#1
 905 002c 7B68     	 ldr r3,[r7,#4]
 906 002e 5A60     	 str r2,[r3,#4]
 223:../Libraries/libscpi/src/lexer.c ****         return SKIP_OK;
 907              	 .loc 1 223 0
 908 0030 0123     	 movs r3,#1
 909 0032 00E0     	 b .L64
 910              	.L63:
 224:../Libraries/libscpi/src/lexer.c ****     } else {
 225:../Libraries/libscpi/src/lexer.c ****         return SKIP_NONE;
 911              	 .loc 1 225 0
 912 0034 0023     	 movs r3,#0
 913              	.L64:
 226:../Libraries/libscpi/src/lexer.c ****     }
 227:../Libraries/libscpi/src/lexer.c **** }
 914              	 .loc 1 227 0
 915 0036 1846     	 mov r0,r3
 916 0038 0837     	 adds r7,r7,#8
 917              	.LCFI83:
 918              	 .cfi_def_cfa_offset 8
 919 003a BD46     	 mov sp,r7
 920              	.LCFI84:
 921              	 .cfi_def_cfa_register 13
 922              	 
 923 003c 80BD     	 pop {r7,pc}
 924              	 .cfi_endproc
 925              	.LFE14:
 927 003e 00BF     	 .section .text.skipAlpha,"ax",%progbits
 928              	 .align 2
 929              	 .thumb
 930              	 .thumb_func
 932              	skipAlpha:
 933              	.LFB15:
 228:../Libraries/libscpi/src/lexer.c **** 
 229:../Libraries/libscpi/src/lexer.c **** /**
 230:../Libraries/libscpi/src/lexer.c ****  * Skip any character from 'a'-'Z'
 231:../Libraries/libscpi/src/lexer.c ****  * @param state
 232:../Libraries/libscpi/src/lexer.c ****  * @return 
 233:../Libraries/libscpi/src/lexer.c ****  */
 234:../Libraries/libscpi/src/lexer.c **** static int skipAlpha(lex_state_t * state) {
 934              	 .loc 1 234 0
 935              	 .cfi_startproc
 936              	 
 937              	 
 938 0000 80B5     	 push {r7,lr}
 939              	.LCFI85:
 940              	 .cfi_def_cfa_offset 8
 941              	 .cfi_offset 7,-8
 942              	 .cfi_offset 14,-4
 943 0002 84B0     	 sub sp,sp,#16
 944              	.LCFI86:
 945              	 .cfi_def_cfa_offset 24
 946 0004 00AF     	 add r7,sp,#0
 947              	.LCFI87:
 948              	 .cfi_def_cfa_register 7
 949 0006 7860     	 str r0,[r7,#4]
 235:../Libraries/libscpi/src/lexer.c ****     int someLetters = 0;
 950              	 .loc 1 235 0
 951 0008 0023     	 movs r3,#0
 952 000a FB60     	 str r3,[r7,#12]
 236:../Libraries/libscpi/src/lexer.c ****     while (!iseos(state) && isalpha((uint8_t)(state->pos[0]))) {
 953              	 .loc 1 236 0
 954 000c 07E0     	 b .L66
 955              	.L68:
 237:../Libraries/libscpi/src/lexer.c ****         state->pos++;
 956              	 .loc 1 237 0
 957 000e 7B68     	 ldr r3,[r7,#4]
 958 0010 5B68     	 ldr r3,[r3,#4]
 959 0012 5A1C     	 adds r2,r3,#1
 960 0014 7B68     	 ldr r3,[r7,#4]
 961 0016 5A60     	 str r2,[r3,#4]
 238:../Libraries/libscpi/src/lexer.c ****         someLetters++;
 962              	 .loc 1 238 0
 963 0018 FB68     	 ldr r3,[r7,#12]
 964 001a 0133     	 adds r3,r3,#1
 965 001c FB60     	 str r3,[r7,#12]
 966              	.L66:
 236:../Libraries/libscpi/src/lexer.c ****     while (!iseos(state) && isalpha((uint8_t)(state->pos[0]))) {
 967              	 .loc 1 236 0
 968 001e 7868     	 ldr r0,[r7,#4]
 969 0020 FFF7FEFF 	 bl iseos
 970 0024 0346     	 mov r3,r0
 971 0026 002B     	 cmp r3,#0
 972 0028 0BD1     	 bne .L67
 236:../Libraries/libscpi/src/lexer.c ****     while (!iseos(state) && isalpha((uint8_t)(state->pos[0]))) {
 973              	 .loc 1 236 0 is_stmt 0 discriminator 1
 974 002a 084B     	 ldr r3,.L70
 975 002c 1A68     	 ldr r2,[r3]
 976 002e 7B68     	 ldr r3,[r7,#4]
 977 0030 5B68     	 ldr r3,[r3,#4]
 978 0032 1B78     	 ldrb r3,[r3]
 979 0034 0133     	 adds r3,r3,#1
 980 0036 1344     	 add r3,r3,r2
 981 0038 1B78     	 ldrb r3,[r3]
 982 003a 03F00303 	 and r3,r3,#3
 983 003e 002B     	 cmp r3,#0
 984 0040 E5D1     	 bne .L68
 985              	.L67:
 239:../Libraries/libscpi/src/lexer.c ****     }
 240:../Libraries/libscpi/src/lexer.c ****     return someLetters;
 986              	 .loc 1 240 0 is_stmt 1
 987 0042 FB68     	 ldr r3,[r7,#12]
 241:../Libraries/libscpi/src/lexer.c **** }
 988              	 .loc 1 241 0
 989 0044 1846     	 mov r0,r3
 990 0046 1037     	 adds r7,r7,#16
 991              	.LCFI88:
 992              	 .cfi_def_cfa_offset 8
 993 0048 BD46     	 mov sp,r7
 994              	.LCFI89:
 995              	 .cfi_def_cfa_register 13
 996              	 
 997 004a 80BD     	 pop {r7,pc}
 998              	.L71:
 999              	 .align 2
 1000              	.L70:
 1001 004c 00000000 	 .word __ctype_ptr__
 1002              	 .cfi_endproc
 1003              	.LFE15:
 1005              	 .section .text.skipChr,"ax",%progbits
 1006              	 .align 2
 1007              	 .thumb
 1008              	 .thumb_func
 1010              	skipChr:
 1011              	.LFB16:
 242:../Libraries/libscpi/src/lexer.c **** 
 243:../Libraries/libscpi/src/lexer.c **** /**
 244:../Libraries/libscpi/src/lexer.c ****  * Skip exact character chr or nothing
 245:../Libraries/libscpi/src/lexer.c ****  * @param state
 246:../Libraries/libscpi/src/lexer.c ****  * @param chr
 247:../Libraries/libscpi/src/lexer.c ****  * @return 
 248:../Libraries/libscpi/src/lexer.c ****  */
 249:../Libraries/libscpi/src/lexer.c **** static int skipChr(lex_state_t * state, char chr) {
 1012              	 .loc 1 249 0
 1013              	 .cfi_startproc
 1014              	 
 1015              	 
 1016 0000 80B5     	 push {r7,lr}
 1017              	.LCFI90:
 1018              	 .cfi_def_cfa_offset 8
 1019              	 .cfi_offset 7,-8
 1020              	 .cfi_offset 14,-4
 1021 0002 82B0     	 sub sp,sp,#8
 1022              	.LCFI91:
 1023              	 .cfi_def_cfa_offset 16
 1024 0004 00AF     	 add r7,sp,#0
 1025              	.LCFI92:
 1026              	 .cfi_def_cfa_register 7
 1027 0006 7860     	 str r0,[r7,#4]
 1028 0008 0B46     	 mov r3,r1
 1029 000a FB70     	 strb r3,[r7,#3]
 250:../Libraries/libscpi/src/lexer.c ****     if (!iseos(state) && ischr(state, chr)) {
 1030              	 .loc 1 250 0
 1031 000c 7868     	 ldr r0,[r7,#4]
 1032 000e FFF7FEFF 	 bl iseos
 1033 0012 0346     	 mov r3,r0
 1034 0014 002B     	 cmp r3,#0
 1035 0016 0ED1     	 bne .L73
 1036              	 .loc 1 250 0 is_stmt 0 discriminator 1
 1037 0018 FB78     	 ldrb r3,[r7,#3]
 1038 001a 7868     	 ldr r0,[r7,#4]
 1039 001c 1946     	 mov r1,r3
 1040 001e FFF7FEFF 	 bl ischr
 1041 0022 0346     	 mov r3,r0
 1042 0024 002B     	 cmp r3,#0
 1043 0026 06D0     	 beq .L73
 251:../Libraries/libscpi/src/lexer.c ****         state->pos++;
 1044              	 .loc 1 251 0 is_stmt 1
 1045 0028 7B68     	 ldr r3,[r7,#4]
 1046 002a 5B68     	 ldr r3,[r3,#4]
 1047 002c 5A1C     	 adds r2,r3,#1
 1048 002e 7B68     	 ldr r3,[r7,#4]
 1049 0030 5A60     	 str r2,[r3,#4]
 252:../Libraries/libscpi/src/lexer.c ****         return SKIP_OK;
 1050              	 .loc 1 252 0
 1051 0032 0123     	 movs r3,#1
 1052 0034 00E0     	 b .L74
 1053              	.L73:
 253:../Libraries/libscpi/src/lexer.c ****     } else {
 254:../Libraries/libscpi/src/lexer.c ****         return SKIP_NONE;
 1054              	 .loc 1 254 0
 1055 0036 0023     	 movs r3,#0
 1056              	.L74:
 255:../Libraries/libscpi/src/lexer.c ****     }
 256:../Libraries/libscpi/src/lexer.c **** }
 1057              	 .loc 1 256 0
 1058 0038 1846     	 mov r0,r3
 1059 003a 0837     	 adds r7,r7,#8
 1060              	.LCFI93:
 1061              	 .cfi_def_cfa_offset 8
 1062 003c BD46     	 mov sp,r7
 1063              	.LCFI94:
 1064              	 .cfi_def_cfa_register 13
 1065              	 
 1066 003e 80BD     	 pop {r7,pc}
 1067              	 .cfi_endproc
 1068              	.LFE16:
 1070              	 .section .text.skipSlashDot,"ax",%progbits
 1071              	 .align 2
 1072              	 .thumb
 1073              	 .thumb_func
 1075              	skipSlashDot:
 1076              	.LFB17:
 257:../Libraries/libscpi/src/lexer.c **** 
 258:../Libraries/libscpi/src/lexer.c **** /**
 259:../Libraries/libscpi/src/lexer.c ****  * Skip slash or dot
 260:../Libraries/libscpi/src/lexer.c ****  * @param state
 261:../Libraries/libscpi/src/lexer.c ****  * @return 
 262:../Libraries/libscpi/src/lexer.c ****  */
 263:../Libraries/libscpi/src/lexer.c **** static int skipSlashDot(lex_state_t * state) {
 1077              	 .loc 1 263 0
 1078              	 .cfi_startproc
 1079              	 
 1080              	 
 1081 0000 90B5     	 push {r4,r7,lr}
 1082              	.LCFI95:
 1083              	 .cfi_def_cfa_offset 12
 1084              	 .cfi_offset 4,-12
 1085              	 .cfi_offset 7,-8
 1086              	 .cfi_offset 14,-4
 1087 0002 83B0     	 sub sp,sp,#12
 1088              	.LCFI96:
 1089              	 .cfi_def_cfa_offset 24
 1090 0004 00AF     	 add r7,sp,#0
 1091              	.LCFI97:
 1092              	 .cfi_def_cfa_register 7
 1093 0006 7860     	 str r0,[r7,#4]
 264:../Libraries/libscpi/src/lexer.c ****     if (!iseos(state) && (ischr(state, '/') | ischr(state, '.'))) {
 1094              	 .loc 1 264 0
 1095 0008 7868     	 ldr r0,[r7,#4]
 1096 000a FFF7FEFF 	 bl iseos
 1097 000e 0346     	 mov r3,r0
 1098 0010 002B     	 cmp r3,#0
 1099 0012 13D1     	 bne .L76
 1100              	 .loc 1 264 0 is_stmt 0 discriminator 1
 1101 0014 7868     	 ldr r0,[r7,#4]
 1102 0016 2F21     	 movs r1,#47
 1103 0018 FFF7FEFF 	 bl ischr
 1104 001c 0446     	 mov r4,r0
 1105 001e 7868     	 ldr r0,[r7,#4]
 1106 0020 2E21     	 movs r1,#46
 1107 0022 FFF7FEFF 	 bl ischr
 1108 0026 0346     	 mov r3,r0
 1109 0028 2343     	 orrs r3,r3,r4
 1110 002a 002B     	 cmp r3,#0
 1111 002c 06D0     	 beq .L76
 265:../Libraries/libscpi/src/lexer.c ****         state->pos++;
 1112              	 .loc 1 265 0 is_stmt 1
 1113 002e 7B68     	 ldr r3,[r7,#4]
 1114 0030 5B68     	 ldr r3,[r3,#4]
 1115 0032 5A1C     	 adds r2,r3,#1
 1116 0034 7B68     	 ldr r3,[r7,#4]
 1117 0036 5A60     	 str r2,[r3,#4]
 266:../Libraries/libscpi/src/lexer.c ****         return SKIP_OK;
 1118              	 .loc 1 266 0
 1119 0038 0123     	 movs r3,#1
 1120 003a 00E0     	 b .L77
 1121              	.L76:
 267:../Libraries/libscpi/src/lexer.c ****     } else {
 268:../Libraries/libscpi/src/lexer.c ****         return SKIP_NONE;
 1122              	 .loc 1 268 0
 1123 003c 0023     	 movs r3,#0
 1124              	.L77:
 269:../Libraries/libscpi/src/lexer.c ****     }
 270:../Libraries/libscpi/src/lexer.c **** }
 1125              	 .loc 1 270 0
 1126 003e 1846     	 mov r0,r3
 1127 0040 0C37     	 adds r7,r7,#12
 1128              	.LCFI98:
 1129              	 .cfi_def_cfa_offset 12
 1130 0042 BD46     	 mov sp,r7
 1131              	.LCFI99:
 1132              	 .cfi_def_cfa_register 13
 1133              	 
 1134 0044 90BD     	 pop {r4,r7,pc}
 1135              	 .cfi_endproc
 1136              	.LFE17:
 1138 0046 00BF     	 .section .text.skipStar,"ax",%progbits
 1139              	 .align 2
 1140              	 .thumb
 1141              	 .thumb_func
 1143              	skipStar:
 1144              	.LFB18:
 271:../Libraries/libscpi/src/lexer.c **** 
 272:../Libraries/libscpi/src/lexer.c **** /**
 273:../Libraries/libscpi/src/lexer.c ****  * Skip star
 274:../Libraries/libscpi/src/lexer.c ****  * @param state
 275:../Libraries/libscpi/src/lexer.c ****  * @return 
 276:../Libraries/libscpi/src/lexer.c ****  */
 277:../Libraries/libscpi/src/lexer.c **** static int skipStar(lex_state_t * state) {
 1145              	 .loc 1 277 0
 1146              	 .cfi_startproc
 1147              	 
 1148              	 
 1149 0000 80B5     	 push {r7,lr}
 1150              	.LCFI100:
 1151              	 .cfi_def_cfa_offset 8
 1152              	 .cfi_offset 7,-8
 1153              	 .cfi_offset 14,-4
 1154 0002 82B0     	 sub sp,sp,#8
 1155              	.LCFI101:
 1156              	 .cfi_def_cfa_offset 16
 1157 0004 00AF     	 add r7,sp,#0
 1158              	.LCFI102:
 1159              	 .cfi_def_cfa_register 7
 1160 0006 7860     	 str r0,[r7,#4]
 278:../Libraries/libscpi/src/lexer.c ****     if (!iseos(state) && ischr(state, '*')) {
 1161              	 .loc 1 278 0
 1162 0008 7868     	 ldr r0,[r7,#4]
 1163 000a FFF7FEFF 	 bl iseos
 1164 000e 0346     	 mov r3,r0
 1165 0010 002B     	 cmp r3,#0
 1166 0012 0DD1     	 bne .L79
 1167              	 .loc 1 278 0 is_stmt 0 discriminator 1
 1168 0014 7868     	 ldr r0,[r7,#4]
 1169 0016 2A21     	 movs r1,#42
 1170 0018 FFF7FEFF 	 bl ischr
 1171 001c 0346     	 mov r3,r0
 1172 001e 002B     	 cmp r3,#0
 1173 0020 06D0     	 beq .L79
 279:../Libraries/libscpi/src/lexer.c ****         state->pos++;
 1174              	 .loc 1 279 0 is_stmt 1
 1175 0022 7B68     	 ldr r3,[r7,#4]
 1176 0024 5B68     	 ldr r3,[r3,#4]
 1177 0026 5A1C     	 adds r2,r3,#1
 1178 0028 7B68     	 ldr r3,[r7,#4]
 1179 002a 5A60     	 str r2,[r3,#4]
 280:../Libraries/libscpi/src/lexer.c ****         return SKIP_OK;
 1180              	 .loc 1 280 0
 1181 002c 0123     	 movs r3,#1
 1182 002e 00E0     	 b .L80
 1183              	.L79:
 281:../Libraries/libscpi/src/lexer.c ****     } else {
 282:../Libraries/libscpi/src/lexer.c ****         return SKIP_NONE;
 1184              	 .loc 1 282 0
 1185 0030 0023     	 movs r3,#0
 1186              	.L80:
 283:../Libraries/libscpi/src/lexer.c ****     }
 284:../Libraries/libscpi/src/lexer.c **** }
 1187              	 .loc 1 284 0
 1188 0032 1846     	 mov r0,r3
 1189 0034 0837     	 adds r7,r7,#8
 1190              	.LCFI103:
 1191              	 .cfi_def_cfa_offset 8
 1192 0036 BD46     	 mov sp,r7
 1193              	.LCFI104:
 1194              	 .cfi_def_cfa_register 13
 1195              	 
 1196 0038 80BD     	 pop {r7,pc}
 1197              	 .cfi_endproc
 1198              	.LFE18:
 1200 003a 00BF     	 .section .text.skipColon,"ax",%progbits
 1201              	 .align 2
 1202              	 .thumb
 1203              	 .thumb_func
 1205              	skipColon:
 1206              	.LFB19:
 285:../Libraries/libscpi/src/lexer.c **** 
 286:../Libraries/libscpi/src/lexer.c **** /**
 287:../Libraries/libscpi/src/lexer.c ****  * Skip colon
 288:../Libraries/libscpi/src/lexer.c ****  * @param state
 289:../Libraries/libscpi/src/lexer.c ****  * @return 
 290:../Libraries/libscpi/src/lexer.c ****  */
 291:../Libraries/libscpi/src/lexer.c **** static int skipColon(lex_state_t * state) {
 1207              	 .loc 1 291 0
 1208              	 .cfi_startproc
 1209              	 
 1210              	 
 1211 0000 80B5     	 push {r7,lr}
 1212              	.LCFI105:
 1213              	 .cfi_def_cfa_offset 8
 1214              	 .cfi_offset 7,-8
 1215              	 .cfi_offset 14,-4
 1216 0002 82B0     	 sub sp,sp,#8
 1217              	.LCFI106:
 1218              	 .cfi_def_cfa_offset 16
 1219 0004 00AF     	 add r7,sp,#0
 1220              	.LCFI107:
 1221              	 .cfi_def_cfa_register 7
 1222 0006 7860     	 str r0,[r7,#4]
 292:../Libraries/libscpi/src/lexer.c ****     if (!iseos(state) && ischr(state, ':')) {
 1223              	 .loc 1 292 0
 1224 0008 7868     	 ldr r0,[r7,#4]
 1225 000a FFF7FEFF 	 bl iseos
 1226 000e 0346     	 mov r3,r0
 1227 0010 002B     	 cmp r3,#0
 1228 0012 0DD1     	 bne .L82
 1229              	 .loc 1 292 0 is_stmt 0 discriminator 1
 1230 0014 7868     	 ldr r0,[r7,#4]
 1231 0016 3A21     	 movs r1,#58
 1232 0018 FFF7FEFF 	 bl ischr
 1233 001c 0346     	 mov r3,r0
 1234 001e 002B     	 cmp r3,#0
 1235 0020 06D0     	 beq .L82
 293:../Libraries/libscpi/src/lexer.c ****         state->pos++;
 1236              	 .loc 1 293 0 is_stmt 1
 1237 0022 7B68     	 ldr r3,[r7,#4]
 1238 0024 5B68     	 ldr r3,[r3,#4]
 1239 0026 5A1C     	 adds r2,r3,#1
 1240 0028 7B68     	 ldr r3,[r7,#4]
 1241 002a 5A60     	 str r2,[r3,#4]
 294:../Libraries/libscpi/src/lexer.c ****         return SKIP_OK;
 1242              	 .loc 1 294 0
 1243 002c 0123     	 movs r3,#1
 1244 002e 00E0     	 b .L83
 1245              	.L82:
 295:../Libraries/libscpi/src/lexer.c ****     } else {
 296:../Libraries/libscpi/src/lexer.c ****         return SKIP_NONE;
 1246              	 .loc 1 296 0
 1247 0030 0023     	 movs r3,#0
 1248              	.L83:
 297:../Libraries/libscpi/src/lexer.c ****     }
 298:../Libraries/libscpi/src/lexer.c **** }
 1249              	 .loc 1 298 0
 1250 0032 1846     	 mov r0,r3
 1251 0034 0837     	 adds r7,r7,#8
 1252              	.LCFI108:
 1253              	 .cfi_def_cfa_offset 8
 1254 0036 BD46     	 mov sp,r7
 1255              	.LCFI109:
 1256              	 .cfi_def_cfa_register 13
 1257              	 
 1258 0038 80BD     	 pop {r7,pc}
 1259              	 .cfi_endproc
 1260              	.LFE19:
 1262 003a 00BF     	 .section .text.skipProgramMnemonic,"ax",%progbits
 1263              	 .align 2
 1264              	 .thumb
 1265              	 .thumb_func
 1267              	skipProgramMnemonic:
 1268              	.LFB20:
 299:../Libraries/libscpi/src/lexer.c **** 
 300:../Libraries/libscpi/src/lexer.c **** /* 7.6.1.2 <COMMAND PROGRAM HEADER> */
 301:../Libraries/libscpi/src/lexer.c **** 
 302:../Libraries/libscpi/src/lexer.c **** /**
 303:../Libraries/libscpi/src/lexer.c ****  * Skip program mnemonic [a-z][a-z0-9_]*
 304:../Libraries/libscpi/src/lexer.c ****  * @param state
 305:../Libraries/libscpi/src/lexer.c ****  * @return 
 306:../Libraries/libscpi/src/lexer.c ****  */
 307:../Libraries/libscpi/src/lexer.c **** static int skipProgramMnemonic(lex_state_t * state) {
 1269              	 .loc 1 307 0
 1270              	 .cfi_startproc
 1271              	 
 1272              	 
 1273 0000 80B5     	 push {r7,lr}
 1274              	.LCFI110:
 1275              	 .cfi_def_cfa_offset 8
 1276              	 .cfi_offset 7,-8
 1277              	 .cfi_offset 14,-4
 1278 0002 84B0     	 sub sp,sp,#16
 1279              	.LCFI111:
 1280              	 .cfi_def_cfa_offset 24
 1281 0004 00AF     	 add r7,sp,#0
 1282              	.LCFI112:
 1283              	 .cfi_def_cfa_register 7
 1284 0006 7860     	 str r0,[r7,#4]
 308:../Libraries/libscpi/src/lexer.c ****     const char * startPos = state->pos;
 1285              	 .loc 1 308 0
 1286 0008 7B68     	 ldr r3,[r7,#4]
 1287 000a 5B68     	 ldr r3,[r3,#4]
 1288 000c FB60     	 str r3,[r7,#12]
 309:../Libraries/libscpi/src/lexer.c ****     if (!iseos(state) && isalpha((uint8_t)(state->pos[0]))) {
 1289              	 .loc 1 309 0
 1290 000e 7868     	 ldr r0,[r7,#4]
 1291 0010 FFF7FEFF 	 bl iseos
 1292 0014 0346     	 mov r3,r0
 1293 0016 002B     	 cmp r3,#0
 1294 0018 2FD1     	 bne .L85
 1295              	 .loc 1 309 0 is_stmt 0 discriminator 1
 1296 001a 224B     	 ldr r3,.L90
 1297 001c 1A68     	 ldr r2,[r3]
 1298 001e 7B68     	 ldr r3,[r7,#4]
 1299 0020 5B68     	 ldr r3,[r3,#4]
 1300 0022 1B78     	 ldrb r3,[r3]
 1301 0024 0133     	 adds r3,r3,#1
 1302 0026 1344     	 add r3,r3,r2
 1303 0028 1B78     	 ldrb r3,[r3]
 1304 002a 03F00303 	 and r3,r3,#3
 1305 002e 002B     	 cmp r3,#0
 1306 0030 23D0     	 beq .L85
 310:../Libraries/libscpi/src/lexer.c ****         state->pos++;
 1307              	 .loc 1 310 0 is_stmt 1
 1308 0032 7B68     	 ldr r3,[r7,#4]
 1309 0034 5B68     	 ldr r3,[r3,#4]
 1310 0036 5A1C     	 adds r2,r3,#1
 1311 0038 7B68     	 ldr r3,[r7,#4]
 1312 003a 5A60     	 str r2,[r3,#4]
 311:../Libraries/libscpi/src/lexer.c ****         while (!iseos(state) && (isalnum((uint8_t)(state->pos[0])) || ischr(state, '_'))) {
 1313              	 .loc 1 311 0
 1314 003c 04E0     	 b .L86
 1315              	.L87:
 312:../Libraries/libscpi/src/lexer.c ****             state->pos++;
 1316              	 .loc 1 312 0
 1317 003e 7B68     	 ldr r3,[r7,#4]
 1318 0040 5B68     	 ldr r3,[r3,#4]
 1319 0042 5A1C     	 adds r2,r3,#1
 1320 0044 7B68     	 ldr r3,[r7,#4]
 1321 0046 5A60     	 str r2,[r3,#4]
 1322              	.L86:
 311:../Libraries/libscpi/src/lexer.c ****         while (!iseos(state) && (isalnum((uint8_t)(state->pos[0])) || ischr(state, '_'))) {
 1323              	 .loc 1 311 0
 1324 0048 7868     	 ldr r0,[r7,#4]
 1325 004a FFF7FEFF 	 bl iseos
 1326 004e 0346     	 mov r3,r0
 1327 0050 002B     	 cmp r3,#0
 1328 0052 12D1     	 bne .L85
 311:../Libraries/libscpi/src/lexer.c ****         while (!iseos(state) && (isalnum((uint8_t)(state->pos[0])) || ischr(state, '_'))) {
 1329              	 .loc 1 311 0 is_stmt 0 discriminator 1
 1330 0054 134B     	 ldr r3,.L90
 1331 0056 1A68     	 ldr r2,[r3]
 1332 0058 7B68     	 ldr r3,[r7,#4]
 1333 005a 5B68     	 ldr r3,[r3,#4]
 1334 005c 1B78     	 ldrb r3,[r3]
 1335 005e 0133     	 adds r3,r3,#1
 1336 0060 1344     	 add r3,r3,r2
 1337 0062 1B78     	 ldrb r3,[r3]
 1338 0064 03F00703 	 and r3,r3,#7
 1339 0068 002B     	 cmp r3,#0
 1340 006a E8D1     	 bne .L87
 311:../Libraries/libscpi/src/lexer.c ****         while (!iseos(state) && (isalnum((uint8_t)(state->pos[0])) || ischr(state, '_'))) {
 1341              	 .loc 1 311 0 discriminator 2
 1342 006c 7868     	 ldr r0,[r7,#4]
 1343 006e 5F21     	 movs r1,#95
 1344 0070 FFF7FEFF 	 bl ischr
 1345 0074 0346     	 mov r3,r0
 1346 0076 002B     	 cmp r3,#0
 1347 0078 E1D1     	 bne .L87
 1348              	.L85:
 313:../Libraries/libscpi/src/lexer.c ****         }
 314:../Libraries/libscpi/src/lexer.c ****     }
 315:../Libraries/libscpi/src/lexer.c **** 
 316:../Libraries/libscpi/src/lexer.c ****     if (iseos(state)) {
 1349              	 .loc 1 316 0 is_stmt 1
 1350 007a 7868     	 ldr r0,[r7,#4]
 1351 007c FFF7FEFF 	 bl iseos
 1352 0080 0346     	 mov r3,r0
 1353 0082 002B     	 cmp r3,#0
 1354 0084 04D0     	 beq .L88
 317:../Libraries/libscpi/src/lexer.c ****         return (state->pos - startPos) * SKIP_INCOMPLETE;
 1355              	 .loc 1 317 0
 1356 0086 FB68     	 ldr r3,[r7,#12]
 1357 0088 7A68     	 ldr r2,[r7,#4]
 1358 008a 5268     	 ldr r2,[r2,#4]
 1359 008c 9B1A     	 subs r3,r3,r2
 1360 008e 04E0     	 b .L89
 1361              	.L88:
 318:../Libraries/libscpi/src/lexer.c ****     } else {
 319:../Libraries/libscpi/src/lexer.c ****         return (state->pos - startPos) * SKIP_OK;
 1362              	 .loc 1 319 0
 1363 0090 7B68     	 ldr r3,[r7,#4]
 1364 0092 5B68     	 ldr r3,[r3,#4]
 1365 0094 1A46     	 mov r2,r3
 1366 0096 FB68     	 ldr r3,[r7,#12]
 1367 0098 D31A     	 subs r3,r2,r3
 1368              	.L89:
 320:../Libraries/libscpi/src/lexer.c ****     }
 321:../Libraries/libscpi/src/lexer.c **** }
 1369              	 .loc 1 321 0
 1370 009a 1846     	 mov r0,r3
 1371 009c 1037     	 adds r7,r7,#16
 1372              	.LCFI113:
 1373              	 .cfi_def_cfa_offset 8
 1374 009e BD46     	 mov sp,r7
 1375              	.LCFI114:
 1376              	 .cfi_def_cfa_register 13
 1377              	 
 1378 00a0 80BD     	 pop {r7,pc}
 1379              	.L91:
 1380 00a2 00BF     	 .align 2
 1381              	.L90:
 1382 00a4 00000000 	 .word __ctype_ptr__
 1383              	 .cfi_endproc
 1384              	.LFE20:
 1386              	 .section .text.scpiLex_WhiteSpace,"ax",%progbits
 1387              	 .align 2
 1388              	 .global scpiLex_WhiteSpace
 1389              	 .hidden scpiLex_WhiteSpace
 1390              	 .thumb
 1391              	 .thumb_func
 1393              	scpiLex_WhiteSpace:
 1394              	.LFB21:
 322:../Libraries/libscpi/src/lexer.c **** 
 323:../Libraries/libscpi/src/lexer.c **** /* tokens */
 324:../Libraries/libscpi/src/lexer.c **** 
 325:../Libraries/libscpi/src/lexer.c **** /**
 326:../Libraries/libscpi/src/lexer.c ****  * Detect token white space
 327:../Libraries/libscpi/src/lexer.c ****  * @param state
 328:../Libraries/libscpi/src/lexer.c ****  * @param token
 329:../Libraries/libscpi/src/lexer.c ****  * @return 
 330:../Libraries/libscpi/src/lexer.c ****  */
 331:../Libraries/libscpi/src/lexer.c **** int scpiLex_WhiteSpace(lex_state_t * state, scpi_token_t * token) {
 1395              	 .loc 1 331 0
 1396              	 .cfi_startproc
 1397              	 
 1398              	 
 1399 0000 80B5     	 push {r7,lr}
 1400              	.LCFI115:
 1401              	 .cfi_def_cfa_offset 8
 1402              	 .cfi_offset 7,-8
 1403              	 .cfi_offset 14,-4
 1404 0002 82B0     	 sub sp,sp,#8
 1405              	.LCFI116:
 1406              	 .cfi_def_cfa_offset 16
 1407 0004 00AF     	 add r7,sp,#0
 1408              	.LCFI117:
 1409              	 .cfi_def_cfa_register 7
 1410 0006 7860     	 str r0,[r7,#4]
 1411 0008 3960     	 str r1,[r7]
 332:../Libraries/libscpi/src/lexer.c ****     token->ptr = state->pos;
 1412              	 .loc 1 332 0
 1413 000a 7B68     	 ldr r3,[r7,#4]
 1414 000c 5A68     	 ldr r2,[r3,#4]
 1415 000e 3B68     	 ldr r3,[r7]
 1416 0010 5A60     	 str r2,[r3,#4]
 333:../Libraries/libscpi/src/lexer.c **** 
 334:../Libraries/libscpi/src/lexer.c ****     skipWs(state);
 1417              	 .loc 1 334 0
 1418 0012 7868     	 ldr r0,[r7,#4]
 1419 0014 FFF7FEFF 	 bl skipWs
 335:../Libraries/libscpi/src/lexer.c **** 
 336:../Libraries/libscpi/src/lexer.c ****     token->len = state->pos - token->ptr;
 1420              	 .loc 1 336 0
 1421 0018 7B68     	 ldr r3,[r7,#4]
 1422 001a 5B68     	 ldr r3,[r3,#4]
 1423 001c 1A46     	 mov r2,r3
 1424 001e 3B68     	 ldr r3,[r7]
 1425 0020 5B68     	 ldr r3,[r3,#4]
 1426 0022 D21A     	 subs r2,r2,r3
 1427 0024 3B68     	 ldr r3,[r7]
 1428 0026 9A60     	 str r2,[r3,#8]
 337:../Libraries/libscpi/src/lexer.c **** 
 338:../Libraries/libscpi/src/lexer.c ****     if (token->len > 0) {
 1429              	 .loc 1 338 0
 1430 0028 3B68     	 ldr r3,[r7]
 1431 002a 9B68     	 ldr r3,[r3,#8]
 1432 002c 002B     	 cmp r3,#0
 1433 002e 03DD     	 ble .L93
 339:../Libraries/libscpi/src/lexer.c ****         token->type = SCPI_TOKEN_WS;
 1434              	 .loc 1 339 0
 1435 0030 3B68     	 ldr r3,[r7]
 1436 0032 1722     	 movs r2,#23
 1437 0034 1A70     	 strb r2,[r3]
 1438 0036 02E0     	 b .L94
 1439              	.L93:
 340:../Libraries/libscpi/src/lexer.c ****     } else {
 341:../Libraries/libscpi/src/lexer.c ****         token->type = SCPI_TOKEN_UNKNOWN;
 1440              	 .loc 1 341 0
 1441 0038 3B68     	 ldr r3,[r7]
 1442 003a 1A22     	 movs r2,#26
 1443 003c 1A70     	 strb r2,[r3]
 1444              	.L94:
 342:../Libraries/libscpi/src/lexer.c ****     }
 343:../Libraries/libscpi/src/lexer.c **** 
 344:../Libraries/libscpi/src/lexer.c ****     return token->len;
 1445              	 .loc 1 344 0
 1446 003e 3B68     	 ldr r3,[r7]
 1447 0040 9B68     	 ldr r3,[r3,#8]
 345:../Libraries/libscpi/src/lexer.c **** }
 1448              	 .loc 1 345 0
 1449 0042 1846     	 mov r0,r3
 1450 0044 0837     	 adds r7,r7,#8
 1451              	.LCFI118:
 1452              	 .cfi_def_cfa_offset 8
 1453 0046 BD46     	 mov sp,r7
 1454              	.LCFI119:
 1455              	 .cfi_def_cfa_register 13
 1456              	 
 1457 0048 80BD     	 pop {r7,pc}
 1458              	 .cfi_endproc
 1459              	.LFE21:
 1461 004a 00BF     	 .section .text.skipCommonProgramHeader,"ax",%progbits
 1462              	 .align 2
 1463              	 .thumb
 1464              	 .thumb_func
 1466              	skipCommonProgramHeader:
 1467              	.LFB22:
 346:../Libraries/libscpi/src/lexer.c **** 
 347:../Libraries/libscpi/src/lexer.c **** /* 7.6.1 <COMMAND PROGRAM HEADER> */
 348:../Libraries/libscpi/src/lexer.c **** 
 349:../Libraries/libscpi/src/lexer.c **** /**
 350:../Libraries/libscpi/src/lexer.c ****  * Skip command program header \*<PROGRAM MNEMONIC>
 351:../Libraries/libscpi/src/lexer.c ****  * @param state
 352:../Libraries/libscpi/src/lexer.c ****  * @return 
 353:../Libraries/libscpi/src/lexer.c ****  */
 354:../Libraries/libscpi/src/lexer.c **** static int skipCommonProgramHeader(lex_state_t * state) {
 1468              	 .loc 1 354 0
 1469              	 .cfi_startproc
 1470              	 
 1471              	 
 1472 0000 80B5     	 push {r7,lr}
 1473              	.LCFI120:
 1474              	 .cfi_def_cfa_offset 8
 1475              	 .cfi_offset 7,-8
 1476              	 .cfi_offset 14,-4
 1477 0002 84B0     	 sub sp,sp,#16
 1478              	.LCFI121:
 1479              	 .cfi_def_cfa_offset 24
 1480 0004 00AF     	 add r7,sp,#0
 1481              	.LCFI122:
 1482              	 .cfi_def_cfa_register 7
 1483 0006 7860     	 str r0,[r7,#4]
 355:../Libraries/libscpi/src/lexer.c ****     int res;
 356:../Libraries/libscpi/src/lexer.c ****     if (skipStar(state)) {
 1484              	 .loc 1 356 0
 1485 0008 7868     	 ldr r0,[r7,#4]
 1486 000a FFF7FEFF 	 bl skipStar
 1487 000e 0346     	 mov r3,r0
 1488 0010 002B     	 cmp r3,#0
 1489 0012 1CD0     	 beq .L97
 357:../Libraries/libscpi/src/lexer.c ****         res = skipProgramMnemonic(state);
 1490              	 .loc 1 357 0
 1491 0014 7868     	 ldr r0,[r7,#4]
 1492 0016 FFF7FEFF 	 bl skipProgramMnemonic
 1493 001a F860     	 str r0,[r7,#12]
 358:../Libraries/libscpi/src/lexer.c ****         if (res == SKIP_NONE && iseos(state)) {
 1494              	 .loc 1 358 0
 1495 001c FB68     	 ldr r3,[r7,#12]
 1496 001e 002B     	 cmp r3,#0
 1497 0020 08D1     	 bne .L98
 1498              	 .loc 1 358 0 is_stmt 0 discriminator 1
 1499 0022 7868     	 ldr r0,[r7,#4]
 1500 0024 FFF7FEFF 	 bl iseos
 1501 0028 0346     	 mov r3,r0
 1502 002a 002B     	 cmp r3,#0
 1503 002c 02D0     	 beq .L98
 359:../Libraries/libscpi/src/lexer.c ****             return SKIP_INCOMPLETE;
 1504              	 .loc 1 359 0 is_stmt 1
 1505 002e 4FF0FF33 	 mov r3,#-1
 1506 0032 0DE0     	 b .L99
 1507              	.L98:
 360:../Libraries/libscpi/src/lexer.c ****         } else if (res <= SKIP_INCOMPLETE) {
 1508              	 .loc 1 360 0
 1509 0034 FB68     	 ldr r3,[r7,#12]
 1510 0036 002B     	 cmp r3,#0
 1511 0038 01DA     	 bge .L100
 361:../Libraries/libscpi/src/lexer.c ****             return SKIP_OK;
 1512              	 .loc 1 361 0
 1513 003a 0123     	 movs r3,#1
 1514 003c 08E0     	 b .L99
 1515              	.L100:
 362:../Libraries/libscpi/src/lexer.c ****         } else if (res >= SKIP_OK) {
 1516              	 .loc 1 362 0
 1517 003e FB68     	 ldr r3,[r7,#12]
 1518 0040 002B     	 cmp r3,#0
 1519 0042 01DD     	 ble .L101
 363:../Libraries/libscpi/src/lexer.c ****             return SKIP_OK;
 1520              	 .loc 1 363 0
 1521 0044 0123     	 movs r3,#1
 1522 0046 03E0     	 b .L99
 1523              	.L101:
 364:../Libraries/libscpi/src/lexer.c ****         } else {
 365:../Libraries/libscpi/src/lexer.c ****             return SKIP_INCOMPLETE;
 1524              	 .loc 1 365 0
 1525 0048 4FF0FF33 	 mov r3,#-1
 1526 004c 00E0     	 b .L99
 1527              	.L97:
 366:../Libraries/libscpi/src/lexer.c ****         }
 367:../Libraries/libscpi/src/lexer.c ****     }
 368:../Libraries/libscpi/src/lexer.c ****     return SKIP_NONE;
 1528              	 .loc 1 368 0
 1529 004e 0023     	 movs r3,#0
 1530              	.L99:
 369:../Libraries/libscpi/src/lexer.c **** }
 1531              	 .loc 1 369 0
 1532 0050 1846     	 mov r0,r3
 1533 0052 1037     	 adds r7,r7,#16
 1534              	.LCFI123:
 1535              	 .cfi_def_cfa_offset 8
 1536 0054 BD46     	 mov sp,r7
 1537              	.LCFI124:
 1538              	 .cfi_def_cfa_register 13
 1539              	 
 1540 0056 80BD     	 pop {r7,pc}
 1541              	 .cfi_endproc
 1542              	.LFE22:
 1544              	 .section .text.skipCompoundProgramHeader,"ax",%progbits
 1545              	 .align 2
 1546              	 .thumb
 1547              	 .thumb_func
 1549              	skipCompoundProgramHeader:
 1550              	.LFB23:
 370:../Libraries/libscpi/src/lexer.c **** 
 371:../Libraries/libscpi/src/lexer.c **** /**
 372:../Libraries/libscpi/src/lexer.c ****  * Skip compound program header :<PROGRAM MNEMONIC>:<PROGRAM MNEMONIC>...
 373:../Libraries/libscpi/src/lexer.c ****  * @param state
 374:../Libraries/libscpi/src/lexer.c ****  * @return 
 375:../Libraries/libscpi/src/lexer.c ****  */
 376:../Libraries/libscpi/src/lexer.c **** static int skipCompoundProgramHeader(lex_state_t * state) {
 1551              	 .loc 1 376 0
 1552              	 .cfi_startproc
 1553              	 
 1554              	 
 1555 0000 80B5     	 push {r7,lr}
 1556              	.LCFI125:
 1557              	 .cfi_def_cfa_offset 8
 1558              	 .cfi_offset 7,-8
 1559              	 .cfi_offset 14,-4
 1560 0002 84B0     	 sub sp,sp,#16
 1561              	.LCFI126:
 1562              	 .cfi_def_cfa_offset 24
 1563 0004 00AF     	 add r7,sp,#0
 1564              	.LCFI127:
 1565              	 .cfi_def_cfa_register 7
 1566 0006 7860     	 str r0,[r7,#4]
 377:../Libraries/libscpi/src/lexer.c ****     int res;
 378:../Libraries/libscpi/src/lexer.c ****     int firstColon = skipColon(state);
 1567              	 .loc 1 378 0
 1568 0008 7868     	 ldr r0,[r7,#4]
 1569 000a FFF7FEFF 	 bl skipColon
 1570 000e F860     	 str r0,[r7,#12]
 379:../Libraries/libscpi/src/lexer.c **** 
 380:../Libraries/libscpi/src/lexer.c ****     res = skipProgramMnemonic(state);
 1571              	 .loc 1 380 0
 1572 0010 7868     	 ldr r0,[r7,#4]
 1573 0012 FFF7FEFF 	 bl skipProgramMnemonic
 1574 0016 B860     	 str r0,[r7,#8]
 381:../Libraries/libscpi/src/lexer.c ****     if (res >= SKIP_OK) {
 1575              	 .loc 1 381 0
 1576 0018 BB68     	 ldr r3,[r7,#8]
 1577 001a 002B     	 cmp r3,#0
 1578 001c 17DD     	 ble .L103
 382:../Libraries/libscpi/src/lexer.c ****         while (skipColon(state)) {
 1579              	 .loc 1 382 0
 1580 001e 0EE0     	 b .L104
 1581              	.L107:
 383:../Libraries/libscpi/src/lexer.c ****             res = skipProgramMnemonic(state);
 1582              	 .loc 1 383 0
 1583 0020 7868     	 ldr r0,[r7,#4]
 1584 0022 FFF7FEFF 	 bl skipProgramMnemonic
 1585 0026 B860     	 str r0,[r7,#8]
 384:../Libraries/libscpi/src/lexer.c ****             if (res <= SKIP_INCOMPLETE) {
 1586              	 .loc 1 384 0
 1587 0028 BB68     	 ldr r3,[r7,#8]
 1588 002a 002B     	 cmp r3,#0
 1589 002c 01DA     	 bge .L105
 385:../Libraries/libscpi/src/lexer.c ****                 return SKIP_OK;
 1590              	 .loc 1 385 0
 1591 002e 0123     	 movs r3,#1
 1592 0030 19E0     	 b .L106
 1593              	.L105:
 386:../Libraries/libscpi/src/lexer.c ****             } else if (res == SKIP_NONE) {
 1594              	 .loc 1 386 0
 1595 0032 BB68     	 ldr r3,[r7,#8]
 1596 0034 002B     	 cmp r3,#0
 1597 0036 02D1     	 bne .L104
 387:../Libraries/libscpi/src/lexer.c ****                 return SKIP_INCOMPLETE;
 1598              	 .loc 1 387 0
 1599 0038 4FF0FF33 	 mov r3,#-1
 1600 003c 13E0     	 b .L106
 1601              	.L104:
 382:../Libraries/libscpi/src/lexer.c ****             res = skipProgramMnemonic(state);
 1602              	 .loc 1 382 0
 1603 003e 7868     	 ldr r0,[r7,#4]
 1604 0040 FFF7FEFF 	 bl skipColon
 1605 0044 0346     	 mov r3,r0
 1606 0046 002B     	 cmp r3,#0
 1607 0048 EAD1     	 bne .L107
 388:../Libraries/libscpi/src/lexer.c ****             }
 389:../Libraries/libscpi/src/lexer.c ****         }
 390:../Libraries/libscpi/src/lexer.c ****         return SKIP_OK;
 1608              	 .loc 1 390 0
 1609 004a 0123     	 movs r3,#1
 1610 004c 0BE0     	 b .L106
 1611              	.L103:
 391:../Libraries/libscpi/src/lexer.c ****     } else if (res <= SKIP_INCOMPLETE) {
 1612              	 .loc 1 391 0
 1613 004e BB68     	 ldr r3,[r7,#8]
 1614 0050 002B     	 cmp r3,#0
 1615 0052 01DA     	 bge .L108
 392:../Libraries/libscpi/src/lexer.c ****         return SKIP_OK;
 1616              	 .loc 1 392 0
 1617 0054 0123     	 movs r3,#1
 1618 0056 06E0     	 b .L106
 1619              	.L108:
 393:../Libraries/libscpi/src/lexer.c ****     } else if (firstColon) {
 1620              	 .loc 1 393 0
 1621 0058 FB68     	 ldr r3,[r7,#12]
 1622 005a 002B     	 cmp r3,#0
 1623 005c 02D0     	 beq .L109
 394:../Libraries/libscpi/src/lexer.c ****         return SKIP_INCOMPLETE;
 1624              	 .loc 1 394 0
 1625 005e 4FF0FF33 	 mov r3,#-1
 1626 0062 00E0     	 b .L106
 1627              	.L109:
 395:../Libraries/libscpi/src/lexer.c ****     } else {
 396:../Libraries/libscpi/src/lexer.c ****         return SKIP_NONE;
 1628              	 .loc 1 396 0
 1629 0064 0023     	 movs r3,#0
 1630              	.L106:
 397:../Libraries/libscpi/src/lexer.c ****     }
 398:../Libraries/libscpi/src/lexer.c **** }
 1631              	 .loc 1 398 0
 1632 0066 1846     	 mov r0,r3
 1633 0068 1037     	 adds r7,r7,#16
 1634              	.LCFI128:
 1635              	 .cfi_def_cfa_offset 8
 1636 006a BD46     	 mov sp,r7
 1637              	.LCFI129:
 1638              	 .cfi_def_cfa_register 13
 1639              	 
 1640 006c 80BD     	 pop {r7,pc}
 1641              	 .cfi_endproc
 1642              	.LFE23:
 1644 006e 00BF     	 .section .text.scpiLex_ProgramHeader,"ax",%progbits
 1645              	 .align 2
 1646              	 .global scpiLex_ProgramHeader
 1647              	 .hidden scpiLex_ProgramHeader
 1648              	 .thumb
 1649              	 .thumb_func
 1651              	scpiLex_ProgramHeader:
 1652              	.LFB24:
 399:../Libraries/libscpi/src/lexer.c **** 
 400:../Libraries/libscpi/src/lexer.c **** /**
 401:../Libraries/libscpi/src/lexer.c ****  * Detect token command or compound program header
 402:../Libraries/libscpi/src/lexer.c ****  * @param state
 403:../Libraries/libscpi/src/lexer.c ****  * @param token
 404:../Libraries/libscpi/src/lexer.c ****  * @return 
 405:../Libraries/libscpi/src/lexer.c ****  */
 406:../Libraries/libscpi/src/lexer.c **** int scpiLex_ProgramHeader(lex_state_t * state, scpi_token_t * token) {
 1653              	 .loc 1 406 0
 1654              	 .cfi_startproc
 1655              	 
 1656              	 
 1657 0000 80B5     	 push {r7,lr}
 1658              	.LCFI130:
 1659              	 .cfi_def_cfa_offset 8
 1660              	 .cfi_offset 7,-8
 1661              	 .cfi_offset 14,-4
 1662 0002 84B0     	 sub sp,sp,#16
 1663              	.LCFI131:
 1664              	 .cfi_def_cfa_offset 24
 1665 0004 00AF     	 add r7,sp,#0
 1666              	.LCFI132:
 1667              	 .cfi_def_cfa_register 7
 1668 0006 7860     	 str r0,[r7,#4]
 1669 0008 3960     	 str r1,[r7]
 407:../Libraries/libscpi/src/lexer.c ****     int res;
 408:../Libraries/libscpi/src/lexer.c ****     token->ptr = state->pos;
 1670              	 .loc 1 408 0
 1671 000a 7B68     	 ldr r3,[r7,#4]
 1672 000c 5A68     	 ldr r2,[r3,#4]
 1673 000e 3B68     	 ldr r3,[r7]
 1674 0010 5A60     	 str r2,[r3,#4]
 409:../Libraries/libscpi/src/lexer.c ****     token->type = SCPI_TOKEN_UNKNOWN;
 1675              	 .loc 1 409 0
 1676 0012 3B68     	 ldr r3,[r7]
 1677 0014 1A22     	 movs r2,#26
 1678 0016 1A70     	 strb r2,[r3]
 410:../Libraries/libscpi/src/lexer.c **** 
 411:../Libraries/libscpi/src/lexer.c ****     res = skipCommonProgramHeader(state);
 1679              	 .loc 1 411 0
 1680 0018 7868     	 ldr r0,[r7,#4]
 1681 001a FFF7FEFF 	 bl skipCommonProgramHeader
 1682 001e F860     	 str r0,[r7,#12]
 412:../Libraries/libscpi/src/lexer.c ****     if (res >= SKIP_OK) {
 1683              	 .loc 1 412 0
 1684 0020 FB68     	 ldr r3,[r7,#12]
 1685 0022 002B     	 cmp r3,#0
 1686 0024 0EDD     	 ble .L111
 413:../Libraries/libscpi/src/lexer.c ****         if (skipChr(state, '?') >= SKIP_OK) {
 1687              	 .loc 1 413 0
 1688 0026 7868     	 ldr r0,[r7,#4]
 1689 0028 3F21     	 movs r1,#63
 1690 002a FFF7FEFF 	 bl skipChr
 1691 002e 0346     	 mov r3,r0
 1692 0030 002B     	 cmp r3,#0
 1693 0032 03DD     	 ble .L112
 414:../Libraries/libscpi/src/lexer.c ****             token->type = SCPI_TOKEN_COMMON_QUERY_PROGRAM_HEADER;
 1694              	 .loc 1 414 0
 1695 0034 3B68     	 ldr r3,[r7]
 1696 0036 1622     	 movs r2,#22
 1697 0038 1A70     	 strb r2,[r3]
 1698 003a 29E0     	 b .L114
 1699              	.L112:
 415:../Libraries/libscpi/src/lexer.c ****         } else {
 416:../Libraries/libscpi/src/lexer.c ****             token->type = SCPI_TOKEN_COMMON_PROGRAM_HEADER;
 1700              	 .loc 1 416 0
 1701 003c 3B68     	 ldr r3,[r7]
 1702 003e 1322     	 movs r2,#19
 1703 0040 1A70     	 strb r2,[r3]
 1704 0042 25E0     	 b .L114
 1705              	.L111:
 417:../Libraries/libscpi/src/lexer.c ****         }
 418:../Libraries/libscpi/src/lexer.c ****     } else if (res <= SKIP_INCOMPLETE) {
 1706              	 .loc 1 418 0
 1707 0044 FB68     	 ldr r3,[r7,#12]
 1708 0046 002B     	 cmp r3,#0
 1709 0048 03DA     	 bge .L115
 419:../Libraries/libscpi/src/lexer.c ****         token->type = SCPI_TOKEN_INCOMPLETE_COMMON_PROGRAM_HEADER;
 1710              	 .loc 1 419 0
 1711 004a 3B68     	 ldr r3,[r7]
 1712 004c 1422     	 movs r2,#20
 1713 004e 1A70     	 strb r2,[r3]
 1714 0050 1EE0     	 b .L114
 1715              	.L115:
 420:../Libraries/libscpi/src/lexer.c ****     } else if (res == SKIP_NONE) {
 1716              	 .loc 1 420 0
 1717 0052 FB68     	 ldr r3,[r7,#12]
 1718 0054 002B     	 cmp r3,#0
 1719 0056 1BD1     	 bne .L114
 421:../Libraries/libscpi/src/lexer.c ****         res = skipCompoundProgramHeader(state);
 1720              	 .loc 1 421 0
 1721 0058 7868     	 ldr r0,[r7,#4]
 1722 005a FFF7FEFF 	 bl skipCompoundProgramHeader
 1723 005e F860     	 str r0,[r7,#12]
 422:../Libraries/libscpi/src/lexer.c **** 
 423:../Libraries/libscpi/src/lexer.c ****         if (res >= SKIP_OK) {
 1724              	 .loc 1 423 0
 1725 0060 FB68     	 ldr r3,[r7,#12]
 1726 0062 002B     	 cmp r3,#0
 1727 0064 0EDD     	 ble .L116
 424:../Libraries/libscpi/src/lexer.c ****             if (skipChr(state, '?') >= SKIP_OK) {
 1728              	 .loc 1 424 0
 1729 0066 7868     	 ldr r0,[r7,#4]
 1730 0068 3F21     	 movs r1,#63
 1731 006a FFF7FEFF 	 bl skipChr
 1732 006e 0346     	 mov r3,r0
 1733 0070 002B     	 cmp r3,#0
 1734 0072 03DD     	 ble .L117
 425:../Libraries/libscpi/src/lexer.c ****                 token->type = SCPI_TOKEN_COMPOUND_QUERY_PROGRAM_HEADER;
 1735              	 .loc 1 425 0
 1736 0074 3B68     	 ldr r3,[r7]
 1737 0076 1522     	 movs r2,#21
 1738 0078 1A70     	 strb r2,[r3]
 1739 007a 09E0     	 b .L114
 1740              	.L117:
 426:../Libraries/libscpi/src/lexer.c ****             } else {
 427:../Libraries/libscpi/src/lexer.c ****                 token->type = SCPI_TOKEN_COMPOUND_PROGRAM_HEADER;
 1741              	 .loc 1 427 0
 1742 007c 3B68     	 ldr r3,[r7]
 1743 007e 1122     	 movs r2,#17
 1744 0080 1A70     	 strb r2,[r3]
 1745 0082 05E0     	 b .L114
 1746              	.L116:
 428:../Libraries/libscpi/src/lexer.c ****             }
 429:../Libraries/libscpi/src/lexer.c ****         } else if (res <= SKIP_INCOMPLETE) {
 1747              	 .loc 1 429 0
 1748 0084 FB68     	 ldr r3,[r7,#12]
 1749 0086 002B     	 cmp r3,#0
 1750 0088 02DA     	 bge .L114
 430:../Libraries/libscpi/src/lexer.c ****             token->type = SCPI_TOKEN_INCOMPLETE_COMPOUND_PROGRAM_HEADER;
 1751              	 .loc 1 430 0
 1752 008a 3B68     	 ldr r3,[r7]
 1753 008c 1222     	 movs r2,#18
 1754 008e 1A70     	 strb r2,[r3]
 1755              	.L114:
 431:../Libraries/libscpi/src/lexer.c ****         }
 432:../Libraries/libscpi/src/lexer.c ****     }
 433:../Libraries/libscpi/src/lexer.c **** 
 434:../Libraries/libscpi/src/lexer.c ****     if (token->type != SCPI_TOKEN_UNKNOWN) {
 1756              	 .loc 1 434 0
 1757 0090 3B68     	 ldr r3,[r7]
 1758 0092 1B78     	 ldrb r3,[r3]
 1759 0094 1A2B     	 cmp r3,#26
 1760 0096 08D0     	 beq .L119
 435:../Libraries/libscpi/src/lexer.c ****         token->len = state->pos - token->ptr;
 1761              	 .loc 1 435 0
 1762 0098 7B68     	 ldr r3,[r7,#4]
 1763 009a 5B68     	 ldr r3,[r3,#4]
 1764 009c 1A46     	 mov r2,r3
 1765 009e 3B68     	 ldr r3,[r7]
 1766 00a0 5B68     	 ldr r3,[r3,#4]
 1767 00a2 D21A     	 subs r2,r2,r3
 1768 00a4 3B68     	 ldr r3,[r7]
 1769 00a6 9A60     	 str r2,[r3,#8]
 1770 00a8 06E0     	 b .L120
 1771              	.L119:
 436:../Libraries/libscpi/src/lexer.c ****     } else {
 437:../Libraries/libscpi/src/lexer.c ****         token->len = 0;
 1772              	 .loc 1 437 0
 1773 00aa 3B68     	 ldr r3,[r7]
 1774 00ac 0022     	 movs r2,#0
 1775 00ae 9A60     	 str r2,[r3,#8]
 438:../Libraries/libscpi/src/lexer.c ****         state->pos = token->ptr;
 1776              	 .loc 1 438 0
 1777 00b0 3B68     	 ldr r3,[r7]
 1778 00b2 5A68     	 ldr r2,[r3,#4]
 1779 00b4 7B68     	 ldr r3,[r7,#4]
 1780 00b6 5A60     	 str r2,[r3,#4]
 1781              	.L120:
 439:../Libraries/libscpi/src/lexer.c ****     }
 440:../Libraries/libscpi/src/lexer.c **** 
 441:../Libraries/libscpi/src/lexer.c ****     return token->len;
 1782              	 .loc 1 441 0
 1783 00b8 3B68     	 ldr r3,[r7]
 1784 00ba 9B68     	 ldr r3,[r3,#8]
 442:../Libraries/libscpi/src/lexer.c **** }
 1785              	 .loc 1 442 0
 1786 00bc 1846     	 mov r0,r3
 1787 00be 1037     	 adds r7,r7,#16
 1788              	.LCFI133:
 1789              	 .cfi_def_cfa_offset 8
 1790 00c0 BD46     	 mov sp,r7
 1791              	.LCFI134:
 1792              	 .cfi_def_cfa_register 13
 1793              	 
 1794 00c2 80BD     	 pop {r7,pc}
 1795              	 .cfi_endproc
 1796              	.LFE24:
 1798              	 .section .text.scpiLex_CharacterProgramData,"ax",%progbits
 1799              	 .align 2
 1800              	 .global scpiLex_CharacterProgramData
 1801              	 .hidden scpiLex_CharacterProgramData
 1802              	 .thumb
 1803              	 .thumb_func
 1805              	scpiLex_CharacterProgramData:
 1806              	.LFB25:
 443:../Libraries/libscpi/src/lexer.c **** 
 444:../Libraries/libscpi/src/lexer.c **** /* 7.7.1 <CHARACTER PROGRAM DATA> */
 445:../Libraries/libscpi/src/lexer.c **** 
 446:../Libraries/libscpi/src/lexer.c **** /**
 447:../Libraries/libscpi/src/lexer.c ****  * Detect token "Character program data"
 448:../Libraries/libscpi/src/lexer.c ****  * @param state
 449:../Libraries/libscpi/src/lexer.c ****  * @param token
 450:../Libraries/libscpi/src/lexer.c ****  * @return 
 451:../Libraries/libscpi/src/lexer.c ****  */
 452:../Libraries/libscpi/src/lexer.c **** int scpiLex_CharacterProgramData(lex_state_t * state, scpi_token_t * token) {
 1807              	 .loc 1 452 0
 1808              	 .cfi_startproc
 1809              	 
 1810              	 
 1811 0000 80B5     	 push {r7,lr}
 1812              	.LCFI135:
 1813              	 .cfi_def_cfa_offset 8
 1814              	 .cfi_offset 7,-8
 1815              	 .cfi_offset 14,-4
 1816 0002 82B0     	 sub sp,sp,#8
 1817              	.LCFI136:
 1818              	 .cfi_def_cfa_offset 16
 1819 0004 00AF     	 add r7,sp,#0
 1820              	.LCFI137:
 1821              	 .cfi_def_cfa_register 7
 1822 0006 7860     	 str r0,[r7,#4]
 1823 0008 3960     	 str r1,[r7]
 453:../Libraries/libscpi/src/lexer.c ****     token->ptr = state->pos;
 1824              	 .loc 1 453 0
 1825 000a 7B68     	 ldr r3,[r7,#4]
 1826 000c 5A68     	 ldr r2,[r3,#4]
 1827 000e 3B68     	 ldr r3,[r7]
 1828 0010 5A60     	 str r2,[r3,#4]
 454:../Libraries/libscpi/src/lexer.c **** 
 455:../Libraries/libscpi/src/lexer.c ****     if (!iseos(state) && isalpha((uint8_t)(state->pos[0]))) {
 1829              	 .loc 1 455 0
 1830 0012 7868     	 ldr r0,[r7,#4]
 1831 0014 FFF7FEFF 	 bl iseos
 1832 0018 0346     	 mov r3,r0
 1833 001a 002B     	 cmp r3,#0
 1834 001c 2FD1     	 bne .L123
 1835              	 .loc 1 455 0 is_stmt 0 discriminator 1
 1836 001e 244B     	 ldr r3,.L129
 1837 0020 1A68     	 ldr r2,[r3]
 1838 0022 7B68     	 ldr r3,[r7,#4]
 1839 0024 5B68     	 ldr r3,[r3,#4]
 1840 0026 1B78     	 ldrb r3,[r3]
 1841 0028 0133     	 adds r3,r3,#1
 1842 002a 1344     	 add r3,r3,r2
 1843 002c 1B78     	 ldrb r3,[r3]
 1844 002e 03F00303 	 and r3,r3,#3
 1845 0032 002B     	 cmp r3,#0
 1846 0034 23D0     	 beq .L123
 456:../Libraries/libscpi/src/lexer.c ****         state->pos++;
 1847              	 .loc 1 456 0 is_stmt 1
 1848 0036 7B68     	 ldr r3,[r7,#4]
 1849 0038 5B68     	 ldr r3,[r3,#4]
 1850 003a 5A1C     	 adds r2,r3,#1
 1851 003c 7B68     	 ldr r3,[r7,#4]
 1852 003e 5A60     	 str r2,[r3,#4]
 457:../Libraries/libscpi/src/lexer.c ****         while (!iseos(state) && (isalnum((uint8_t)(state->pos[0])) || ischr(state, '_'))) {
 1853              	 .loc 1 457 0
 1854 0040 04E0     	 b .L124
 1855              	.L125:
 458:../Libraries/libscpi/src/lexer.c ****             state->pos++;
 1856              	 .loc 1 458 0
 1857 0042 7B68     	 ldr r3,[r7,#4]
 1858 0044 5B68     	 ldr r3,[r3,#4]
 1859 0046 5A1C     	 adds r2,r3,#1
 1860 0048 7B68     	 ldr r3,[r7,#4]
 1861 004a 5A60     	 str r2,[r3,#4]
 1862              	.L124:
 457:../Libraries/libscpi/src/lexer.c ****         while (!iseos(state) && (isalnum((uint8_t)(state->pos[0])) || ischr(state, '_'))) {
 1863              	 .loc 1 457 0
 1864 004c 7868     	 ldr r0,[r7,#4]
 1865 004e FFF7FEFF 	 bl iseos
 1866 0052 0346     	 mov r3,r0
 1867 0054 002B     	 cmp r3,#0
 1868 0056 12D1     	 bne .L123
 457:../Libraries/libscpi/src/lexer.c ****         while (!iseos(state) && (isalnum((uint8_t)(state->pos[0])) || ischr(state, '_'))) {
 1869              	 .loc 1 457 0 is_stmt 0 discriminator 1
 1870 0058 154B     	 ldr r3,.L129
 1871 005a 1A68     	 ldr r2,[r3]
 1872 005c 7B68     	 ldr r3,[r7,#4]
 1873 005e 5B68     	 ldr r3,[r3,#4]
 1874 0060 1B78     	 ldrb r3,[r3]
 1875 0062 0133     	 adds r3,r3,#1
 1876 0064 1344     	 add r3,r3,r2
 1877 0066 1B78     	 ldrb r3,[r3]
 1878 0068 03F00703 	 and r3,r3,#7
 1879 006c 002B     	 cmp r3,#0
 1880 006e E8D1     	 bne .L125
 457:../Libraries/libscpi/src/lexer.c ****         while (!iseos(state) && (isalnum((uint8_t)(state->pos[0])) || ischr(state, '_'))) {
 1881              	 .loc 1 457 0 discriminator 2
 1882 0070 7868     	 ldr r0,[r7,#4]
 1883 0072 5F21     	 movs r1,#95
 1884 0074 FFF7FEFF 	 bl ischr
 1885 0078 0346     	 mov r3,r0
 1886 007a 002B     	 cmp r3,#0
 1887 007c E1D1     	 bne .L125
 1888              	.L123:
 459:../Libraries/libscpi/src/lexer.c ****         }
 460:../Libraries/libscpi/src/lexer.c ****     }
 461:../Libraries/libscpi/src/lexer.c **** 
 462:../Libraries/libscpi/src/lexer.c ****     token->len = state->pos - token->ptr;
 1889              	 .loc 1 462 0 is_stmt 1
 1890 007e 7B68     	 ldr r3,[r7,#4]
 1891 0080 5B68     	 ldr r3,[r3,#4]
 1892 0082 1A46     	 mov r2,r3
 1893 0084 3B68     	 ldr r3,[r7]
 1894 0086 5B68     	 ldr r3,[r3,#4]
 1895 0088 D21A     	 subs r2,r2,r3
 1896 008a 3B68     	 ldr r3,[r7]
 1897 008c 9A60     	 str r2,[r3,#8]
 463:../Libraries/libscpi/src/lexer.c ****     if (token->len > 0) {
 1898              	 .loc 1 463 0
 1899 008e 3B68     	 ldr r3,[r7]
 1900 0090 9B68     	 ldr r3,[r3,#8]
 1901 0092 002B     	 cmp r3,#0
 1902 0094 03DD     	 ble .L126
 464:../Libraries/libscpi/src/lexer.c ****         token->type = SCPI_TOKEN_PROGRAM_MNEMONIC;
 1903              	 .loc 1 464 0
 1904 0096 3B68     	 ldr r3,[r7]
 1905 0098 0922     	 movs r2,#9
 1906 009a 1A70     	 strb r2,[r3]
 1907 009c 02E0     	 b .L127
 1908              	.L126:
 465:../Libraries/libscpi/src/lexer.c ****     } else {
 466:../Libraries/libscpi/src/lexer.c ****         token->type = SCPI_TOKEN_UNKNOWN;
 1909              	 .loc 1 466 0
 1910 009e 3B68     	 ldr r3,[r7]
 1911 00a0 1A22     	 movs r2,#26
 1912 00a2 1A70     	 strb r2,[r3]
 1913              	.L127:
 467:../Libraries/libscpi/src/lexer.c ****     }
 468:../Libraries/libscpi/src/lexer.c **** 
 469:../Libraries/libscpi/src/lexer.c ****     return token->len;
 1914              	 .loc 1 469 0
 1915 00a4 3B68     	 ldr r3,[r7]
 1916 00a6 9B68     	 ldr r3,[r3,#8]
 470:../Libraries/libscpi/src/lexer.c **** }
 1917              	 .loc 1 470 0
 1918 00a8 1846     	 mov r0,r3
 1919 00aa 0837     	 adds r7,r7,#8
 1920              	.LCFI138:
 1921              	 .cfi_def_cfa_offset 8
 1922 00ac BD46     	 mov sp,r7
 1923              	.LCFI139:
 1924              	 .cfi_def_cfa_register 13
 1925              	 
 1926 00ae 80BD     	 pop {r7,pc}
 1927              	.L130:
 1928              	 .align 2
 1929              	.L129:
 1930 00b0 00000000 	 .word __ctype_ptr__
 1931              	 .cfi_endproc
 1932              	.LFE25:
 1934              	 .section .text.skipMantisa,"ax",%progbits
 1935              	 .align 2
 1936              	 .thumb
 1937              	 .thumb_func
 1939              	skipMantisa:
 1940              	.LFB26:
 471:../Libraries/libscpi/src/lexer.c **** 
 472:../Libraries/libscpi/src/lexer.c **** /* 7.7.2 <DECIMAL NUMERIC PROGRAM DATA> */
 473:../Libraries/libscpi/src/lexer.c **** static int skipMantisa(lex_state_t * state) {
 1941              	 .loc 1 473 0
 1942              	 .cfi_startproc
 1943              	 
 1944              	 
 1945 0000 80B5     	 push {r7,lr}
 1946              	.LCFI140:
 1947              	 .cfi_def_cfa_offset 8
 1948              	 .cfi_offset 7,-8
 1949              	 .cfi_offset 14,-4
 1950 0002 84B0     	 sub sp,sp,#16
 1951              	.LCFI141:
 1952              	 .cfi_def_cfa_offset 24
 1953 0004 00AF     	 add r7,sp,#0
 1954              	.LCFI142:
 1955              	 .cfi_def_cfa_register 7
 1956 0006 7860     	 str r0,[r7,#4]
 474:../Libraries/libscpi/src/lexer.c ****     int someNumbers = 0;
 1957              	 .loc 1 474 0
 1958 0008 0023     	 movs r3,#0
 1959 000a FB60     	 str r3,[r7,#12]
 475:../Libraries/libscpi/src/lexer.c **** 
 476:../Libraries/libscpi/src/lexer.c ****     skipPlusmn(state);
 1960              	 .loc 1 476 0
 1961 000c 7868     	 ldr r0,[r7,#4]
 1962 000e FFF7FEFF 	 bl skipPlusmn
 477:../Libraries/libscpi/src/lexer.c **** 
 478:../Libraries/libscpi/src/lexer.c ****     someNumbers += skipNumbers(state);
 1963              	 .loc 1 478 0
 1964 0012 7868     	 ldr r0,[r7,#4]
 1965 0014 FFF7FEFF 	 bl skipNumbers
 1966 0018 0246     	 mov r2,r0
 1967 001a FB68     	 ldr r3,[r7,#12]
 1968 001c 1344     	 add r3,r3,r2
 1969 001e FB60     	 str r3,[r7,#12]
 479:../Libraries/libscpi/src/lexer.c **** 
 480:../Libraries/libscpi/src/lexer.c ****     if (skipChr(state, '.')) {
 1970              	 .loc 1 480 0
 1971 0020 7868     	 ldr r0,[r7,#4]
 1972 0022 2E21     	 movs r1,#46
 1973 0024 FFF7FEFF 	 bl skipChr
 1974 0028 0346     	 mov r3,r0
 1975 002a 002B     	 cmp r3,#0
 1976 002c 06D0     	 beq .L132
 481:../Libraries/libscpi/src/lexer.c ****         someNumbers += skipNumbers(state);
 1977              	 .loc 1 481 0
 1978 002e 7868     	 ldr r0,[r7,#4]
 1979 0030 FFF7FEFF 	 bl skipNumbers
 1980 0034 0246     	 mov r2,r0
 1981 0036 FB68     	 ldr r3,[r7,#12]
 1982 0038 1344     	 add r3,r3,r2
 1983 003a FB60     	 str r3,[r7,#12]
 1984              	.L132:
 482:../Libraries/libscpi/src/lexer.c ****     }
 483:../Libraries/libscpi/src/lexer.c **** 
 484:../Libraries/libscpi/src/lexer.c ****     return someNumbers;
 1985              	 .loc 1 484 0
 1986 003c FB68     	 ldr r3,[r7,#12]
 485:../Libraries/libscpi/src/lexer.c **** }
 1987              	 .loc 1 485 0
 1988 003e 1846     	 mov r0,r3
 1989 0040 1037     	 adds r7,r7,#16
 1990              	.LCFI143:
 1991              	 .cfi_def_cfa_offset 8
 1992 0042 BD46     	 mov sp,r7
 1993              	.LCFI144:
 1994              	 .cfi_def_cfa_register 13
 1995              	 
 1996 0044 80BD     	 pop {r7,pc}
 1997              	 .cfi_endproc
 1998              	.LFE26:
 2000 0046 00BF     	 .section .text.skipExponent,"ax",%progbits
 2001              	 .align 2
 2002              	 .thumb
 2003              	 .thumb_func
 2005              	skipExponent:
 2006              	.LFB27:
 486:../Libraries/libscpi/src/lexer.c **** 
 487:../Libraries/libscpi/src/lexer.c **** static int skipExponent(lex_state_t * state) {
 2007              	 .loc 1 487 0
 2008              	 .cfi_startproc
 2009              	 
 2010              	 
 2011 0000 80B5     	 push {r7,lr}
 2012              	.LCFI145:
 2013              	 .cfi_def_cfa_offset 8
 2014              	 .cfi_offset 7,-8
 2015              	 .cfi_offset 14,-4
 2016 0002 84B0     	 sub sp,sp,#16
 2017              	.LCFI146:
 2018              	 .cfi_def_cfa_offset 24
 2019 0004 00AF     	 add r7,sp,#0
 2020              	.LCFI147:
 2021              	 .cfi_def_cfa_register 7
 2022 0006 7860     	 str r0,[r7,#4]
 488:../Libraries/libscpi/src/lexer.c ****     int someNumbers = 0;
 2023              	 .loc 1 488 0
 2024 0008 0023     	 movs r3,#0
 2025 000a FB60     	 str r3,[r7,#12]
 489:../Libraries/libscpi/src/lexer.c **** 
 490:../Libraries/libscpi/src/lexer.c ****     if (!iseos(state) && isE(state->pos[0])) {
 2026              	 .loc 1 490 0
 2027 000c 7868     	 ldr r0,[r7,#4]
 2028 000e FFF7FEFF 	 bl iseos
 2029 0012 0346     	 mov r3,r0
 2030 0014 002B     	 cmp r3,#0
 2031 0016 17D1     	 bne .L135
 2032              	 .loc 1 490 0 is_stmt 0 discriminator 1
 2033 0018 7B68     	 ldr r3,[r7,#4]
 2034 001a 5B68     	 ldr r3,[r3,#4]
 2035 001c 1B78     	 ldrb r3,[r3]
 2036 001e 1846     	 mov r0,r3
 2037 0020 FFF7FEFF 	 bl isE
 2038 0024 0346     	 mov r3,r0
 2039 0026 002B     	 cmp r3,#0
 2040 0028 0ED0     	 beq .L135
 491:../Libraries/libscpi/src/lexer.c ****         state->pos++;
 2041              	 .loc 1 491 0 is_stmt 1
 2042 002a 7B68     	 ldr r3,[r7,#4]
 2043 002c 5B68     	 ldr r3,[r3,#4]
 2044 002e 5A1C     	 adds r2,r3,#1
 2045 0030 7B68     	 ldr r3,[r7,#4]
 2046 0032 5A60     	 str r2,[r3,#4]
 492:../Libraries/libscpi/src/lexer.c **** 
 493:../Libraries/libscpi/src/lexer.c ****         skipWs(state);
 2047              	 .loc 1 493 0
 2048 0034 7868     	 ldr r0,[r7,#4]
 2049 0036 FFF7FEFF 	 bl skipWs
 494:../Libraries/libscpi/src/lexer.c **** 
 495:../Libraries/libscpi/src/lexer.c ****         skipPlusmn(state);
 2050              	 .loc 1 495 0
 2051 003a 7868     	 ldr r0,[r7,#4]
 2052 003c FFF7FEFF 	 bl skipPlusmn
 496:../Libraries/libscpi/src/lexer.c **** 
 497:../Libraries/libscpi/src/lexer.c ****         someNumbers = skipNumbers(state);
 2053              	 .loc 1 497 0
 2054 0040 7868     	 ldr r0,[r7,#4]
 2055 0042 FFF7FEFF 	 bl skipNumbers
 2056 0046 F860     	 str r0,[r7,#12]
 2057              	.L135:
 498:../Libraries/libscpi/src/lexer.c ****     }
 499:../Libraries/libscpi/src/lexer.c **** 
 500:../Libraries/libscpi/src/lexer.c ****     return someNumbers;
 2058              	 .loc 1 500 0
 2059 0048 FB68     	 ldr r3,[r7,#12]
 501:../Libraries/libscpi/src/lexer.c **** }
 2060              	 .loc 1 501 0
 2061 004a 1846     	 mov r0,r3
 2062 004c 1037     	 adds r7,r7,#16
 2063              	.LCFI148:
 2064              	 .cfi_def_cfa_offset 8
 2065 004e BD46     	 mov sp,r7
 2066              	.LCFI149:
 2067              	 .cfi_def_cfa_register 13
 2068              	 
 2069 0050 80BD     	 pop {r7,pc}
 2070              	 .cfi_endproc
 2071              	.LFE27:
 2073 0052 00BF     	 .section .text.scpiLex_DecimalNumericProgramData,"ax",%progbits
 2074              	 .align 2
 2075              	 .global scpiLex_DecimalNumericProgramData
 2076              	 .hidden scpiLex_DecimalNumericProgramData
 2077              	 .thumb
 2078              	 .thumb_func
 2080              	scpiLex_DecimalNumericProgramData:
 2081              	.LFB28:
 502:../Libraries/libscpi/src/lexer.c **** 
 503:../Libraries/libscpi/src/lexer.c **** /**
 504:../Libraries/libscpi/src/lexer.c ****  * Detect token Decimal number
 505:../Libraries/libscpi/src/lexer.c ****  * @param state
 506:../Libraries/libscpi/src/lexer.c ****  * @param token
 507:../Libraries/libscpi/src/lexer.c ****  * @return 
 508:../Libraries/libscpi/src/lexer.c ****  */
 509:../Libraries/libscpi/src/lexer.c **** int scpiLex_DecimalNumericProgramData(lex_state_t * state, scpi_token_t * token) {
 2082              	 .loc 1 509 0
 2083              	 .cfi_startproc
 2084              	 
 2085              	 
 2086 0000 80B5     	 push {r7,lr}
 2087              	.LCFI150:
 2088              	 .cfi_def_cfa_offset 8
 2089              	 .cfi_offset 7,-8
 2090              	 .cfi_offset 14,-4
 2091 0002 84B0     	 sub sp,sp,#16
 2092              	.LCFI151:
 2093              	 .cfi_def_cfa_offset 24
 2094 0004 00AF     	 add r7,sp,#0
 2095              	.LCFI152:
 2096              	 .cfi_def_cfa_register 7
 2097 0006 7860     	 str r0,[r7,#4]
 2098 0008 3960     	 str r1,[r7]
 510:../Libraries/libscpi/src/lexer.c ****     char * rollback;
 511:../Libraries/libscpi/src/lexer.c ****     token->ptr = state->pos;
 2099              	 .loc 1 511 0
 2100 000a 7B68     	 ldr r3,[r7,#4]
 2101 000c 5A68     	 ldr r2,[r3,#4]
 2102 000e 3B68     	 ldr r3,[r7]
 2103 0010 5A60     	 str r2,[r3,#4]
 512:../Libraries/libscpi/src/lexer.c **** 
 513:../Libraries/libscpi/src/lexer.c ****     if (skipMantisa(state)) {
 2104              	 .loc 1 513 0
 2105 0012 7868     	 ldr r0,[r7,#4]
 2106 0014 FFF7FEFF 	 bl skipMantisa
 2107 0018 0346     	 mov r3,r0
 2108 001a 002B     	 cmp r3,#0
 2109 001c 0FD0     	 beq .L138
 514:../Libraries/libscpi/src/lexer.c ****         rollback = state->pos;
 2110              	 .loc 1 514 0
 2111 001e 7B68     	 ldr r3,[r7,#4]
 2112 0020 5B68     	 ldr r3,[r3,#4]
 2113 0022 FB60     	 str r3,[r7,#12]
 515:../Libraries/libscpi/src/lexer.c ****         skipWs(state);
 2114              	 .loc 1 515 0
 2115 0024 7868     	 ldr r0,[r7,#4]
 2116 0026 FFF7FEFF 	 bl skipWs
 516:../Libraries/libscpi/src/lexer.c ****         if (!skipExponent(state)) {
 2117              	 .loc 1 516 0
 2118 002a 7868     	 ldr r0,[r7,#4]
 2119 002c FFF7FEFF 	 bl skipExponent
 2120 0030 0346     	 mov r3,r0
 2121 0032 002B     	 cmp r3,#0
 2122 0034 07D1     	 bne .L140
 517:../Libraries/libscpi/src/lexer.c ****             state->pos = rollback;
 2123              	 .loc 1 517 0
 2124 0036 7B68     	 ldr r3,[r7,#4]
 2125 0038 FA68     	 ldr r2,[r7,#12]
 2126 003a 5A60     	 str r2,[r3,#4]
 2127 003c 03E0     	 b .L140
 2128              	.L138:
 518:../Libraries/libscpi/src/lexer.c ****         }
 519:../Libraries/libscpi/src/lexer.c ****     } else {
 520:../Libraries/libscpi/src/lexer.c ****         state->pos = token->ptr;
 2129              	 .loc 1 520 0
 2130 003e 3B68     	 ldr r3,[r7]
 2131 0040 5A68     	 ldr r2,[r3,#4]
 2132 0042 7B68     	 ldr r3,[r7,#4]
 2133 0044 5A60     	 str r2,[r3,#4]
 2134              	.L140:
 521:../Libraries/libscpi/src/lexer.c ****     }
 522:../Libraries/libscpi/src/lexer.c **** 
 523:../Libraries/libscpi/src/lexer.c ****     token->len = state->pos - token->ptr;
 2135              	 .loc 1 523 0
 2136 0046 7B68     	 ldr r3,[r7,#4]
 2137 0048 5B68     	 ldr r3,[r3,#4]
 2138 004a 1A46     	 mov r2,r3
 2139 004c 3B68     	 ldr r3,[r7]
 2140 004e 5B68     	 ldr r3,[r3,#4]
 2141 0050 D21A     	 subs r2,r2,r3
 2142 0052 3B68     	 ldr r3,[r7]
 2143 0054 9A60     	 str r2,[r3,#8]
 524:../Libraries/libscpi/src/lexer.c ****     if (token->len > 0) {
 2144              	 .loc 1 524 0
 2145 0056 3B68     	 ldr r3,[r7]
 2146 0058 9B68     	 ldr r3,[r3,#8]
 2147 005a 002B     	 cmp r3,#0
 2148 005c 03DD     	 ble .L141
 525:../Libraries/libscpi/src/lexer.c ****         token->type = SCPI_TOKEN_DECIMAL_NUMERIC_PROGRAM_DATA;
 2149              	 .loc 1 525 0
 2150 005e 3B68     	 ldr r3,[r7]
 2151 0060 0A22     	 movs r2,#10
 2152 0062 1A70     	 strb r2,[r3]
 2153 0064 02E0     	 b .L142
 2154              	.L141:
 526:../Libraries/libscpi/src/lexer.c ****     } else {
 527:../Libraries/libscpi/src/lexer.c ****         token->type = SCPI_TOKEN_UNKNOWN;
 2155              	 .loc 1 527 0
 2156 0066 3B68     	 ldr r3,[r7]
 2157 0068 1A22     	 movs r2,#26
 2158 006a 1A70     	 strb r2,[r3]
 2159              	.L142:
 528:../Libraries/libscpi/src/lexer.c ****     }
 529:../Libraries/libscpi/src/lexer.c **** 
 530:../Libraries/libscpi/src/lexer.c ****     return token->len;
 2160              	 .loc 1 530 0
 2161 006c 3B68     	 ldr r3,[r7]
 2162 006e 9B68     	 ldr r3,[r3,#8]
 531:../Libraries/libscpi/src/lexer.c **** }
 2163              	 .loc 1 531 0
 2164 0070 1846     	 mov r0,r3
 2165 0072 1037     	 adds r7,r7,#16
 2166              	.LCFI153:
 2167              	 .cfi_def_cfa_offset 8
 2168 0074 BD46     	 mov sp,r7
 2169              	.LCFI154:
 2170              	 .cfi_def_cfa_register 13
 2171              	 
 2172 0076 80BD     	 pop {r7,pc}
 2173              	 .cfi_endproc
 2174              	.LFE28:
 2176              	 .section .text.scpiLex_SuffixProgramData,"ax",%progbits
 2177              	 .align 2
 2178              	 .global scpiLex_SuffixProgramData
 2179              	 .hidden scpiLex_SuffixProgramData
 2180              	 .thumb
 2181              	 .thumb_func
 2183              	scpiLex_SuffixProgramData:
 2184              	.LFB29:
 532:../Libraries/libscpi/src/lexer.c **** 
 533:../Libraries/libscpi/src/lexer.c **** /* 7.7.3 <SUFFIX PROGRAM DATA> */
 534:../Libraries/libscpi/src/lexer.c **** int scpiLex_SuffixProgramData(lex_state_t * state, scpi_token_t * token) {
 2185              	 .loc 1 534 0
 2186              	 .cfi_startproc
 2187              	 
 2188              	 
 2189 0000 80B5     	 push {r7,lr}
 2190              	.LCFI155:
 2191              	 .cfi_def_cfa_offset 8
 2192              	 .cfi_offset 7,-8
 2193              	 .cfi_offset 14,-4
 2194 0002 82B0     	 sub sp,sp,#8
 2195              	.LCFI156:
 2196              	 .cfi_def_cfa_offset 16
 2197 0004 00AF     	 add r7,sp,#0
 2198              	.LCFI157:
 2199              	 .cfi_def_cfa_register 7
 2200 0006 7860     	 str r0,[r7,#4]
 2201 0008 3960     	 str r1,[r7]
 535:../Libraries/libscpi/src/lexer.c ****     token->ptr = state->pos;
 2202              	 .loc 1 535 0
 2203 000a 7B68     	 ldr r3,[r7,#4]
 2204 000c 5A68     	 ldr r2,[r3,#4]
 2205 000e 3B68     	 ldr r3,[r7]
 2206 0010 5A60     	 str r2,[r3,#4]
 536:../Libraries/libscpi/src/lexer.c **** 
 537:../Libraries/libscpi/src/lexer.c ****     skipChr(state, '/');
 2207              	 .loc 1 537 0
 2208 0012 7868     	 ldr r0,[r7,#4]
 2209 0014 2F21     	 movs r1,#47
 2210 0016 FFF7FEFF 	 bl skipChr
 538:../Libraries/libscpi/src/lexer.c **** 
 539:../Libraries/libscpi/src/lexer.c ****     /* TODO: strict parsing  : SLASH? (ALPHA+ (MINUS? DIGIT)?) ((SLASH | DOT) (ALPHA+ (MINUS? DIGIT
 540:../Libraries/libscpi/src/lexer.c ****     if (skipAlpha(state)) {
 2211              	 .loc 1 540 0
 2212 001a 7868     	 ldr r0,[r7,#4]
 2213 001c FFF7FEFF 	 bl skipAlpha
 2214 0020 0346     	 mov r3,r0
 2215 0022 002B     	 cmp r3,#0
 2216 0024 17D0     	 beq .L145
 541:../Libraries/libscpi/src/lexer.c ****         skipChr(state, '-');
 2217              	 .loc 1 541 0
 2218 0026 7868     	 ldr r0,[r7,#4]
 2219 0028 2D21     	 movs r1,#45
 2220 002a FFF7FEFF 	 bl skipChr
 542:../Libraries/libscpi/src/lexer.c ****         skipDigit(state);
 2221              	 .loc 1 542 0
 2222 002e 7868     	 ldr r0,[r7,#4]
 2223 0030 FFF7FEFF 	 bl skipDigit
 543:../Libraries/libscpi/src/lexer.c **** 
 544:../Libraries/libscpi/src/lexer.c ****         while (skipSlashDot(state)) {
 2224              	 .loc 1 544 0
 2225 0034 09E0     	 b .L146
 2226              	.L147:
 545:../Libraries/libscpi/src/lexer.c ****             skipAlpha(state);
 2227              	 .loc 1 545 0
 2228 0036 7868     	 ldr r0,[r7,#4]
 2229 0038 FFF7FEFF 	 bl skipAlpha
 546:../Libraries/libscpi/src/lexer.c ****             skipChr(state, '-');
 2230              	 .loc 1 546 0
 2231 003c 7868     	 ldr r0,[r7,#4]
 2232 003e 2D21     	 movs r1,#45
 2233 0040 FFF7FEFF 	 bl skipChr
 547:../Libraries/libscpi/src/lexer.c ****             skipDigit(state);
 2234              	 .loc 1 547 0
 2235 0044 7868     	 ldr r0,[r7,#4]
 2236 0046 FFF7FEFF 	 bl skipDigit
 2237              	.L146:
 544:../Libraries/libscpi/src/lexer.c ****             skipAlpha(state);
 2238              	 .loc 1 544 0
 2239 004a 7868     	 ldr r0,[r7,#4]
 2240 004c FFF7FEFF 	 bl skipSlashDot
 2241 0050 0346     	 mov r3,r0
 2242 0052 002B     	 cmp r3,#0
 2243 0054 EFD1     	 bne .L147
 2244              	.L145:
 548:../Libraries/libscpi/src/lexer.c ****         }
 549:../Libraries/libscpi/src/lexer.c ****     }
 550:../Libraries/libscpi/src/lexer.c **** 
 551:../Libraries/libscpi/src/lexer.c ****     token->len = state->pos - token->ptr;
 2245              	 .loc 1 551 0
 2246 0056 7B68     	 ldr r3,[r7,#4]
 2247 0058 5B68     	 ldr r3,[r3,#4]
 2248 005a 1A46     	 mov r2,r3
 2249 005c 3B68     	 ldr r3,[r7]
 2250 005e 5B68     	 ldr r3,[r3,#4]
 2251 0060 D21A     	 subs r2,r2,r3
 2252 0062 3B68     	 ldr r3,[r7]
 2253 0064 9A60     	 str r2,[r3,#8]
 552:../Libraries/libscpi/src/lexer.c ****     if ((token->len > 0)) {
 2254              	 .loc 1 552 0
 2255 0066 3B68     	 ldr r3,[r7]
 2256 0068 9B68     	 ldr r3,[r3,#8]
 2257 006a 002B     	 cmp r3,#0
 2258 006c 03DD     	 ble .L148
 553:../Libraries/libscpi/src/lexer.c ****         token->type = SCPI_TOKEN_SUFFIX_PROGRAM_DATA;
 2259              	 .loc 1 553 0
 2260 006e 3B68     	 ldr r3,[r7]
 2261 0070 0C22     	 movs r2,#12
 2262 0072 1A70     	 strb r2,[r3]
 2263 0074 09E0     	 b .L149
 2264              	.L148:
 554:../Libraries/libscpi/src/lexer.c ****     } else {
 555:../Libraries/libscpi/src/lexer.c ****         token->type = SCPI_TOKEN_UNKNOWN;
 2265              	 .loc 1 555 0
 2266 0076 3B68     	 ldr r3,[r7]
 2267 0078 1A22     	 movs r2,#26
 2268 007a 1A70     	 strb r2,[r3]
 556:../Libraries/libscpi/src/lexer.c ****         state->pos = token->ptr;
 2269              	 .loc 1 556 0
 2270 007c 3B68     	 ldr r3,[r7]
 2271 007e 5A68     	 ldr r2,[r3,#4]
 2272 0080 7B68     	 ldr r3,[r7,#4]
 2273 0082 5A60     	 str r2,[r3,#4]
 557:../Libraries/libscpi/src/lexer.c ****         token->len = 0;
 2274              	 .loc 1 557 0
 2275 0084 3B68     	 ldr r3,[r7]
 2276 0086 0022     	 movs r2,#0
 2277 0088 9A60     	 str r2,[r3,#8]
 2278              	.L149:
 558:../Libraries/libscpi/src/lexer.c ****     }
 559:../Libraries/libscpi/src/lexer.c **** 
 560:../Libraries/libscpi/src/lexer.c ****     return token->len;
 2279              	 .loc 1 560 0
 2280 008a 3B68     	 ldr r3,[r7]
 2281 008c 9B68     	 ldr r3,[r3,#8]
 561:../Libraries/libscpi/src/lexer.c **** }
 2282              	 .loc 1 561 0
 2283 008e 1846     	 mov r0,r3
 2284 0090 0837     	 adds r7,r7,#8
 2285              	.LCFI158:
 2286              	 .cfi_def_cfa_offset 8
 2287 0092 BD46     	 mov sp,r7
 2288              	.LCFI159:
 2289              	 .cfi_def_cfa_register 13
 2290              	 
 2291 0094 80BD     	 pop {r7,pc}
 2292              	 .cfi_endproc
 2293              	.LFE29:
 2295 0096 00BF     	 .section .text.skipHexNum,"ax",%progbits
 2296              	 .align 2
 2297              	 .thumb
 2298              	 .thumb_func
 2300              	skipHexNum:
 2301              	.LFB30:
 562:../Libraries/libscpi/src/lexer.c **** 
 563:../Libraries/libscpi/src/lexer.c **** /* 7.7.4 <NONDECIMAL NUMERIC PROGRAM DATA> */
 564:../Libraries/libscpi/src/lexer.c **** static int skipHexNum(lex_state_t * state) {
 2302              	 .loc 1 564 0
 2303              	 .cfi_startproc
 2304              	 
 2305              	 
 2306 0000 80B5     	 push {r7,lr}
 2307              	.LCFI160:
 2308              	 .cfi_def_cfa_offset 8
 2309              	 .cfi_offset 7,-8
 2310              	 .cfi_offset 14,-4
 2311 0002 84B0     	 sub sp,sp,#16
 2312              	.LCFI161:
 2313              	 .cfi_def_cfa_offset 24
 2314 0004 00AF     	 add r7,sp,#0
 2315              	.LCFI162:
 2316              	 .cfi_def_cfa_register 7
 2317 0006 7860     	 str r0,[r7,#4]
 565:../Libraries/libscpi/src/lexer.c ****     int someNumbers = 0;
 2318              	 .loc 1 565 0
 2319 0008 0023     	 movs r3,#0
 2320 000a FB60     	 str r3,[r7,#12]
 566:../Libraries/libscpi/src/lexer.c ****     while (!iseos(state) && isxdigit((uint8_t)(state->pos[0]))) {
 2321              	 .loc 1 566 0
 2322 000c 07E0     	 b .L152
 2323              	.L154:
 567:../Libraries/libscpi/src/lexer.c ****         state->pos++;
 2324              	 .loc 1 567 0
 2325 000e 7B68     	 ldr r3,[r7,#4]
 2326 0010 5B68     	 ldr r3,[r3,#4]
 2327 0012 5A1C     	 adds r2,r3,#1
 2328 0014 7B68     	 ldr r3,[r7,#4]
 2329 0016 5A60     	 str r2,[r3,#4]
 568:../Libraries/libscpi/src/lexer.c ****         someNumbers++;
 2330              	 .loc 1 568 0
 2331 0018 FB68     	 ldr r3,[r7,#12]
 2332 001a 0133     	 adds r3,r3,#1
 2333 001c FB60     	 str r3,[r7,#12]
 2334              	.L152:
 566:../Libraries/libscpi/src/lexer.c ****     while (!iseos(state) && isxdigit((uint8_t)(state->pos[0]))) {
 2335              	 .loc 1 566 0
 2336 001e 7868     	 ldr r0,[r7,#4]
 2337 0020 FFF7FEFF 	 bl iseos
 2338 0024 0346     	 mov r3,r0
 2339 0026 002B     	 cmp r3,#0
 2340 0028 0BD1     	 bne .L153
 566:../Libraries/libscpi/src/lexer.c ****     while (!iseos(state) && isxdigit((uint8_t)(state->pos[0]))) {
 2341              	 .loc 1 566 0 is_stmt 0 discriminator 1
 2342 002a 084B     	 ldr r3,.L156
 2343 002c 1A68     	 ldr r2,[r3]
 2344 002e 7B68     	 ldr r3,[r7,#4]
 2345 0030 5B68     	 ldr r3,[r3,#4]
 2346 0032 1B78     	 ldrb r3,[r3]
 2347 0034 0133     	 adds r3,r3,#1
 2348 0036 1344     	 add r3,r3,r2
 2349 0038 1B78     	 ldrb r3,[r3]
 2350 003a 03F04403 	 and r3,r3,#68
 2351 003e 002B     	 cmp r3,#0
 2352 0040 E5D1     	 bne .L154
 2353              	.L153:
 569:../Libraries/libscpi/src/lexer.c ****     }
 570:../Libraries/libscpi/src/lexer.c ****     return someNumbers;
 2354              	 .loc 1 570 0 is_stmt 1
 2355 0042 FB68     	 ldr r3,[r7,#12]
 571:../Libraries/libscpi/src/lexer.c **** }
 2356              	 .loc 1 571 0
 2357 0044 1846     	 mov r0,r3
 2358 0046 1037     	 adds r7,r7,#16
 2359              	.LCFI163:
 2360              	 .cfi_def_cfa_offset 8
 2361 0048 BD46     	 mov sp,r7
 2362              	.LCFI164:
 2363              	 .cfi_def_cfa_register 13
 2364              	 
 2365 004a 80BD     	 pop {r7,pc}
 2366              	.L157:
 2367              	 .align 2
 2368              	.L156:
 2369 004c 00000000 	 .word __ctype_ptr__
 2370              	 .cfi_endproc
 2371              	.LFE30:
 2373              	 .section .text.skipOctNum,"ax",%progbits
 2374              	 .align 2
 2375              	 .thumb
 2376              	 .thumb_func
 2378              	skipOctNum:
 2379              	.LFB31:
 572:../Libraries/libscpi/src/lexer.c **** 
 573:../Libraries/libscpi/src/lexer.c **** static int skipOctNum(lex_state_t * state) {
 2380              	 .loc 1 573 0
 2381              	 .cfi_startproc
 2382              	 
 2383              	 
 2384 0000 80B5     	 push {r7,lr}
 2385              	.LCFI165:
 2386              	 .cfi_def_cfa_offset 8
 2387              	 .cfi_offset 7,-8
 2388              	 .cfi_offset 14,-4
 2389 0002 84B0     	 sub sp,sp,#16
 2390              	.LCFI166:
 2391              	 .cfi_def_cfa_offset 24
 2392 0004 00AF     	 add r7,sp,#0
 2393              	.LCFI167:
 2394              	 .cfi_def_cfa_register 7
 2395 0006 7860     	 str r0,[r7,#4]
 574:../Libraries/libscpi/src/lexer.c ****     int someNumbers = 0;
 2396              	 .loc 1 574 0
 2397 0008 0023     	 movs r3,#0
 2398 000a FB60     	 str r3,[r7,#12]
 575:../Libraries/libscpi/src/lexer.c ****     while (!iseos(state) && isqdigit(state->pos[0])) {
 2399              	 .loc 1 575 0
 2400 000c 07E0     	 b .L159
 2401              	.L161:
 576:../Libraries/libscpi/src/lexer.c ****         state->pos++;
 2402              	 .loc 1 576 0
 2403 000e 7B68     	 ldr r3,[r7,#4]
 2404 0010 5B68     	 ldr r3,[r3,#4]
 2405 0012 5A1C     	 adds r2,r3,#1
 2406 0014 7B68     	 ldr r3,[r7,#4]
 2407 0016 5A60     	 str r2,[r3,#4]
 577:../Libraries/libscpi/src/lexer.c ****         someNumbers++;
 2408              	 .loc 1 577 0
 2409 0018 FB68     	 ldr r3,[r7,#12]
 2410 001a 0133     	 adds r3,r3,#1
 2411 001c FB60     	 str r3,[r7,#12]
 2412              	.L159:
 575:../Libraries/libscpi/src/lexer.c ****     while (!iseos(state) && isqdigit(state->pos[0])) {
 2413              	 .loc 1 575 0
 2414 001e 7868     	 ldr r0,[r7,#4]
 2415 0020 FFF7FEFF 	 bl iseos
 2416 0024 0346     	 mov r3,r0
 2417 0026 002B     	 cmp r3,#0
 2418 0028 08D1     	 bne .L160
 575:../Libraries/libscpi/src/lexer.c ****     while (!iseos(state) && isqdigit(state->pos[0])) {
 2419              	 .loc 1 575 0 is_stmt 0 discriminator 1
 2420 002a 7B68     	 ldr r3,[r7,#4]
 2421 002c 5B68     	 ldr r3,[r3,#4]
 2422 002e 1B78     	 ldrb r3,[r3]
 2423 0030 1846     	 mov r0,r3
 2424 0032 FFF7FEFF 	 bl isqdigit
 2425 0036 0346     	 mov r3,r0
 2426 0038 002B     	 cmp r3,#0
 2427 003a E8D1     	 bne .L161
 2428              	.L160:
 578:../Libraries/libscpi/src/lexer.c ****     }
 579:../Libraries/libscpi/src/lexer.c ****     return someNumbers;
 2429              	 .loc 1 579 0 is_stmt 1
 2430 003c FB68     	 ldr r3,[r7,#12]
 580:../Libraries/libscpi/src/lexer.c **** }
 2431              	 .loc 1 580 0
 2432 003e 1846     	 mov r0,r3
 2433 0040 1037     	 adds r7,r7,#16
 2434              	.LCFI168:
 2435              	 .cfi_def_cfa_offset 8
 2436 0042 BD46     	 mov sp,r7
 2437              	.LCFI169:
 2438              	 .cfi_def_cfa_register 13
 2439              	 
 2440 0044 80BD     	 pop {r7,pc}
 2441              	 .cfi_endproc
 2442              	.LFE31:
 2444 0046 00BF     	 .section .text.skipBinNum,"ax",%progbits
 2445              	 .align 2
 2446              	 .thumb
 2447              	 .thumb_func
 2449              	skipBinNum:
 2450              	.LFB32:
 581:../Libraries/libscpi/src/lexer.c **** 
 582:../Libraries/libscpi/src/lexer.c **** static int skipBinNum(lex_state_t * state) {
 2451              	 .loc 1 582 0
 2452              	 .cfi_startproc
 2453              	 
 2454              	 
 2455 0000 80B5     	 push {r7,lr}
 2456              	.LCFI170:
 2457              	 .cfi_def_cfa_offset 8
 2458              	 .cfi_offset 7,-8
 2459              	 .cfi_offset 14,-4
 2460 0002 84B0     	 sub sp,sp,#16
 2461              	.LCFI171:
 2462              	 .cfi_def_cfa_offset 24
 2463 0004 00AF     	 add r7,sp,#0
 2464              	.LCFI172:
 2465              	 .cfi_def_cfa_register 7
 2466 0006 7860     	 str r0,[r7,#4]
 583:../Libraries/libscpi/src/lexer.c ****     int someNumbers = 0;
 2467              	 .loc 1 583 0
 2468 0008 0023     	 movs r3,#0
 2469 000a FB60     	 str r3,[r7,#12]
 584:../Libraries/libscpi/src/lexer.c ****     while (!iseos(state) && isbdigit(state->pos[0])) {
 2470              	 .loc 1 584 0
 2471 000c 07E0     	 b .L164
 2472              	.L166:
 585:../Libraries/libscpi/src/lexer.c ****         state->pos++;
 2473              	 .loc 1 585 0
 2474 000e 7B68     	 ldr r3,[r7,#4]
 2475 0010 5B68     	 ldr r3,[r3,#4]
 2476 0012 5A1C     	 adds r2,r3,#1
 2477 0014 7B68     	 ldr r3,[r7,#4]
 2478 0016 5A60     	 str r2,[r3,#4]
 586:../Libraries/libscpi/src/lexer.c ****         someNumbers++;
 2479              	 .loc 1 586 0
 2480 0018 FB68     	 ldr r3,[r7,#12]
 2481 001a 0133     	 adds r3,r3,#1
 2482 001c FB60     	 str r3,[r7,#12]
 2483              	.L164:
 584:../Libraries/libscpi/src/lexer.c ****     while (!iseos(state) && isbdigit(state->pos[0])) {
 2484              	 .loc 1 584 0
 2485 001e 7868     	 ldr r0,[r7,#4]
 2486 0020 FFF7FEFF 	 bl iseos
 2487 0024 0346     	 mov r3,r0
 2488 0026 002B     	 cmp r3,#0
 2489 0028 08D1     	 bne .L165
 584:../Libraries/libscpi/src/lexer.c ****     while (!iseos(state) && isbdigit(state->pos[0])) {
 2490              	 .loc 1 584 0 is_stmt 0 discriminator 1
 2491 002a 7B68     	 ldr r3,[r7,#4]
 2492 002c 5B68     	 ldr r3,[r3,#4]
 2493 002e 1B78     	 ldrb r3,[r3]
 2494 0030 1846     	 mov r0,r3
 2495 0032 FFF7FEFF 	 bl isbdigit
 2496 0036 0346     	 mov r3,r0
 2497 0038 002B     	 cmp r3,#0
 2498 003a E8D1     	 bne .L166
 2499              	.L165:
 587:../Libraries/libscpi/src/lexer.c ****     }
 588:../Libraries/libscpi/src/lexer.c ****     return someNumbers;
 2500              	 .loc 1 588 0 is_stmt 1
 2501 003c FB68     	 ldr r3,[r7,#12]
 589:../Libraries/libscpi/src/lexer.c **** }
 2502              	 .loc 1 589 0
 2503 003e 1846     	 mov r0,r3
 2504 0040 1037     	 adds r7,r7,#16
 2505              	.LCFI173:
 2506              	 .cfi_def_cfa_offset 8
 2507 0042 BD46     	 mov sp,r7
 2508              	.LCFI174:
 2509              	 .cfi_def_cfa_register 13
 2510              	 
 2511 0044 80BD     	 pop {r7,pc}
 2512              	 .cfi_endproc
 2513              	.LFE32:
 2515 0046 00BF     	 .section .text.scpiLex_NondecimalNumericData,"ax",%progbits
 2516              	 .align 2
 2517              	 .global scpiLex_NondecimalNumericData
 2518              	 .hidden scpiLex_NondecimalNumericData
 2519              	 .thumb
 2520              	 .thumb_func
 2522              	scpiLex_NondecimalNumericData:
 2523              	.LFB33:
 590:../Libraries/libscpi/src/lexer.c **** 
 591:../Libraries/libscpi/src/lexer.c **** /**
 592:../Libraries/libscpi/src/lexer.c ****  * Detect token nondecimal number
 593:../Libraries/libscpi/src/lexer.c ****  * @param state
 594:../Libraries/libscpi/src/lexer.c ****  * @param token
 595:../Libraries/libscpi/src/lexer.c ****  * @return 
 596:../Libraries/libscpi/src/lexer.c ****  */
 597:../Libraries/libscpi/src/lexer.c **** int scpiLex_NondecimalNumericData(lex_state_t * state, scpi_token_t * token) {
 2524              	 .loc 1 597 0
 2525              	 .cfi_startproc
 2526              	 
 2527              	 
 2528 0000 80B5     	 push {r7,lr}
 2529              	.LCFI175:
 2530              	 .cfi_def_cfa_offset 8
 2531              	 .cfi_offset 7,-8
 2532              	 .cfi_offset 14,-4
 2533 0002 84B0     	 sub sp,sp,#16
 2534              	.LCFI176:
 2535              	 .cfi_def_cfa_offset 24
 2536 0004 00AF     	 add r7,sp,#0
 2537              	.LCFI177:
 2538              	 .cfi_def_cfa_register 7
 2539 0006 7860     	 str r0,[r7,#4]
 2540 0008 3960     	 str r1,[r7]
 598:../Libraries/libscpi/src/lexer.c ****     int someNumbers = 0;
 2541              	 .loc 1 598 0
 2542 000a 0023     	 movs r3,#0
 2543 000c FB60     	 str r3,[r7,#12]
 599:../Libraries/libscpi/src/lexer.c ****     token->ptr = state->pos;
 2544              	 .loc 1 599 0
 2545 000e 7B68     	 ldr r3,[r7,#4]
 2546 0010 5A68     	 ldr r2,[r3,#4]
 2547 0012 3B68     	 ldr r3,[r7]
 2548 0014 5A60     	 str r2,[r3,#4]
 600:../Libraries/libscpi/src/lexer.c ****     if (skipChr(state, '#')) {
 2549              	 .loc 1 600 0
 2550 0016 7868     	 ldr r0,[r7,#4]
 2551 0018 2321     	 movs r1,#35
 2552 001a FFF7FEFF 	 bl skipChr
 2553 001e 0346     	 mov r3,r0
 2554 0020 002B     	 cmp r3,#0
 2555 0022 46D0     	 beq .L169
 601:../Libraries/libscpi/src/lexer.c ****         if (!iseos(state)) {
 2556              	 .loc 1 601 0
 2557 0024 7868     	 ldr r0,[r7,#4]
 2558 0026 FFF7FEFF 	 bl iseos
 2559 002a 0346     	 mov r3,r0
 2560 002c 002B     	 cmp r3,#0
 2561 002e 40D1     	 bne .L169
 602:../Libraries/libscpi/src/lexer.c ****             if (isH(state->pos[0])) {
 2562              	 .loc 1 602 0
 2563 0030 7B68     	 ldr r3,[r7,#4]
 2564 0032 5B68     	 ldr r3,[r3,#4]
 2565 0034 1B78     	 ldrb r3,[r3]
 2566 0036 1846     	 mov r0,r3
 2567 0038 FFF7FEFF 	 bl isH
 2568 003c 0346     	 mov r3,r0
 2569 003e 002B     	 cmp r3,#0
 2570 0040 0CD0     	 beq .L170
 603:../Libraries/libscpi/src/lexer.c ****                 state->pos++;
 2571              	 .loc 1 603 0
 2572 0042 7B68     	 ldr r3,[r7,#4]
 2573 0044 5B68     	 ldr r3,[r3,#4]
 2574 0046 5A1C     	 adds r2,r3,#1
 2575 0048 7B68     	 ldr r3,[r7,#4]
 2576 004a 5A60     	 str r2,[r3,#4]
 604:../Libraries/libscpi/src/lexer.c ****                 someNumbers = skipHexNum(state);
 2577              	 .loc 1 604 0
 2578 004c 7868     	 ldr r0,[r7,#4]
 2579 004e FFF7FEFF 	 bl skipHexNum
 2580 0052 F860     	 str r0,[r7,#12]
 605:../Libraries/libscpi/src/lexer.c ****                 token->type = SCPI_TOKEN_HEXNUM;
 2581              	 .loc 1 605 0
 2582 0054 3B68     	 ldr r3,[r7]
 2583 0056 0622     	 movs r2,#6
 2584 0058 1A70     	 strb r2,[r3]
 2585 005a 2AE0     	 b .L169
 2586              	.L170:
 606:../Libraries/libscpi/src/lexer.c ****             } else if (isQ(state->pos[0])) {
 2587              	 .loc 1 606 0
 2588 005c 7B68     	 ldr r3,[r7,#4]
 2589 005e 5B68     	 ldr r3,[r3,#4]
 2590 0060 1B78     	 ldrb r3,[r3]
 2591 0062 1846     	 mov r0,r3
 2592 0064 FFF7FEFF 	 bl isQ
 2593 0068 0346     	 mov r3,r0
 2594 006a 002B     	 cmp r3,#0
 2595 006c 0CD0     	 beq .L171
 607:../Libraries/libscpi/src/lexer.c ****                 state->pos++;
 2596              	 .loc 1 607 0
 2597 006e 7B68     	 ldr r3,[r7,#4]
 2598 0070 5B68     	 ldr r3,[r3,#4]
 2599 0072 5A1C     	 adds r2,r3,#1
 2600 0074 7B68     	 ldr r3,[r7,#4]
 2601 0076 5A60     	 str r2,[r3,#4]
 608:../Libraries/libscpi/src/lexer.c ****                 someNumbers = skipOctNum(state);
 2602              	 .loc 1 608 0
 2603 0078 7868     	 ldr r0,[r7,#4]
 2604 007a FFF7FEFF 	 bl skipOctNum
 2605 007e F860     	 str r0,[r7,#12]
 609:../Libraries/libscpi/src/lexer.c ****                 token->type = SCPI_TOKEN_OCTNUM;
 2606              	 .loc 1 609 0
 2607 0080 3B68     	 ldr r3,[r7]
 2608 0082 0722     	 movs r2,#7
 2609 0084 1A70     	 strb r2,[r3]
 2610 0086 14E0     	 b .L169
 2611              	.L171:
 610:../Libraries/libscpi/src/lexer.c ****             } else if (isB(state->pos[0])) {
 2612              	 .loc 1 610 0
 2613 0088 7B68     	 ldr r3,[r7,#4]
 2614 008a 5B68     	 ldr r3,[r3,#4]
 2615 008c 1B78     	 ldrb r3,[r3]
 2616 008e 1846     	 mov r0,r3
 2617 0090 FFF7FEFF 	 bl isB
 2618 0094 0346     	 mov r3,r0
 2619 0096 002B     	 cmp r3,#0
 2620 0098 0BD0     	 beq .L169
 611:../Libraries/libscpi/src/lexer.c ****                 state->pos++;
 2621              	 .loc 1 611 0
 2622 009a 7B68     	 ldr r3,[r7,#4]
 2623 009c 5B68     	 ldr r3,[r3,#4]
 2624 009e 5A1C     	 adds r2,r3,#1
 2625 00a0 7B68     	 ldr r3,[r7,#4]
 2626 00a2 5A60     	 str r2,[r3,#4]
 612:../Libraries/libscpi/src/lexer.c ****                 someNumbers = skipBinNum(state);
 2627              	 .loc 1 612 0
 2628 00a4 7868     	 ldr r0,[r7,#4]
 2629 00a6 FFF7FEFF 	 bl skipBinNum
 2630 00aa F860     	 str r0,[r7,#12]
 613:../Libraries/libscpi/src/lexer.c ****                 token->type = SCPI_TOKEN_BINNUM;
 2631              	 .loc 1 613 0
 2632 00ac 3B68     	 ldr r3,[r7]
 2633 00ae 0822     	 movs r2,#8
 2634 00b0 1A70     	 strb r2,[r3]
 2635              	.L169:
 614:../Libraries/libscpi/src/lexer.c ****             }
 615:../Libraries/libscpi/src/lexer.c ****         }
 616:../Libraries/libscpi/src/lexer.c ****     }
 617:../Libraries/libscpi/src/lexer.c **** 
 618:../Libraries/libscpi/src/lexer.c ****     if (someNumbers) {
 2636              	 .loc 1 618 0
 2637 00b2 FB68     	 ldr r3,[r7,#12]
 2638 00b4 002B     	 cmp r3,#0
 2639 00b6 0DD0     	 beq .L172
 619:../Libraries/libscpi/src/lexer.c ****         token->ptr += 2; /* ignore number prefix */
 2640              	 .loc 1 619 0
 2641 00b8 3B68     	 ldr r3,[r7]
 2642 00ba 5B68     	 ldr r3,[r3,#4]
 2643 00bc 9A1C     	 adds r2,r3,#2
 2644 00be 3B68     	 ldr r3,[r7]
 2645 00c0 5A60     	 str r2,[r3,#4]
 620:../Libraries/libscpi/src/lexer.c ****         token->len = state->pos - token->ptr;
 2646              	 .loc 1 620 0
 2647 00c2 7B68     	 ldr r3,[r7,#4]
 2648 00c4 5B68     	 ldr r3,[r3,#4]
 2649 00c6 1A46     	 mov r2,r3
 2650 00c8 3B68     	 ldr r3,[r7]
 2651 00ca 5B68     	 ldr r3,[r3,#4]
 2652 00cc D21A     	 subs r2,r2,r3
 2653 00ce 3B68     	 ldr r3,[r7]
 2654 00d0 9A60     	 str r2,[r3,#8]
 2655 00d2 09E0     	 b .L173
 2656              	.L172:
 621:../Libraries/libscpi/src/lexer.c ****     } else {
 622:../Libraries/libscpi/src/lexer.c ****         token->type = SCPI_TOKEN_UNKNOWN;
 2657              	 .loc 1 622 0
 2658 00d4 3B68     	 ldr r3,[r7]
 2659 00d6 1A22     	 movs r2,#26
 2660 00d8 1A70     	 strb r2,[r3]
 623:../Libraries/libscpi/src/lexer.c ****         state->pos = token->ptr;
 2661              	 .loc 1 623 0
 2662 00da 3B68     	 ldr r3,[r7]
 2663 00dc 5A68     	 ldr r2,[r3,#4]
 2664 00de 7B68     	 ldr r3,[r7,#4]
 2665 00e0 5A60     	 str r2,[r3,#4]
 624:../Libraries/libscpi/src/lexer.c ****         token->len = 0;
 2666              	 .loc 1 624 0
 2667 00e2 3B68     	 ldr r3,[r7]
 2668 00e4 0022     	 movs r2,#0
 2669 00e6 9A60     	 str r2,[r3,#8]
 2670              	.L173:
 625:../Libraries/libscpi/src/lexer.c ****     }
 626:../Libraries/libscpi/src/lexer.c ****     return token->len > 0 ? token->len + 2 : 0;
 2671              	 .loc 1 626 0
 2672 00e8 3B68     	 ldr r3,[r7]
 2673 00ea 9B68     	 ldr r3,[r3,#8]
 2674 00ec 002B     	 cmp r3,#0
 2675 00ee 03DD     	 ble .L174
 2676              	 .loc 1 626 0 is_stmt 0 discriminator 1
 2677 00f0 3B68     	 ldr r3,[r7]
 2678 00f2 9B68     	 ldr r3,[r3,#8]
 2679 00f4 0233     	 adds r3,r3,#2
 2680 00f6 00E0     	 b .L175
 2681              	.L174:
 2682              	 .loc 1 626 0 discriminator 2
 2683 00f8 0023     	 movs r3,#0
 2684              	.L175:
 627:../Libraries/libscpi/src/lexer.c **** }
 2685              	 .loc 1 627 0 is_stmt 1 discriminator 4
 2686 00fa 1846     	 mov r0,r3
 2687 00fc 1037     	 adds r7,r7,#16
 2688              	.LCFI178:
 2689              	 .cfi_def_cfa_offset 8
 2690 00fe BD46     	 mov sp,r7
 2691              	.LCFI179:
 2692              	 .cfi_def_cfa_register 13
 2693              	 
 2694 0100 80BD     	 pop {r7,pc}
 2695              	 .cfi_endproc
 2696              	.LFE33:
 2698 0102 00BF     	 .section .text.isascii7bit,"ax",%progbits
 2699              	 .align 2
 2700              	 .thumb
 2701              	 .thumb_func
 2703              	isascii7bit:
 2704              	.LFB34:
 628:../Libraries/libscpi/src/lexer.c **** 
 629:../Libraries/libscpi/src/lexer.c **** /* 7.7.5 <STRING PROGRAM DATA> */
 630:../Libraries/libscpi/src/lexer.c **** static int isascii7bit(int c) {
 2705              	 .loc 1 630 0
 2706              	 .cfi_startproc
 2707              	 
 2708              	 
 2709              	 
 2710 0000 80B4     	 push {r7}
 2711              	.LCFI180:
 2712              	 .cfi_def_cfa_offset 4
 2713              	 .cfi_offset 7,-4
 2714 0002 83B0     	 sub sp,sp,#12
 2715              	.LCFI181:
 2716              	 .cfi_def_cfa_offset 16
 2717 0004 00AF     	 add r7,sp,#0
 2718              	.LCFI182:
 2719              	 .cfi_def_cfa_register 7
 2720 0006 7860     	 str r0,[r7,#4]
 631:../Libraries/libscpi/src/lexer.c ****     return (c >= 0) && (c <= 0x7f);
 2721              	 .loc 1 631 0
 2722 0008 7B68     	 ldr r3,[r7,#4]
 2723 000a 002B     	 cmp r3,#0
 2724 000c 04DB     	 blt .L178
 2725              	 .loc 1 631 0 is_stmt 0 discriminator 1
 2726 000e 7B68     	 ldr r3,[r7,#4]
 2727 0010 7F2B     	 cmp r3,#127
 2728 0012 01DC     	 bgt .L178
 2729              	 .loc 1 631 0 discriminator 3
 2730 0014 0123     	 movs r3,#1
 2731 0016 00E0     	 b .L179
 2732              	.L178:
 2733              	 .loc 1 631 0 discriminator 4
 2734 0018 0023     	 movs r3,#0
 2735              	.L179:
 632:../Libraries/libscpi/src/lexer.c **** }
 2736              	 .loc 1 632 0 is_stmt 1 discriminator 6
 2737 001a 1846     	 mov r0,r3
 2738 001c 0C37     	 adds r7,r7,#12
 2739              	.LCFI183:
 2740              	 .cfi_def_cfa_offset 4
 2741 001e BD46     	 mov sp,r7
 2742              	.LCFI184:
 2743              	 .cfi_def_cfa_register 13
 2744              	 
 2745 0020 5DF8047B 	 ldr r7,[sp],#4
 2746              	.LCFI185:
 2747              	 .cfi_restore 7
 2748              	 .cfi_def_cfa_offset 0
 2749 0024 7047     	 bx lr
 2750              	 .cfi_endproc
 2751              	.LFE34:
 2753 0026 00BF     	 .section .text.skipQuoteProgramData,"ax",%progbits
 2754              	 .align 2
 2755              	 .thumb
 2756              	 .thumb_func
 2758              	skipQuoteProgramData:
 2759              	.LFB35:
 633:../Libraries/libscpi/src/lexer.c **** 
 634:../Libraries/libscpi/src/lexer.c **** static void skipQuoteProgramData(lex_state_t * state, char quote) {
 2760              	 .loc 1 634 0
 2761              	 .cfi_startproc
 2762              	 
 2763              	 
 2764 0000 80B5     	 push {r7,lr}
 2765              	.LCFI186:
 2766              	 .cfi_def_cfa_offset 8
 2767              	 .cfi_offset 7,-8
 2768              	 .cfi_offset 14,-4
 2769 0002 82B0     	 sub sp,sp,#8
 2770              	.LCFI187:
 2771              	 .cfi_def_cfa_offset 16
 2772 0004 00AF     	 add r7,sp,#0
 2773              	.LCFI188:
 2774              	 .cfi_def_cfa_register 7
 2775 0006 7860     	 str r0,[r7,#4]
 2776 0008 0B46     	 mov r3,r1
 2777 000a FB70     	 strb r3,[r7,#3]
 635:../Libraries/libscpi/src/lexer.c ****     while (!iseos(state)) {
 2778              	 .loc 1 635 0
 2779 000c 3EE0     	 b .L182
 2780              	.L187:
 636:../Libraries/libscpi/src/lexer.c ****         if (isascii7bit(state->pos[0]) && !ischr(state, quote)) {
 2781              	 .loc 1 636 0
 2782 000e 7B68     	 ldr r3,[r7,#4]
 2783 0010 5B68     	 ldr r3,[r3,#4]
 2784 0012 1B78     	 ldrb r3,[r3]
 2785 0014 1846     	 mov r0,r3
 2786 0016 FFF7FEFF 	 bl isascii7bit
 2787 001a 0346     	 mov r3,r0
 2788 001c 002B     	 cmp r3,#0
 2789 001e 0DD0     	 beq .L183
 2790              	 .loc 1 636 0 is_stmt 0 discriminator 1
 2791 0020 FB78     	 ldrb r3,[r7,#3]
 2792 0022 7868     	 ldr r0,[r7,#4]
 2793 0024 1946     	 mov r1,r3
 2794 0026 FFF7FEFF 	 bl ischr
 2795 002a 0346     	 mov r3,r0
 2796 002c 002B     	 cmp r3,#0
 2797 002e 05D1     	 bne .L183
 637:../Libraries/libscpi/src/lexer.c ****             state->pos++;
 2798              	 .loc 1 637 0 is_stmt 1
 2799 0030 7B68     	 ldr r3,[r7,#4]
 2800 0032 5B68     	 ldr r3,[r3,#4]
 2801 0034 5A1C     	 adds r2,r3,#1
 2802 0036 7B68     	 ldr r3,[r7,#4]
 2803 0038 5A60     	 str r2,[r3,#4]
 2804 003a 27E0     	 b .L182
 2805              	.L183:
 638:../Libraries/libscpi/src/lexer.c ****         } else if (ischr(state, quote)) {
 2806              	 .loc 1 638 0
 2807 003c FB78     	 ldrb r3,[r7,#3]
 2808 003e 7868     	 ldr r0,[r7,#4]
 2809 0040 1946     	 mov r1,r3
 2810 0042 FFF7FEFF 	 bl ischr
 2811 0046 0346     	 mov r3,r0
 2812 0048 002B     	 cmp r3,#0
 2813 004a 1ED0     	 beq .L184
 639:../Libraries/libscpi/src/lexer.c ****             state->pos++;
 2814              	 .loc 1 639 0
 2815 004c 7B68     	 ldr r3,[r7,#4]
 2816 004e 5B68     	 ldr r3,[r3,#4]
 2817 0050 5A1C     	 adds r2,r3,#1
 2818 0052 7B68     	 ldr r3,[r7,#4]
 2819 0054 5A60     	 str r2,[r3,#4]
 640:../Libraries/libscpi/src/lexer.c ****             if (!iseos(state) && ischr(state, quote)) {
 2820              	 .loc 1 640 0
 2821 0056 7868     	 ldr r0,[r7,#4]
 2822 0058 FFF7FEFF 	 bl iseos
 2823 005c 0346     	 mov r3,r0
 2824 005e 002B     	 cmp r3,#0
 2825 0060 0DD1     	 bne .L185
 2826              	 .loc 1 640 0 is_stmt 0 discriminator 1
 2827 0062 FB78     	 ldrb r3,[r7,#3]
 2828 0064 7868     	 ldr r0,[r7,#4]
 2829 0066 1946     	 mov r1,r3
 2830 0068 FFF7FEFF 	 bl ischr
 2831 006c 0346     	 mov r3,r0
 2832 006e 002B     	 cmp r3,#0
 2833 0070 05D0     	 beq .L185
 641:../Libraries/libscpi/src/lexer.c ****                 state->pos++;
 2834              	 .loc 1 641 0 is_stmt 1
 2835 0072 7B68     	 ldr r3,[r7,#4]
 2836 0074 5B68     	 ldr r3,[r3,#4]
 2837 0076 5A1C     	 adds r2,r3,#1
 2838 0078 7B68     	 ldr r3,[r7,#4]
 2839 007a 5A60     	 str r2,[r3,#4]
 2840 007c 06E0     	 b .L182
 2841              	.L185:
 642:../Libraries/libscpi/src/lexer.c ****             } else {
 643:../Libraries/libscpi/src/lexer.c ****                 state->pos--;
 2842              	 .loc 1 643 0
 2843 007e 7B68     	 ldr r3,[r7,#4]
 2844 0080 5B68     	 ldr r3,[r3,#4]
 2845 0082 5A1E     	 subs r2,r3,#1
 2846 0084 7B68     	 ldr r3,[r7,#4]
 2847 0086 5A60     	 str r2,[r3,#4]
 644:../Libraries/libscpi/src/lexer.c ****                 break;
 2848              	 .loc 1 644 0
 2849 0088 06E0     	 b .L181
 2850              	.L184:
 645:../Libraries/libscpi/src/lexer.c ****             }
 646:../Libraries/libscpi/src/lexer.c ****         } else {
 647:../Libraries/libscpi/src/lexer.c ****             break;
 2851              	 .loc 1 647 0
 2852 008a 05E0     	 b .L181
 2853              	.L182:
 635:../Libraries/libscpi/src/lexer.c ****         if (isascii7bit(state->pos[0]) && !ischr(state, quote)) {
 2854              	 .loc 1 635 0
 2855 008c 7868     	 ldr r0,[r7,#4]
 2856 008e FFF7FEFF 	 bl iseos
 2857 0092 0346     	 mov r3,r0
 2858 0094 002B     	 cmp r3,#0
 2859 0096 BAD0     	 beq .L187
 2860              	.L181:
 648:../Libraries/libscpi/src/lexer.c ****         }
 649:../Libraries/libscpi/src/lexer.c ****     }
 650:../Libraries/libscpi/src/lexer.c **** }
 2861              	 .loc 1 650 0
 2862 0098 0837     	 adds r7,r7,#8
 2863              	.LCFI189:
 2864              	 .cfi_def_cfa_offset 8
 2865 009a BD46     	 mov sp,r7
 2866              	.LCFI190:
 2867              	 .cfi_def_cfa_register 13
 2868              	 
 2869 009c 80BD     	 pop {r7,pc}
 2870              	 .cfi_endproc
 2871              	.LFE35:
 2873 009e 00BF     	 .section .text.skipDoubleQuoteProgramData,"ax",%progbits
 2874              	 .align 2
 2875              	 .thumb
 2876              	 .thumb_func
 2878              	skipDoubleQuoteProgramData:
 2879              	.LFB36:
 651:../Libraries/libscpi/src/lexer.c **** 
 652:../Libraries/libscpi/src/lexer.c **** static void skipDoubleQuoteProgramData(lex_state_t * state) {
 2880              	 .loc 1 652 0
 2881              	 .cfi_startproc
 2882              	 
 2883              	 
 2884 0000 80B5     	 push {r7,lr}
 2885              	.LCFI191:
 2886              	 .cfi_def_cfa_offset 8
 2887              	 .cfi_offset 7,-8
 2888              	 .cfi_offset 14,-4
 2889 0002 82B0     	 sub sp,sp,#8
 2890              	.LCFI192:
 2891              	 .cfi_def_cfa_offset 16
 2892 0004 00AF     	 add r7,sp,#0
 2893              	.LCFI193:
 2894              	 .cfi_def_cfa_register 7
 2895 0006 7860     	 str r0,[r7,#4]
 653:../Libraries/libscpi/src/lexer.c ****     skipQuoteProgramData(state, '"');
 2896              	 .loc 1 653 0
 2897 0008 7868     	 ldr r0,[r7,#4]
 2898 000a 2221     	 movs r1,#34
 2899 000c FFF7FEFF 	 bl skipQuoteProgramData
 654:../Libraries/libscpi/src/lexer.c **** }
 2900              	 .loc 1 654 0
 2901 0010 0837     	 adds r7,r7,#8
 2902              	.LCFI194:
 2903              	 .cfi_def_cfa_offset 8
 2904 0012 BD46     	 mov sp,r7
 2905              	.LCFI195:
 2906              	 .cfi_def_cfa_register 13
 2907              	 
 2908 0014 80BD     	 pop {r7,pc}
 2909              	 .cfi_endproc
 2910              	.LFE36:
 2912 0016 00BF     	 .section .text.skipSingleQuoteProgramData,"ax",%progbits
 2913              	 .align 2
 2914              	 .thumb
 2915              	 .thumb_func
 2917              	skipSingleQuoteProgramData:
 2918              	.LFB37:
 655:../Libraries/libscpi/src/lexer.c **** 
 656:../Libraries/libscpi/src/lexer.c **** static void skipSingleQuoteProgramData(lex_state_t * state) {
 2919              	 .loc 1 656 0
 2920              	 .cfi_startproc
 2921              	 
 2922              	 
 2923 0000 80B5     	 push {r7,lr}
 2924              	.LCFI196:
 2925              	 .cfi_def_cfa_offset 8
 2926              	 .cfi_offset 7,-8
 2927              	 .cfi_offset 14,-4
 2928 0002 82B0     	 sub sp,sp,#8
 2929              	.LCFI197:
 2930              	 .cfi_def_cfa_offset 16
 2931 0004 00AF     	 add r7,sp,#0
 2932              	.LCFI198:
 2933              	 .cfi_def_cfa_register 7
 2934 0006 7860     	 str r0,[r7,#4]
 657:../Libraries/libscpi/src/lexer.c ****     skipQuoteProgramData(state, '\'');
 2935              	 .loc 1 657 0
 2936 0008 7868     	 ldr r0,[r7,#4]
 2937 000a 2721     	 movs r1,#39
 2938 000c FFF7FEFF 	 bl skipQuoteProgramData
 658:../Libraries/libscpi/src/lexer.c **** }
 2939              	 .loc 1 658 0
 2940 0010 0837     	 adds r7,r7,#8
 2941              	.LCFI199:
 2942              	 .cfi_def_cfa_offset 8
 2943 0012 BD46     	 mov sp,r7
 2944              	.LCFI200:
 2945              	 .cfi_def_cfa_register 13
 2946              	 
 2947 0014 80BD     	 pop {r7,pc}
 2948              	 .cfi_endproc
 2949              	.LFE37:
 2951 0016 00BF     	 .section .text.scpiLex_StringProgramData,"ax",%progbits
 2952              	 .align 2
 2953              	 .global scpiLex_StringProgramData
 2954              	 .hidden scpiLex_StringProgramData
 2955              	 .thumb
 2956              	 .thumb_func
 2958              	scpiLex_StringProgramData:
 2959              	.LFB38:
 659:../Libraries/libscpi/src/lexer.c **** 
 660:../Libraries/libscpi/src/lexer.c **** /**
 661:../Libraries/libscpi/src/lexer.c ****  * Detect token String data
 662:../Libraries/libscpi/src/lexer.c ****  * @param state
 663:../Libraries/libscpi/src/lexer.c ****  * @param token
 664:../Libraries/libscpi/src/lexer.c ****  * @return 
 665:../Libraries/libscpi/src/lexer.c ****  */
 666:../Libraries/libscpi/src/lexer.c **** int scpiLex_StringProgramData(lex_state_t * state, scpi_token_t * token) {
 2960              	 .loc 1 666 0
 2961              	 .cfi_startproc
 2962              	 
 2963              	 
 2964 0000 80B5     	 push {r7,lr}
 2965              	.LCFI201:
 2966              	 .cfi_def_cfa_offset 8
 2967              	 .cfi_offset 7,-8
 2968              	 .cfi_offset 14,-4
 2969 0002 82B0     	 sub sp,sp,#8
 2970              	.LCFI202:
 2971              	 .cfi_def_cfa_offset 16
 2972 0004 00AF     	 add r7,sp,#0
 2973              	.LCFI203:
 2974              	 .cfi_def_cfa_register 7
 2975 0006 7860     	 str r0,[r7,#4]
 2976 0008 3960     	 str r1,[r7]
 667:../Libraries/libscpi/src/lexer.c ****     token->ptr = state->pos;
 2977              	 .loc 1 667 0
 2978 000a 7B68     	 ldr r3,[r7,#4]
 2979 000c 5A68     	 ldr r2,[r3,#4]
 2980 000e 3B68     	 ldr r3,[r7]
 2981 0010 5A60     	 str r2,[r3,#4]
 668:../Libraries/libscpi/src/lexer.c **** 
 669:../Libraries/libscpi/src/lexer.c ****     if (!iseos(state)) {
 2982              	 .loc 1 669 0
 2983 0012 7868     	 ldr r0,[r7,#4]
 2984 0014 FFF7FEFF 	 bl iseos
 2985 0018 0346     	 mov r3,r0
 2986 001a 002B     	 cmp r3,#0
 2987 001c 62D1     	 bne .L191
 670:../Libraries/libscpi/src/lexer.c ****         if (ischr(state, '"')) {
 2988              	 .loc 1 670 0
 2989 001e 7868     	 ldr r0,[r7,#4]
 2990 0020 2221     	 movs r1,#34
 2991 0022 FFF7FEFF 	 bl ischr
 2992 0026 0346     	 mov r3,r0
 2993 0028 002B     	 cmp r3,#0
 2994 002a 2AD0     	 beq .L192
 671:../Libraries/libscpi/src/lexer.c ****             state->pos++;
 2995              	 .loc 1 671 0
 2996 002c 7B68     	 ldr r3,[r7,#4]
 2997 002e 5B68     	 ldr r3,[r3,#4]
 2998 0030 5A1C     	 adds r2,r3,#1
 2999 0032 7B68     	 ldr r3,[r7,#4]
 3000 0034 5A60     	 str r2,[r3,#4]
 672:../Libraries/libscpi/src/lexer.c ****             token->type = SCPI_TOKEN_DOUBLE_QUOTE_PROGRAM_DATA;
 3001              	 .loc 1 672 0
 3002 0036 3B68     	 ldr r3,[r7]
 3003 0038 0F22     	 movs r2,#15
 3004 003a 1A70     	 strb r2,[r3]
 673:../Libraries/libscpi/src/lexer.c ****             skipDoubleQuoteProgramData(state);
 3005              	 .loc 1 673 0
 3006 003c 7868     	 ldr r0,[r7,#4]
 3007 003e FFF7FEFF 	 bl skipDoubleQuoteProgramData
 674:../Libraries/libscpi/src/lexer.c ****             if (!iseos(state) && ischr(state, '"')) {
 3008              	 .loc 1 674 0
 3009 0042 7868     	 ldr r0,[r7,#4]
 3010 0044 FFF7FEFF 	 bl iseos
 3011 0048 0346     	 mov r3,r0
 3012 004a 002B     	 cmp r3,#0
 3013 004c 14D1     	 bne .L193
 3014              	 .loc 1 674 0 is_stmt 0 discriminator 1
 3015 004e 7868     	 ldr r0,[r7,#4]
 3016 0050 2221     	 movs r1,#34
 3017 0052 FFF7FEFF 	 bl ischr
 3018 0056 0346     	 mov r3,r0
 3019 0058 002B     	 cmp r3,#0
 3020 005a 0DD0     	 beq .L193
 675:../Libraries/libscpi/src/lexer.c ****                 state->pos++;
 3021              	 .loc 1 675 0 is_stmt 1
 3022 005c 7B68     	 ldr r3,[r7,#4]
 3023 005e 5B68     	 ldr r3,[r3,#4]
 3024 0060 5A1C     	 adds r2,r3,#1
 3025 0062 7B68     	 ldr r3,[r7,#4]
 3026 0064 5A60     	 str r2,[r3,#4]
 676:../Libraries/libscpi/src/lexer.c ****                 token->len = state->pos - token->ptr;
 3027              	 .loc 1 676 0
 3028 0066 7B68     	 ldr r3,[r7,#4]
 3029 0068 5B68     	 ldr r3,[r3,#4]
 3030 006a 1A46     	 mov r2,r3
 3031 006c 3B68     	 ldr r3,[r7]
 3032 006e 5B68     	 ldr r3,[r3,#4]
 3033 0070 D21A     	 subs r2,r2,r3
 3034 0072 3B68     	 ldr r3,[r7]
 3035 0074 9A60     	 str r2,[r3,#8]
 3036 0076 35E0     	 b .L191
 3037              	.L193:
 677:../Libraries/libscpi/src/lexer.c ****             } else {
 678:../Libraries/libscpi/src/lexer.c ****                 state->pos = token->ptr;
 3038              	 .loc 1 678 0
 3039 0078 3B68     	 ldr r3,[r7]
 3040 007a 5A68     	 ldr r2,[r3,#4]
 3041 007c 7B68     	 ldr r3,[r7,#4]
 3042 007e 5A60     	 str r2,[r3,#4]
 3043 0080 30E0     	 b .L191
 3044              	.L192:
 679:../Libraries/libscpi/src/lexer.c ****             }
 680:../Libraries/libscpi/src/lexer.c ****         } else if (ischr(state, '\'')) {
 3045              	 .loc 1 680 0
 3046 0082 7868     	 ldr r0,[r7,#4]
 3047 0084 2721     	 movs r1,#39
 3048 0086 FFF7FEFF 	 bl ischr
 3049 008a 0346     	 mov r3,r0
 3050 008c 002B     	 cmp r3,#0
 3051 008e 29D0     	 beq .L191
 681:../Libraries/libscpi/src/lexer.c ****             state->pos++;
 3052              	 .loc 1 681 0
 3053 0090 7B68     	 ldr r3,[r7,#4]
 3054 0092 5B68     	 ldr r3,[r3,#4]
 3055 0094 5A1C     	 adds r2,r3,#1
 3056 0096 7B68     	 ldr r3,[r7,#4]
 3057 0098 5A60     	 str r2,[r3,#4]
 682:../Libraries/libscpi/src/lexer.c ****             token->type = SCPI_TOKEN_SINGLE_QUOTE_PROGRAM_DATA;
 3058              	 .loc 1 682 0
 3059 009a 3B68     	 ldr r3,[r7]
 3060 009c 0E22     	 movs r2,#14
 3061 009e 1A70     	 strb r2,[r3]
 683:../Libraries/libscpi/src/lexer.c ****             skipSingleQuoteProgramData(state);
 3062              	 .loc 1 683 0
 3063 00a0 7868     	 ldr r0,[r7,#4]
 3064 00a2 FFF7FEFF 	 bl skipSingleQuoteProgramData
 684:../Libraries/libscpi/src/lexer.c ****             if (!iseos(state) && ischr(state, '\'')) {
 3065              	 .loc 1 684 0
 3066 00a6 7868     	 ldr r0,[r7,#4]
 3067 00a8 FFF7FEFF 	 bl iseos
 3068 00ac 0346     	 mov r3,r0
 3069 00ae 002B     	 cmp r3,#0
 3070 00b0 14D1     	 bne .L195
 3071              	 .loc 1 684 0 is_stmt 0 discriminator 1
 3072 00b2 7868     	 ldr r0,[r7,#4]
 3073 00b4 2721     	 movs r1,#39
 3074 00b6 FFF7FEFF 	 bl ischr
 3075 00ba 0346     	 mov r3,r0
 3076 00bc 002B     	 cmp r3,#0
 3077 00be 0DD0     	 beq .L195
 685:../Libraries/libscpi/src/lexer.c ****                 state->pos++;
 3078              	 .loc 1 685 0 is_stmt 1
 3079 00c0 7B68     	 ldr r3,[r7,#4]
 3080 00c2 5B68     	 ldr r3,[r3,#4]
 3081 00c4 5A1C     	 adds r2,r3,#1
 3082 00c6 7B68     	 ldr r3,[r7,#4]
 3083 00c8 5A60     	 str r2,[r3,#4]
 686:../Libraries/libscpi/src/lexer.c ****                 token->len = state->pos - token->ptr;
 3084              	 .loc 1 686 0
 3085 00ca 7B68     	 ldr r3,[r7,#4]
 3086 00cc 5B68     	 ldr r3,[r3,#4]
 3087 00ce 1A46     	 mov r2,r3
 3088 00d0 3B68     	 ldr r3,[r7]
 3089 00d2 5B68     	 ldr r3,[r3,#4]
 3090 00d4 D21A     	 subs r2,r2,r3
 3091 00d6 3B68     	 ldr r3,[r7]
 3092 00d8 9A60     	 str r2,[r3,#8]
 3093 00da 03E0     	 b .L191
 3094              	.L195:
 687:../Libraries/libscpi/src/lexer.c ****             } else {
 688:../Libraries/libscpi/src/lexer.c ****                 state->pos = token->ptr;
 3095              	 .loc 1 688 0
 3096 00dc 3B68     	 ldr r3,[r7]
 3097 00de 5A68     	 ldr r2,[r3,#4]
 3098 00e0 7B68     	 ldr r3,[r7,#4]
 3099 00e2 5A60     	 str r2,[r3,#4]
 3100              	.L191:
 689:../Libraries/libscpi/src/lexer.c ****             }
 690:../Libraries/libscpi/src/lexer.c ****         }
 691:../Libraries/libscpi/src/lexer.c ****     }
 692:../Libraries/libscpi/src/lexer.c **** 
 693:../Libraries/libscpi/src/lexer.c ****     token->len = state->pos - token->ptr;
 3101              	 .loc 1 693 0
 3102 00e4 7B68     	 ldr r3,[r7,#4]
 3103 00e6 5B68     	 ldr r3,[r3,#4]
 3104 00e8 1A46     	 mov r2,r3
 3105 00ea 3B68     	 ldr r3,[r7]
 3106 00ec 5B68     	 ldr r3,[r3,#4]
 3107 00ee D21A     	 subs r2,r2,r3
 3108 00f0 3B68     	 ldr r3,[r7]
 3109 00f2 9A60     	 str r2,[r3,#8]
 694:../Libraries/libscpi/src/lexer.c **** 
 695:../Libraries/libscpi/src/lexer.c ****     if ((token->len > 0)) {
 3110              	 .loc 1 695 0
 3111 00f4 3B68     	 ldr r3,[r7]
 3112 00f6 9B68     	 ldr r3,[r3,#8]
 3113 00f8 002B     	 cmp r3,#0
 3114 00fa 09DC     	 bgt .L196
 696:../Libraries/libscpi/src/lexer.c ****         /* token->ptr++;
 697:../Libraries/libscpi/src/lexer.c ****          * token->len -= 2; */
 698:../Libraries/libscpi/src/lexer.c ****     } else {
 699:../Libraries/libscpi/src/lexer.c ****         token->type = SCPI_TOKEN_UNKNOWN;
 3115              	 .loc 1 699 0
 3116 00fc 3B68     	 ldr r3,[r7]
 3117 00fe 1A22     	 movs r2,#26
 3118 0100 1A70     	 strb r2,[r3]
 700:../Libraries/libscpi/src/lexer.c ****         state->pos = token->ptr;
 3119              	 .loc 1 700 0
 3120 0102 3B68     	 ldr r3,[r7]
 3121 0104 5A68     	 ldr r2,[r3,#4]
 3122 0106 7B68     	 ldr r3,[r7,#4]
 3123 0108 5A60     	 str r2,[r3,#4]
 701:../Libraries/libscpi/src/lexer.c ****         token->len = 0;
 3124              	 .loc 1 701 0
 3125 010a 3B68     	 ldr r3,[r7]
 3126 010c 0022     	 movs r2,#0
 3127 010e 9A60     	 str r2,[r3,#8]
 3128              	.L196:
 702:../Libraries/libscpi/src/lexer.c ****     }
 703:../Libraries/libscpi/src/lexer.c **** 
 704:../Libraries/libscpi/src/lexer.c ****     return token->len > 0 ? token->len : 0;
 3129              	 .loc 1 704 0
 3130 0110 3B68     	 ldr r3,[r7]
 3131 0112 9B68     	 ldr r3,[r3,#8]
 3132 0114 23EAE373 	 bic r3,r3,r3,asr#31
 705:../Libraries/libscpi/src/lexer.c **** }
 3133              	 .loc 1 705 0
 3134 0118 1846     	 mov r0,r3
 3135 011a 0837     	 adds r7,r7,#8
 3136              	.LCFI204:
 3137              	 .cfi_def_cfa_offset 8
 3138 011c BD46     	 mov sp,r7
 3139              	.LCFI205:
 3140              	 .cfi_def_cfa_register 13
 3141              	 
 3142 011e 80BD     	 pop {r7,pc}
 3143              	 .cfi_endproc
 3144              	.LFE38:
 3146              	 .section .text.isNonzeroDigit,"ax",%progbits
 3147              	 .align 2
 3148              	 .thumb
 3149              	 .thumb_func
 3151              	isNonzeroDigit:
 3152              	.LFB39:
 706:../Libraries/libscpi/src/lexer.c **** 
 707:../Libraries/libscpi/src/lexer.c **** /* 7.7.6 <ARBITRARY BLOCK PROGRAM DATA> */
 708:../Libraries/libscpi/src/lexer.c **** static int isNonzeroDigit(int c) {
 3153              	 .loc 1 708 0
 3154              	 .cfi_startproc
 3155              	 
 3156              	 
 3157              	 
 3158 0000 80B4     	 push {r7}
 3159              	.LCFI206:
 3160              	 .cfi_def_cfa_offset 4
 3161              	 .cfi_offset 7,-4
 3162 0002 83B0     	 sub sp,sp,#12
 3163              	.LCFI207:
 3164              	 .cfi_def_cfa_offset 16
 3165 0004 00AF     	 add r7,sp,#0
 3166              	.LCFI208:
 3167              	 .cfi_def_cfa_register 7
 3168 0006 7860     	 str r0,[r7,#4]
 709:../Libraries/libscpi/src/lexer.c ****     return isdigit(c) && (c != '0');
 3169              	 .loc 1 709 0
 3170 0008 0A4B     	 ldr r3,.L202
 3171 000a 1A68     	 ldr r2,[r3]
 3172 000c 7B68     	 ldr r3,[r7,#4]
 3173 000e 0133     	 adds r3,r3,#1
 3174 0010 1344     	 add r3,r3,r2
 3175 0012 1B78     	 ldrb r3,[r3]
 3176 0014 03F00403 	 and r3,r3,#4
 3177 0018 002B     	 cmp r3,#0
 3178 001a 04D0     	 beq .L199
 3179              	 .loc 1 709 0 is_stmt 0 discriminator 1
 3180 001c 7B68     	 ldr r3,[r7,#4]
 3181 001e 302B     	 cmp r3,#48
 3182 0020 01D0     	 beq .L199
 3183              	 .loc 1 709 0 discriminator 3
 3184 0022 0123     	 movs r3,#1
 3185 0024 00E0     	 b .L200
 3186              	.L199:
 3187              	 .loc 1 709 0 discriminator 4
 3188 0026 0023     	 movs r3,#0
 3189              	.L200:
 710:../Libraries/libscpi/src/lexer.c **** }
 3190              	 .loc 1 710 0 is_stmt 1 discriminator 6
 3191 0028 1846     	 mov r0,r3
 3192 002a 0C37     	 adds r7,r7,#12
 3193              	.LCFI209:
 3194              	 .cfi_def_cfa_offset 4
 3195 002c BD46     	 mov sp,r7
 3196              	.LCFI210:
 3197              	 .cfi_def_cfa_register 13
 3198              	 
 3199 002e 5DF8047B 	 ldr r7,[sp],#4
 3200              	.LCFI211:
 3201              	 .cfi_restore 7
 3202              	 .cfi_def_cfa_offset 0
 3203 0032 7047     	 bx lr
 3204              	.L203:
 3205              	 .align 2
 3206              	.L202:
 3207 0034 00000000 	 .word __ctype_ptr__
 3208              	 .cfi_endproc
 3209              	.LFE39:
 3211              	 .section .text.scpiLex_ArbitraryBlockProgramData,"ax",%progbits
 3212              	 .align 2
 3213              	 .global scpiLex_ArbitraryBlockProgramData
 3214              	 .hidden scpiLex_ArbitraryBlockProgramData
 3215              	 .thumb
 3216              	 .thumb_func
 3218              	scpiLex_ArbitraryBlockProgramData:
 3219              	.LFB40:
 711:../Libraries/libscpi/src/lexer.c **** 
 712:../Libraries/libscpi/src/lexer.c **** /**
 713:../Libraries/libscpi/src/lexer.c ****  * Detect token Block Data
 714:../Libraries/libscpi/src/lexer.c ****  * @param state
 715:../Libraries/libscpi/src/lexer.c ****  * @param token
 716:../Libraries/libscpi/src/lexer.c ****  * @return 
 717:../Libraries/libscpi/src/lexer.c ****  */
 718:../Libraries/libscpi/src/lexer.c **** int scpiLex_ArbitraryBlockProgramData(lex_state_t * state, scpi_token_t * token) {
 3220              	 .loc 1 718 0
 3221              	 .cfi_startproc
 3222              	 
 3223              	 
 3224 0000 80B5     	 push {r7,lr}
 3225              	.LCFI212:
 3226              	 .cfi_def_cfa_offset 8
 3227              	 .cfi_offset 7,-8
 3228              	 .cfi_offset 14,-4
 3229 0002 86B0     	 sub sp,sp,#24
 3230              	.LCFI213:
 3231              	 .cfi_def_cfa_offset 32
 3232 0004 00AF     	 add r7,sp,#0
 3233              	.LCFI214:
 3234              	 .cfi_def_cfa_register 7
 3235 0006 7860     	 str r0,[r7,#4]
 3236 0008 3960     	 str r1,[r7]
 719:../Libraries/libscpi/src/lexer.c ****     int i;
 720:../Libraries/libscpi/src/lexer.c ****     int arbitraryBlockLength = 0;
 3237              	 .loc 1 720 0
 3238 000a 0023     	 movs r3,#0
 3239 000c 3B61     	 str r3,[r7,#16]
 721:../Libraries/libscpi/src/lexer.c ****     const char * ptr = state->pos;
 3240              	 .loc 1 721 0
 3241 000e 7B68     	 ldr r3,[r7,#4]
 3242 0010 5B68     	 ldr r3,[r3,#4]
 3243 0012 BB60     	 str r3,[r7,#8]
 722:../Libraries/libscpi/src/lexer.c ****     int validData = -1;
 3244              	 .loc 1 722 0
 3245 0014 4FF0FF33 	 mov r3,#-1
 3246 0018 FB60     	 str r3,[r7,#12]
 723:../Libraries/libscpi/src/lexer.c ****     token->ptr = state->pos;
 3247              	 .loc 1 723 0
 3248 001a 7B68     	 ldr r3,[r7,#4]
 3249 001c 5A68     	 ldr r2,[r3,#4]
 3250 001e 3B68     	 ldr r3,[r7]
 3251 0020 5A60     	 str r2,[r3,#4]
 724:../Libraries/libscpi/src/lexer.c **** 
 725:../Libraries/libscpi/src/lexer.c ****     if (skipChr(state, '#')) {
 3252              	 .loc 1 725 0
 3253 0022 7868     	 ldr r0,[r7,#4]
 3254 0024 2321     	 movs r1,#35
 3255 0026 FFF7FEFF 	 bl skipChr
 3256 002a 0346     	 mov r3,r0
 3257 002c 002B     	 cmp r3,#0
 3258 002e 77D0     	 beq .L205
 726:../Libraries/libscpi/src/lexer.c ****         if (!iseos(state) && isNonzeroDigit(state->pos[0])) {
 3259              	 .loc 1 726 0
 3260 0030 7868     	 ldr r0,[r7,#4]
 3261 0032 FFF7FEFF 	 bl iseos
 3262 0036 0346     	 mov r3,r0
 3263 0038 002B     	 cmp r3,#0
 3264 003a 69D1     	 bne .L206
 3265              	 .loc 1 726 0 is_stmt 0 discriminator 1
 3266 003c 7B68     	 ldr r3,[r7,#4]
 3267 003e 5B68     	 ldr r3,[r3,#4]
 3268 0040 1B78     	 ldrb r3,[r3]
 3269 0042 1846     	 mov r0,r3
 3270 0044 FFF7FEFF 	 bl isNonzeroDigit
 3271 0048 0346     	 mov r3,r0
 3272 004a 002B     	 cmp r3,#0
 3273 004c 60D0     	 beq .L206
 727:../Libraries/libscpi/src/lexer.c ****             /* Get number of digits */
 728:../Libraries/libscpi/src/lexer.c ****             i = state->pos[0] - '0';
 3274              	 .loc 1 728 0 is_stmt 1
 3275 004e 7B68     	 ldr r3,[r7,#4]
 3276 0050 5B68     	 ldr r3,[r3,#4]
 3277 0052 1B78     	 ldrb r3,[r3]
 3278 0054 303B     	 subs r3,r3,#48
 3279 0056 7B61     	 str r3,[r7,#20]
 729:../Libraries/libscpi/src/lexer.c ****             state->pos++;
 3280              	 .loc 1 729 0
 3281 0058 7B68     	 ldr r3,[r7,#4]
 3282 005a 5B68     	 ldr r3,[r3,#4]
 3283 005c 5A1C     	 adds r2,r3,#1
 3284 005e 7B68     	 ldr r3,[r7,#4]
 3285 0060 5A60     	 str r2,[r3,#4]
 730:../Libraries/libscpi/src/lexer.c **** 
 731:../Libraries/libscpi/src/lexer.c ****             for (; i > 0; i--) {
 3286              	 .loc 1 731 0
 3287 0062 26E0     	 b .L207
 3288              	.L209:
 732:../Libraries/libscpi/src/lexer.c ****                 if (!iseos(state) && isdigit((uint8_t)(state->pos[0]))) {
 3289              	 .loc 1 732 0
 3290 0064 7868     	 ldr r0,[r7,#4]
 3291 0066 FFF7FEFF 	 bl iseos
 3292 006a 0346     	 mov r3,r0
 3293 006c 002B     	 cmp r3,#0
 3294 006e 23D1     	 bne .L208
 3295              	 .loc 1 732 0 is_stmt 0 discriminator 1
 3296 0070 424B     	 ldr r3,.L218
 3297 0072 1A68     	 ldr r2,[r3]
 3298 0074 7B68     	 ldr r3,[r7,#4]
 3299 0076 5B68     	 ldr r3,[r3,#4]
 3300 0078 1B78     	 ldrb r3,[r3]
 3301 007a 0133     	 adds r3,r3,#1
 3302 007c 1344     	 add r3,r3,r2
 3303 007e 1B78     	 ldrb r3,[r3]
 3304 0080 03F00403 	 and r3,r3,#4
 3305 0084 002B     	 cmp r3,#0
 3306 0086 17D0     	 beq .L208
 733:../Libraries/libscpi/src/lexer.c ****                     arbitraryBlockLength *= 10;
 3307              	 .loc 1 733 0 is_stmt 1
 3308 0088 3A69     	 ldr r2,[r7,#16]
 3309 008a 1346     	 mov r3,r2
 3310 008c 9B00     	 lsls r3,r3,#2
 3311 008e 1344     	 add r3,r3,r2
 3312 0090 5B00     	 lsls r3,r3,#1
 3313 0092 3B61     	 str r3,[r7,#16]
 734:../Libraries/libscpi/src/lexer.c ****                     arbitraryBlockLength += (state->pos[0] - '0');
 3314              	 .loc 1 734 0
 3315 0094 7B68     	 ldr r3,[r7,#4]
 3316 0096 5B68     	 ldr r3,[r3,#4]
 3317 0098 1B78     	 ldrb r3,[r3]
 3318 009a 303B     	 subs r3,r3,#48
 3319 009c 3A69     	 ldr r2,[r7,#16]
 3320 009e 1344     	 add r3,r3,r2
 3321 00a0 3B61     	 str r3,[r7,#16]
 735:../Libraries/libscpi/src/lexer.c ****                     state->pos++;
 3322              	 .loc 1 735 0
 3323 00a2 7B68     	 ldr r3,[r7,#4]
 3324 00a4 5B68     	 ldr r3,[r3,#4]
 3325 00a6 5A1C     	 adds r2,r3,#1
 3326 00a8 7B68     	 ldr r3,[r7,#4]
 3327 00aa 5A60     	 str r2,[r3,#4]
 731:../Libraries/libscpi/src/lexer.c ****                 if (!iseos(state) && isdigit((uint8_t)(state->pos[0]))) {
 3328              	 .loc 1 731 0
 3329 00ac 7B69     	 ldr r3,[r7,#20]
 3330 00ae 013B     	 subs r3,r3,#1
 3331 00b0 7B61     	 str r3,[r7,#20]
 3332              	.L207:
 731:../Libraries/libscpi/src/lexer.c ****                 if (!iseos(state) && isdigit((uint8_t)(state->pos[0]))) {
 3333              	 .loc 1 731 0 is_stmt 0 discriminator 1
 3334 00b2 7B69     	 ldr r3,[r7,#20]
 3335 00b4 002B     	 cmp r3,#0
 3336 00b6 D5DC     	 bgt .L209
 3337              	.L208:
 736:../Libraries/libscpi/src/lexer.c ****                 } else {
 737:../Libraries/libscpi/src/lexer.c ****                     break;
 738:../Libraries/libscpi/src/lexer.c ****                 }
 739:../Libraries/libscpi/src/lexer.c ****             }
 740:../Libraries/libscpi/src/lexer.c **** 
 741:../Libraries/libscpi/src/lexer.c ****             if (i == 0) {
 3338              	 .loc 1 741 0 is_stmt 1
 3339 00b8 7B69     	 ldr r3,[r7,#20]
 3340 00ba 002B     	 cmp r3,#0
 3341 00bc 1ED1     	 bne .L210
 742:../Libraries/libscpi/src/lexer.c ****                 state->pos += arbitraryBlockLength;
 3342              	 .loc 1 742 0
 3343 00be 7B68     	 ldr r3,[r7,#4]
 3344 00c0 5A68     	 ldr r2,[r3,#4]
 3345 00c2 3B69     	 ldr r3,[r7,#16]
 3346 00c4 1A44     	 add r2,r2,r3
 3347 00c6 7B68     	 ldr r3,[r7,#4]
 3348 00c8 5A60     	 str r2,[r3,#4]
 743:../Libraries/libscpi/src/lexer.c ****                 if ((state->buffer + state->len) >= (state->pos)) {
 3349              	 .loc 1 743 0
 3350 00ca 7B68     	 ldr r3,[r7,#4]
 3351 00cc 1B68     	 ldr r3,[r3]
 3352 00ce 7A68     	 ldr r2,[r7,#4]
 3353 00d0 9268     	 ldr r2,[r2,#8]
 3354 00d2 1A44     	 add r2,r2,r3
 3355 00d4 7B68     	 ldr r3,[r7,#4]
 3356 00d6 5B68     	 ldr r3,[r3,#4]
 3357 00d8 9A42     	 cmp r2,r3
 3358 00da 0CD3     	 bcc .L211
 744:../Libraries/libscpi/src/lexer.c ****                     token->ptr = state->pos - arbitraryBlockLength;
 3359              	 .loc 1 744 0
 3360 00dc 7B68     	 ldr r3,[r7,#4]
 3361 00de 5A68     	 ldr r2,[r3,#4]
 3362 00e0 3B69     	 ldr r3,[r7,#16]
 3363 00e2 5B42     	 negs r3,r3
 3364 00e4 1A44     	 add r2,r2,r3
 3365 00e6 3B68     	 ldr r3,[r7]
 3366 00e8 5A60     	 str r2,[r3,#4]
 745:../Libraries/libscpi/src/lexer.c ****                     token->len = arbitraryBlockLength;
 3367              	 .loc 1 745 0
 3368 00ea 3B68     	 ldr r3,[r7]
 3369 00ec 3A69     	 ldr r2,[r7,#16]
 3370 00ee 9A60     	 str r2,[r3,#8]
 746:../Libraries/libscpi/src/lexer.c ****                     validData = 1;
 3371              	 .loc 1 746 0
 3372 00f0 0123     	 movs r3,#1
 3373 00f2 FB60     	 str r3,[r7,#12]
 3374 00f4 0BE0     	 b .L213
 3375              	.L211:
 747:../Libraries/libscpi/src/lexer.c ****                 } else {
 748:../Libraries/libscpi/src/lexer.c ****                     validData = 0;
 3376              	 .loc 1 748 0
 3377 00f6 0023     	 movs r3,#0
 3378 00f8 FB60     	 str r3,[r7,#12]
 741:../Libraries/libscpi/src/lexer.c ****                 state->pos += arbitraryBlockLength;
 3379              	 .loc 1 741 0
 3380 00fa 11E0     	 b .L205
 3381              	.L210:
 749:../Libraries/libscpi/src/lexer.c ****                 }
 750:../Libraries/libscpi/src/lexer.c ****             } else if (iseos(state)) {
 3382              	 .loc 1 750 0
 3383 00fc 7868     	 ldr r0,[r7,#4]
 3384 00fe FFF7FEFF 	 bl iseos
 3385 0102 0346     	 mov r3,r0
 3386 0104 002B     	 cmp r3,#0
 3387 0106 02D0     	 beq .L213
 751:../Libraries/libscpi/src/lexer.c ****                 validData = 0;
 3388              	 .loc 1 751 0
 3389 0108 0023     	 movs r3,#0
 3390 010a FB60     	 str r3,[r7,#12]
 741:../Libraries/libscpi/src/lexer.c ****                 state->pos += arbitraryBlockLength;
 3391              	 .loc 1 741 0
 3392 010c 08E0     	 b .L205
 3393              	.L213:
 741:../Libraries/libscpi/src/lexer.c ****                 state->pos += arbitraryBlockLength;
 3394              	 .loc 1 741 0 is_stmt 0 discriminator 1
 3395 010e 07E0     	 b .L205
 3396              	.L206:
 752:../Libraries/libscpi/src/lexer.c ****             }
 753:../Libraries/libscpi/src/lexer.c ****         } else if (iseos(state)) {
 3397              	 .loc 1 753 0 is_stmt 1
 3398 0110 7868     	 ldr r0,[r7,#4]
 3399 0112 FFF7FEFF 	 bl iseos
 3400 0116 0346     	 mov r3,r0
 3401 0118 002B     	 cmp r3,#0
 3402 011a 01D0     	 beq .L205
 754:../Libraries/libscpi/src/lexer.c ****             validData = 0;
 3403              	 .loc 1 754 0
 3404 011c 0023     	 movs r3,#0
 3405 011e FB60     	 str r3,[r7,#12]
 3406              	.L205:
 755:../Libraries/libscpi/src/lexer.c ****         }
 756:../Libraries/libscpi/src/lexer.c ****     }
 757:../Libraries/libscpi/src/lexer.c **** 
 758:../Libraries/libscpi/src/lexer.c ****     if (validData == 1) {
 3407              	 .loc 1 758 0
 3408 0120 FB68     	 ldr r3,[r7,#12]
 3409 0122 012B     	 cmp r3,#1
 3410 0124 03D1     	 bne .L214
 759:../Libraries/libscpi/src/lexer.c ****         /* valid */
 760:../Libraries/libscpi/src/lexer.c ****         token->type = SCPI_TOKEN_ARBITRARY_BLOCK_PROGRAM_DATA;
 3411              	 .loc 1 760 0
 3412 0126 3B68     	 ldr r3,[r7]
 3413 0128 0D22     	 movs r2,#13
 3414 012a 1A70     	 strb r2,[r3]
 3415 012c 1AE0     	 b .L215
 3416              	.L214:
 761:../Libraries/libscpi/src/lexer.c ****     } else if (validData == 0) {
 3417              	 .loc 1 761 0
 3418 012e FB68     	 ldr r3,[r7,#12]
 3419 0130 002B     	 cmp r3,#0
 3420 0132 0DD1     	 bne .L216
 762:../Libraries/libscpi/src/lexer.c ****         /* incomplete */
 763:../Libraries/libscpi/src/lexer.c ****         token->type = SCPI_TOKEN_UNKNOWN;
 3421              	 .loc 1 763 0
 3422 0134 3B68     	 ldr r3,[r7]
 3423 0136 1A22     	 movs r2,#26
 3424 0138 1A70     	 strb r2,[r3]
 764:../Libraries/libscpi/src/lexer.c ****         token->len = 0;
 3425              	 .loc 1 764 0
 3426 013a 3B68     	 ldr r3,[r7]
 3427 013c 0022     	 movs r2,#0
 3428 013e 9A60     	 str r2,[r3,#8]
 765:../Libraries/libscpi/src/lexer.c ****         state->pos = state->buffer + state->len;
 3429              	 .loc 1 765 0
 3430 0140 7B68     	 ldr r3,[r7,#4]
 3431 0142 1B68     	 ldr r3,[r3]
 3432 0144 7A68     	 ldr r2,[r7,#4]
 3433 0146 9268     	 ldr r2,[r2,#8]
 3434 0148 1A44     	 add r2,r2,r3
 3435 014a 7B68     	 ldr r3,[r7,#4]
 3436 014c 5A60     	 str r2,[r3,#4]
 3437 014e 09E0     	 b .L215
 3438              	.L216:
 766:../Libraries/libscpi/src/lexer.c ****     } else {
 767:../Libraries/libscpi/src/lexer.c ****         /* invalid */
 768:../Libraries/libscpi/src/lexer.c ****         token->type = SCPI_TOKEN_UNKNOWN;
 3439              	 .loc 1 768 0
 3440 0150 3B68     	 ldr r3,[r7]
 3441 0152 1A22     	 movs r2,#26
 3442 0154 1A70     	 strb r2,[r3]
 769:../Libraries/libscpi/src/lexer.c ****         state->pos = token->ptr;
 3443              	 .loc 1 769 0
 3444 0156 3B68     	 ldr r3,[r7]
 3445 0158 5A68     	 ldr r2,[r3,#4]
 3446 015a 7B68     	 ldr r3,[r7,#4]
 3447 015c 5A60     	 str r2,[r3,#4]
 770:../Libraries/libscpi/src/lexer.c ****         token->len = 0;
 3448              	 .loc 1 770 0
 3449 015e 3B68     	 ldr r3,[r7]
 3450 0160 0022     	 movs r2,#0
 3451 0162 9A60     	 str r2,[r3,#8]
 3452              	.L215:
 771:../Libraries/libscpi/src/lexer.c ****     }
 772:../Libraries/libscpi/src/lexer.c **** 
 773:../Libraries/libscpi/src/lexer.c ****     return token->len + (token->ptr - ptr);
 3453              	 .loc 1 773 0
 3454 0164 3B68     	 ldr r3,[r7]
 3455 0166 9A68     	 ldr r2,[r3,#8]
 3456 0168 3B68     	 ldr r3,[r7]
 3457 016a 5B68     	 ldr r3,[r3,#4]
 3458 016c 1946     	 mov r1,r3
 3459 016e BB68     	 ldr r3,[r7,#8]
 3460 0170 CB1A     	 subs r3,r1,r3
 3461 0172 1344     	 add r3,r3,r2
 774:../Libraries/libscpi/src/lexer.c **** }
 3462              	 .loc 1 774 0
 3463 0174 1846     	 mov r0,r3
 3464 0176 1837     	 adds r7,r7,#24
 3465              	.LCFI215:
 3466              	 .cfi_def_cfa_offset 8
 3467 0178 BD46     	 mov sp,r7
 3468              	.LCFI216:
 3469              	 .cfi_def_cfa_register 13
 3470              	 
 3471 017a 80BD     	 pop {r7,pc}
 3472              	.L219:
 3473              	 .align 2
 3474              	.L218:
 3475 017c 00000000 	 .word __ctype_ptr__
 3476              	 .cfi_endproc
 3477              	.LFE40:
 3479              	 .section .text.isProgramExpression,"ax",%progbits
 3480              	 .align 2
 3481              	 .thumb
 3482              	 .thumb_func
 3484              	isProgramExpression:
 3485              	.LFB41:
 775:../Libraries/libscpi/src/lexer.c **** 
 776:../Libraries/libscpi/src/lexer.c **** /* 7.7.7 <EXPRESSION PROGRAM DATA> */
 777:../Libraries/libscpi/src/lexer.c **** static int isProgramExpression(int c) {
 3486              	 .loc 1 777 0
 3487              	 .cfi_startproc
 3488              	 
 3489              	 
 3490              	 
 3491 0000 80B4     	 push {r7}
 3492              	.LCFI217:
 3493              	 .cfi_def_cfa_offset 4
 3494              	 .cfi_offset 7,-4
 3495 0002 83B0     	 sub sp,sp,#12
 3496              	.LCFI218:
 3497              	 .cfi_def_cfa_offset 16
 3498 0004 00AF     	 add r7,sp,#0
 3499              	.LCFI219:
 3500              	 .cfi_def_cfa_register 7
 3501 0006 7860     	 str r0,[r7,#4]
 778:../Libraries/libscpi/src/lexer.c ****     if ((c >= 0x20) && (c <= 0x7e)) {
 3502              	 .loc 1 778 0
 3503 0008 7B68     	 ldr r3,[r7,#4]
 3504 000a 1F2B     	 cmp r3,#31
 3505 000c 16DD     	 ble .L221
 3506              	 .loc 1 778 0 is_stmt 0 discriminator 1
 3507 000e 7B68     	 ldr r3,[r7,#4]
 3508 0010 7E2B     	 cmp r3,#126
 3509 0012 13DC     	 bgt .L221
 779:../Libraries/libscpi/src/lexer.c ****         if ((c != '"')
 3510              	 .loc 1 779 0 is_stmt 1
 3511 0014 7B68     	 ldr r3,[r7,#4]
 3512 0016 222B     	 cmp r3,#34
 3513 0018 10D0     	 beq .L221
 780:../Libraries/libscpi/src/lexer.c ****                 && (c != '#')
 3514              	 .loc 1 780 0
 3515 001a 7B68     	 ldr r3,[r7,#4]
 3516 001c 232B     	 cmp r3,#35
 3517 001e 0DD0     	 beq .L221
 781:../Libraries/libscpi/src/lexer.c ****                 && (c != '\'')
 3518              	 .loc 1 781 0
 3519 0020 7B68     	 ldr r3,[r7,#4]
 3520 0022 272B     	 cmp r3,#39
 3521 0024 0AD0     	 beq .L221
 782:../Libraries/libscpi/src/lexer.c ****                 && (c != '(')
 3522              	 .loc 1 782 0
 3523 0026 7B68     	 ldr r3,[r7,#4]
 3524 0028 282B     	 cmp r3,#40
 3525 002a 07D0     	 beq .L221
 783:../Libraries/libscpi/src/lexer.c ****                 && (c != ')')
 3526              	 .loc 1 783 0
 3527 002c 7B68     	 ldr r3,[r7,#4]
 3528 002e 292B     	 cmp r3,#41
 3529 0030 04D0     	 beq .L221
 784:../Libraries/libscpi/src/lexer.c ****                 && (c != ';')) {
 3530              	 .loc 1 784 0
 3531 0032 7B68     	 ldr r3,[r7,#4]
 3532 0034 3B2B     	 cmp r3,#59
 3533 0036 01D0     	 beq .L221
 785:../Libraries/libscpi/src/lexer.c ****             return 1;
 3534              	 .loc 1 785 0
 3535 0038 0123     	 movs r3,#1
 3536 003a 00E0     	 b .L222
 3537              	.L221:
 786:../Libraries/libscpi/src/lexer.c ****         }
 787:../Libraries/libscpi/src/lexer.c ****     }
 788:../Libraries/libscpi/src/lexer.c **** 
 789:../Libraries/libscpi/src/lexer.c ****     return 0;
 3538              	 .loc 1 789 0
 3539 003c 0023     	 movs r3,#0
 3540              	.L222:
 790:../Libraries/libscpi/src/lexer.c **** }
 3541              	 .loc 1 790 0
 3542 003e 1846     	 mov r0,r3
 3543 0040 0C37     	 adds r7,r7,#12
 3544              	.LCFI220:
 3545              	 .cfi_def_cfa_offset 4
 3546 0042 BD46     	 mov sp,r7
 3547              	.LCFI221:
 3548              	 .cfi_def_cfa_register 13
 3549              	 
 3550 0044 5DF8047B 	 ldr r7,[sp],#4
 3551              	.LCFI222:
 3552              	 .cfi_restore 7
 3553              	 .cfi_def_cfa_offset 0
 3554 0048 7047     	 bx lr
 3555              	 .cfi_endproc
 3556              	.LFE41:
 3558 004a 00BF     	 .section .text.skipProgramExpression,"ax",%progbits
 3559              	 .align 2
 3560              	 .thumb
 3561              	 .thumb_func
 3563              	skipProgramExpression:
 3564              	.LFB42:
 791:../Libraries/libscpi/src/lexer.c **** 
 792:../Libraries/libscpi/src/lexer.c **** static void skipProgramExpression(lex_state_t * state) {
 3565              	 .loc 1 792 0
 3566              	 .cfi_startproc
 3567              	 
 3568              	 
 3569 0000 80B5     	 push {r7,lr}
 3570              	.LCFI223:
 3571              	 .cfi_def_cfa_offset 8
 3572              	 .cfi_offset 7,-8
 3573              	 .cfi_offset 14,-4
 3574 0002 82B0     	 sub sp,sp,#8
 3575              	.LCFI224:
 3576              	 .cfi_def_cfa_offset 16
 3577 0004 00AF     	 add r7,sp,#0
 3578              	.LCFI225:
 3579              	 .cfi_def_cfa_register 7
 3580 0006 7860     	 str r0,[r7,#4]
 793:../Libraries/libscpi/src/lexer.c ****     while (!iseos(state) && isProgramExpression(state->pos[0])) {
 3581              	 .loc 1 793 0
 3582 0008 04E0     	 b .L224
 3583              	.L226:
 794:../Libraries/libscpi/src/lexer.c ****         state->pos++;
 3584              	 .loc 1 794 0
 3585 000a 7B68     	 ldr r3,[r7,#4]
 3586 000c 5B68     	 ldr r3,[r3,#4]
 3587 000e 5A1C     	 adds r2,r3,#1
 3588 0010 7B68     	 ldr r3,[r7,#4]
 3589 0012 5A60     	 str r2,[r3,#4]
 3590              	.L224:
 793:../Libraries/libscpi/src/lexer.c ****     while (!iseos(state) && isProgramExpression(state->pos[0])) {
 3591              	 .loc 1 793 0
 3592 0014 7868     	 ldr r0,[r7,#4]
 3593 0016 FFF7FEFF 	 bl iseos
 3594 001a 0346     	 mov r3,r0
 3595 001c 002B     	 cmp r3,#0
 3596 001e 08D1     	 bne .L223
 793:../Libraries/libscpi/src/lexer.c ****     while (!iseos(state) && isProgramExpression(state->pos[0])) {
 3597              	 .loc 1 793 0 is_stmt 0 discriminator 1
 3598 0020 7B68     	 ldr r3,[r7,#4]
 3599 0022 5B68     	 ldr r3,[r3,#4]
 3600 0024 1B78     	 ldrb r3,[r3]
 3601 0026 1846     	 mov r0,r3
 3602 0028 FFF7FEFF 	 bl isProgramExpression
 3603 002c 0346     	 mov r3,r0
 3604 002e 002B     	 cmp r3,#0
 3605 0030 EBD1     	 bne .L226
 3606              	.L223:
 795:../Libraries/libscpi/src/lexer.c ****     }
 796:../Libraries/libscpi/src/lexer.c **** }
 3607              	 .loc 1 796 0 is_stmt 1
 3608 0032 0837     	 adds r7,r7,#8
 3609              	.LCFI226:
 3610              	 .cfi_def_cfa_offset 8
 3611 0034 BD46     	 mov sp,r7
 3612              	.LCFI227:
 3613              	 .cfi_def_cfa_register 13
 3614              	 
 3615 0036 80BD     	 pop {r7,pc}
 3616              	 .cfi_endproc
 3617              	.LFE42:
 3619              	 .section .text.scpiLex_ProgramExpression,"ax",%progbits
 3620              	 .align 2
 3621              	 .global scpiLex_ProgramExpression
 3622              	 .hidden scpiLex_ProgramExpression
 3623              	 .thumb
 3624              	 .thumb_func
 3626              	scpiLex_ProgramExpression:
 3627              	.LFB43:
 797:../Libraries/libscpi/src/lexer.c **** 
 798:../Libraries/libscpi/src/lexer.c **** /* TODO: 7.7.7.2-2 recursive - any program data */
 799:../Libraries/libscpi/src/lexer.c **** 
 800:../Libraries/libscpi/src/lexer.c **** /**
 801:../Libraries/libscpi/src/lexer.c ****  * Detect token Expression
 802:../Libraries/libscpi/src/lexer.c ****  * @param state
 803:../Libraries/libscpi/src/lexer.c ****  * @param token
 804:../Libraries/libscpi/src/lexer.c ****  * @return 
 805:../Libraries/libscpi/src/lexer.c ****  */
 806:../Libraries/libscpi/src/lexer.c **** int scpiLex_ProgramExpression(lex_state_t * state, scpi_token_t * token) {
 3628              	 .loc 1 806 0
 3629              	 .cfi_startproc
 3630              	 
 3631              	 
 3632 0000 80B5     	 push {r7,lr}
 3633              	.LCFI228:
 3634              	 .cfi_def_cfa_offset 8
 3635              	 .cfi_offset 7,-8
 3636              	 .cfi_offset 14,-4
 3637 0002 82B0     	 sub sp,sp,#8
 3638              	.LCFI229:
 3639              	 .cfi_def_cfa_offset 16
 3640 0004 00AF     	 add r7,sp,#0
 3641              	.LCFI230:
 3642              	 .cfi_def_cfa_register 7
 3643 0006 7860     	 str r0,[r7,#4]
 3644 0008 3960     	 str r1,[r7]
 807:../Libraries/libscpi/src/lexer.c ****     token->ptr = state->pos;
 3645              	 .loc 1 807 0
 3646 000a 7B68     	 ldr r3,[r7,#4]
 3647 000c 5A68     	 ldr r2,[r3,#4]
 3648 000e 3B68     	 ldr r3,[r7]
 3649 0010 5A60     	 str r2,[r3,#4]
 808:../Libraries/libscpi/src/lexer.c **** 
 809:../Libraries/libscpi/src/lexer.c ****     if (!iseos(state) && ischr(state, '(')) {
 3650              	 .loc 1 809 0
 3651 0012 7868     	 ldr r0,[r7,#4]
 3652 0014 FFF7FEFF 	 bl iseos
 3653 0018 0346     	 mov r3,r0
 3654 001a 002B     	 cmp r3,#0
 3655 001c 2CD1     	 bne .L228
 3656              	 .loc 1 809 0 is_stmt 0 discriminator 1
 3657 001e 7868     	 ldr r0,[r7,#4]
 3658 0020 2821     	 movs r1,#40
 3659 0022 FFF7FEFF 	 bl ischr
 3660 0026 0346     	 mov r3,r0
 3661 0028 002B     	 cmp r3,#0
 3662 002a 25D0     	 beq .L228
 810:../Libraries/libscpi/src/lexer.c ****         state->pos++;
 3663              	 .loc 1 810 0 is_stmt 1
 3664 002c 7B68     	 ldr r3,[r7,#4]
 3665 002e 5B68     	 ldr r3,[r3,#4]
 3666 0030 5A1C     	 adds r2,r3,#1
 3667 0032 7B68     	 ldr r3,[r7,#4]
 3668 0034 5A60     	 str r2,[r3,#4]
 811:../Libraries/libscpi/src/lexer.c ****         skipProgramExpression(state);
 3669              	 .loc 1 811 0
 3670 0036 7868     	 ldr r0,[r7,#4]
 3671 0038 FFF7FEFF 	 bl skipProgramExpression
 812:../Libraries/libscpi/src/lexer.c **** 
 813:../Libraries/libscpi/src/lexer.c ****         if (!iseos(state) && ischr(state, ')')) {
 3672              	 .loc 1 813 0
 3673 003c 7868     	 ldr r0,[r7,#4]
 3674 003e FFF7FEFF 	 bl iseos
 3675 0042 0346     	 mov r3,r0
 3676 0044 002B     	 cmp r3,#0
 3677 0046 14D1     	 bne .L229
 3678              	 .loc 1 813 0 is_stmt 0 discriminator 1
 3679 0048 7868     	 ldr r0,[r7,#4]
 3680 004a 2921     	 movs r1,#41
 3681 004c FFF7FEFF 	 bl ischr
 3682 0050 0346     	 mov r3,r0
 3683 0052 002B     	 cmp r3,#0
 3684 0054 0DD0     	 beq .L229
 814:../Libraries/libscpi/src/lexer.c ****             state->pos++;
 3685              	 .loc 1 814 0 is_stmt 1
 3686 0056 7B68     	 ldr r3,[r7,#4]
 3687 0058 5B68     	 ldr r3,[r3,#4]
 3688 005a 5A1C     	 adds r2,r3,#1
 3689 005c 7B68     	 ldr r3,[r7,#4]
 3690 005e 5A60     	 str r2,[r3,#4]
 815:../Libraries/libscpi/src/lexer.c ****             token->len = state->pos - token->ptr;
 3691              	 .loc 1 815 0
 3692 0060 7B68     	 ldr r3,[r7,#4]
 3693 0062 5B68     	 ldr r3,[r3,#4]
 3694 0064 1A46     	 mov r2,r3
 3695 0066 3B68     	 ldr r3,[r7]
 3696 0068 5B68     	 ldr r3,[r3,#4]
 3697 006a D21A     	 subs r2,r2,r3
 3698 006c 3B68     	 ldr r3,[r7]
 3699 006e 9A60     	 str r2,[r3,#8]
 3700 0070 02E0     	 b .L228
 3701              	.L229:
 816:../Libraries/libscpi/src/lexer.c ****         } else {
 817:../Libraries/libscpi/src/lexer.c ****             token->len = 0;
 3702              	 .loc 1 817 0
 3703 0072 3B68     	 ldr r3,[r7]
 3704 0074 0022     	 movs r2,#0
 3705 0076 9A60     	 str r2,[r3,#8]
 3706              	.L228:
 818:../Libraries/libscpi/src/lexer.c ****         }
 819:../Libraries/libscpi/src/lexer.c ****     }
 820:../Libraries/libscpi/src/lexer.c **** 
 821:../Libraries/libscpi/src/lexer.c ****     if ((token->len > 0)) {
 3707              	 .loc 1 821 0
 3708 0078 3B68     	 ldr r3,[r7]
 3709 007a 9B68     	 ldr r3,[r3,#8]
 3710 007c 002B     	 cmp r3,#0
 3711 007e 03DD     	 ble .L230
 822:../Libraries/libscpi/src/lexer.c ****         token->type = SCPI_TOKEN_PROGRAM_EXPRESSION;
 3712              	 .loc 1 822 0
 3713 0080 3B68     	 ldr r3,[r7]
 3714 0082 1022     	 movs r2,#16
 3715 0084 1A70     	 strb r2,[r3]
 3716 0086 09E0     	 b .L231
 3717              	.L230:
 823:../Libraries/libscpi/src/lexer.c ****     } else {
 824:../Libraries/libscpi/src/lexer.c ****         token->type = SCPI_TOKEN_UNKNOWN;
 3718              	 .loc 1 824 0
 3719 0088 3B68     	 ldr r3,[r7]
 3720 008a 1A22     	 movs r2,#26
 3721 008c 1A70     	 strb r2,[r3]
 825:../Libraries/libscpi/src/lexer.c ****         state->pos = token->ptr;
 3722              	 .loc 1 825 0
 3723 008e 3B68     	 ldr r3,[r7]
 3724 0090 5A68     	 ldr r2,[r3,#4]
 3725 0092 7B68     	 ldr r3,[r7,#4]
 3726 0094 5A60     	 str r2,[r3,#4]
 826:../Libraries/libscpi/src/lexer.c ****         token->len = 0;
 3727              	 .loc 1 826 0
 3728 0096 3B68     	 ldr r3,[r7]
 3729 0098 0022     	 movs r2,#0
 3730 009a 9A60     	 str r2,[r3,#8]
 3731              	.L231:
 827:../Libraries/libscpi/src/lexer.c ****     }
 828:../Libraries/libscpi/src/lexer.c **** 
 829:../Libraries/libscpi/src/lexer.c ****     return token->len;
 3732              	 .loc 1 829 0
 3733 009c 3B68     	 ldr r3,[r7]
 3734 009e 9B68     	 ldr r3,[r3,#8]
 830:../Libraries/libscpi/src/lexer.c **** }
 3735              	 .loc 1 830 0
 3736 00a0 1846     	 mov r0,r3
 3737 00a2 0837     	 adds r7,r7,#8
 3738              	.LCFI231:
 3739              	 .cfi_def_cfa_offset 8
 3740 00a4 BD46     	 mov sp,r7
 3741              	.LCFI232:
 3742              	 .cfi_def_cfa_register 13
 3743              	 
 3744 00a6 80BD     	 pop {r7,pc}
 3745              	 .cfi_endproc
 3746              	.LFE43:
 3748              	 .section .text.scpiLex_Comma,"ax",%progbits
 3749              	 .align 2
 3750              	 .global scpiLex_Comma
 3751              	 .hidden scpiLex_Comma
 3752              	 .thumb
 3753              	 .thumb_func
 3755              	scpiLex_Comma:
 3756              	.LFB44:
 831:../Libraries/libscpi/src/lexer.c **** 
 832:../Libraries/libscpi/src/lexer.c **** /**
 833:../Libraries/libscpi/src/lexer.c ****  * Detect token comma
 834:../Libraries/libscpi/src/lexer.c ****  * @param state
 835:../Libraries/libscpi/src/lexer.c ****  * @param token
 836:../Libraries/libscpi/src/lexer.c ****  * @return 
 837:../Libraries/libscpi/src/lexer.c ****  */
 838:../Libraries/libscpi/src/lexer.c **** int scpiLex_Comma(lex_state_t * state, scpi_token_t * token) {
 3757              	 .loc 1 838 0
 3758              	 .cfi_startproc
 3759              	 
 3760              	 
 3761 0000 80B5     	 push {r7,lr}
 3762              	.LCFI233:
 3763              	 .cfi_def_cfa_offset 8
 3764              	 .cfi_offset 7,-8
 3765              	 .cfi_offset 14,-4
 3766 0002 82B0     	 sub sp,sp,#8
 3767              	.LCFI234:
 3768              	 .cfi_def_cfa_offset 16
 3769 0004 00AF     	 add r7,sp,#0
 3770              	.LCFI235:
 3771              	 .cfi_def_cfa_register 7
 3772 0006 7860     	 str r0,[r7,#4]
 3773 0008 3960     	 str r1,[r7]
 839:../Libraries/libscpi/src/lexer.c ****     token->ptr = state->pos;
 3774              	 .loc 1 839 0
 3775 000a 7B68     	 ldr r3,[r7,#4]
 3776 000c 5A68     	 ldr r2,[r3,#4]
 3777 000e 3B68     	 ldr r3,[r7]
 3778 0010 5A60     	 str r2,[r3,#4]
 840:../Libraries/libscpi/src/lexer.c **** 
 841:../Libraries/libscpi/src/lexer.c ****     if (skipChr(state, ',')) {
 3779              	 .loc 1 841 0
 3780 0012 7868     	 ldr r0,[r7,#4]
 3781 0014 2C21     	 movs r1,#44
 3782 0016 FFF7FEFF 	 bl skipChr
 3783 001a 0346     	 mov r3,r0
 3784 001c 002B     	 cmp r3,#0
 3785 001e 06D0     	 beq .L234
 842:../Libraries/libscpi/src/lexer.c ****         token->len = 1;
 3786              	 .loc 1 842 0
 3787 0020 3B68     	 ldr r3,[r7]
 3788 0022 0122     	 movs r2,#1
 3789 0024 9A60     	 str r2,[r3,#8]
 843:../Libraries/libscpi/src/lexer.c ****         token->type = SCPI_TOKEN_COMMA;
 3790              	 .loc 1 843 0
 3791 0026 3B68     	 ldr r3,[r7]
 3792 0028 0022     	 movs r2,#0
 3793 002a 1A70     	 strb r2,[r3]
 3794 002c 05E0     	 b .L235
 3795              	.L234:
 844:../Libraries/libscpi/src/lexer.c ****     } else {
 845:../Libraries/libscpi/src/lexer.c ****         token->len = 0;
 3796              	 .loc 1 845 0
 3797 002e 3B68     	 ldr r3,[r7]
 3798 0030 0022     	 movs r2,#0
 3799 0032 9A60     	 str r2,[r3,#8]
 846:../Libraries/libscpi/src/lexer.c ****         token->type = SCPI_TOKEN_UNKNOWN;
 3800              	 .loc 1 846 0
 3801 0034 3B68     	 ldr r3,[r7]
 3802 0036 1A22     	 movs r2,#26
 3803 0038 1A70     	 strb r2,[r3]
 3804              	.L235:
 847:../Libraries/libscpi/src/lexer.c ****     }
 848:../Libraries/libscpi/src/lexer.c **** 
 849:../Libraries/libscpi/src/lexer.c ****     return token->len;
 3805              	 .loc 1 849 0
 3806 003a 3B68     	 ldr r3,[r7]
 3807 003c 9B68     	 ldr r3,[r3,#8]
 850:../Libraries/libscpi/src/lexer.c **** }
 3808              	 .loc 1 850 0
 3809 003e 1846     	 mov r0,r3
 3810 0040 0837     	 adds r7,r7,#8
 3811              	.LCFI236:
 3812              	 .cfi_def_cfa_offset 8
 3813 0042 BD46     	 mov sp,r7
 3814              	.LCFI237:
 3815              	 .cfi_def_cfa_register 13
 3816              	 
 3817 0044 80BD     	 pop {r7,pc}
 3818              	 .cfi_endproc
 3819              	.LFE44:
 3821 0046 00BF     	 .section .text.scpiLex_Semicolon,"ax",%progbits
 3822              	 .align 2
 3823              	 .global scpiLex_Semicolon
 3824              	 .hidden scpiLex_Semicolon
 3825              	 .thumb
 3826              	 .thumb_func
 3828              	scpiLex_Semicolon:
 3829              	.LFB45:
 851:../Libraries/libscpi/src/lexer.c **** 
 852:../Libraries/libscpi/src/lexer.c **** /**
 853:../Libraries/libscpi/src/lexer.c ****  * Detect token semicolon
 854:../Libraries/libscpi/src/lexer.c ****  * @param state
 855:../Libraries/libscpi/src/lexer.c ****  * @param token
 856:../Libraries/libscpi/src/lexer.c ****  * @return 
 857:../Libraries/libscpi/src/lexer.c ****  */
 858:../Libraries/libscpi/src/lexer.c **** int scpiLex_Semicolon(lex_state_t * state, scpi_token_t * token) {
 3830              	 .loc 1 858 0
 3831              	 .cfi_startproc
 3832              	 
 3833              	 
 3834 0000 80B5     	 push {r7,lr}
 3835              	.LCFI238:
 3836              	 .cfi_def_cfa_offset 8
 3837              	 .cfi_offset 7,-8
 3838              	 .cfi_offset 14,-4
 3839 0002 82B0     	 sub sp,sp,#8
 3840              	.LCFI239:
 3841              	 .cfi_def_cfa_offset 16
 3842 0004 00AF     	 add r7,sp,#0
 3843              	.LCFI240:
 3844              	 .cfi_def_cfa_register 7
 3845 0006 7860     	 str r0,[r7,#4]
 3846 0008 3960     	 str r1,[r7]
 859:../Libraries/libscpi/src/lexer.c ****     token->ptr = state->pos;
 3847              	 .loc 1 859 0
 3848 000a 7B68     	 ldr r3,[r7,#4]
 3849 000c 5A68     	 ldr r2,[r3,#4]
 3850 000e 3B68     	 ldr r3,[r7]
 3851 0010 5A60     	 str r2,[r3,#4]
 860:../Libraries/libscpi/src/lexer.c **** 
 861:../Libraries/libscpi/src/lexer.c ****     if (skipChr(state, ';')) {
 3852              	 .loc 1 861 0
 3853 0012 7868     	 ldr r0,[r7,#4]
 3854 0014 3B21     	 movs r1,#59
 3855 0016 FFF7FEFF 	 bl skipChr
 3856 001a 0346     	 mov r3,r0
 3857 001c 002B     	 cmp r3,#0
 3858 001e 06D0     	 beq .L238
 862:../Libraries/libscpi/src/lexer.c ****         token->len = 1;
 3859              	 .loc 1 862 0
 3860 0020 3B68     	 ldr r3,[r7]
 3861 0022 0122     	 movs r2,#1
 3862 0024 9A60     	 str r2,[r3,#8]
 863:../Libraries/libscpi/src/lexer.c ****         token->type = SCPI_TOKEN_SEMICOLON;
 3863              	 .loc 1 863 0
 3864 0026 3B68     	 ldr r3,[r7]
 3865 0028 0122     	 movs r2,#1
 3866 002a 1A70     	 strb r2,[r3]
 3867 002c 05E0     	 b .L239
 3868              	.L238:
 864:../Libraries/libscpi/src/lexer.c ****     } else {
 865:../Libraries/libscpi/src/lexer.c ****         token->len = 0;
 3869              	 .loc 1 865 0
 3870 002e 3B68     	 ldr r3,[r7]
 3871 0030 0022     	 movs r2,#0
 3872 0032 9A60     	 str r2,[r3,#8]
 866:../Libraries/libscpi/src/lexer.c ****         token->type = SCPI_TOKEN_UNKNOWN;
 3873              	 .loc 1 866 0
 3874 0034 3B68     	 ldr r3,[r7]
 3875 0036 1A22     	 movs r2,#26
 3876 0038 1A70     	 strb r2,[r3]
 3877              	.L239:
 867:../Libraries/libscpi/src/lexer.c ****     }
 868:../Libraries/libscpi/src/lexer.c **** 
 869:../Libraries/libscpi/src/lexer.c ****     return token->len;
 3878              	 .loc 1 869 0
 3879 003a 3B68     	 ldr r3,[r7]
 3880 003c 9B68     	 ldr r3,[r3,#8]
 870:../Libraries/libscpi/src/lexer.c **** }
 3881              	 .loc 1 870 0
 3882 003e 1846     	 mov r0,r3
 3883 0040 0837     	 adds r7,r7,#8
 3884              	.LCFI241:
 3885              	 .cfi_def_cfa_offset 8
 3886 0042 BD46     	 mov sp,r7
 3887              	.LCFI242:
 3888              	 .cfi_def_cfa_register 13
 3889              	 
 3890 0044 80BD     	 pop {r7,pc}
 3891              	 .cfi_endproc
 3892              	.LFE45:
 3894 0046 00BF     	 .section .text.scpiLex_Colon,"ax",%progbits
 3895              	 .align 2
 3896              	 .global scpiLex_Colon
 3897              	 .hidden scpiLex_Colon
 3898              	 .thumb
 3899              	 .thumb_func
 3901              	scpiLex_Colon:
 3902              	.LFB46:
 871:../Libraries/libscpi/src/lexer.c **** 
 872:../Libraries/libscpi/src/lexer.c **** /**
 873:../Libraries/libscpi/src/lexer.c ****  * Detect token colon
 874:../Libraries/libscpi/src/lexer.c ****  * @param state
 875:../Libraries/libscpi/src/lexer.c ****  * @param token
 876:../Libraries/libscpi/src/lexer.c ****  * @return 
 877:../Libraries/libscpi/src/lexer.c ****  */
 878:../Libraries/libscpi/src/lexer.c **** int scpiLex_Colon(lex_state_t * state, scpi_token_t * token) {
 3903              	 .loc 1 878 0
 3904              	 .cfi_startproc
 3905              	 
 3906              	 
 3907 0000 80B5     	 push {r7,lr}
 3908              	.LCFI243:
 3909              	 .cfi_def_cfa_offset 8
 3910              	 .cfi_offset 7,-8
 3911              	 .cfi_offset 14,-4
 3912 0002 82B0     	 sub sp,sp,#8
 3913              	.LCFI244:
 3914              	 .cfi_def_cfa_offset 16
 3915 0004 00AF     	 add r7,sp,#0
 3916              	.LCFI245:
 3917              	 .cfi_def_cfa_register 7
 3918 0006 7860     	 str r0,[r7,#4]
 3919 0008 3960     	 str r1,[r7]
 879:../Libraries/libscpi/src/lexer.c ****     token->ptr = state->pos;
 3920              	 .loc 1 879 0
 3921 000a 7B68     	 ldr r3,[r7,#4]
 3922 000c 5A68     	 ldr r2,[r3,#4]
 3923 000e 3B68     	 ldr r3,[r7]
 3924 0010 5A60     	 str r2,[r3,#4]
 880:../Libraries/libscpi/src/lexer.c **** 
 881:../Libraries/libscpi/src/lexer.c ****     if (skipChr(state, ':')) {
 3925              	 .loc 1 881 0
 3926 0012 7868     	 ldr r0,[r7,#4]
 3927 0014 3A21     	 movs r1,#58
 3928 0016 FFF7FEFF 	 bl skipChr
 3929 001a 0346     	 mov r3,r0
 3930 001c 002B     	 cmp r3,#0
 3931 001e 06D0     	 beq .L242
 882:../Libraries/libscpi/src/lexer.c ****         token->len = 1;
 3932              	 .loc 1 882 0
 3933 0020 3B68     	 ldr r3,[r7]
 3934 0022 0122     	 movs r2,#1
 3935 0024 9A60     	 str r2,[r3,#8]
 883:../Libraries/libscpi/src/lexer.c ****         token->type = SCPI_TOKEN_COLON;
 3936              	 .loc 1 883 0
 3937 0026 3B68     	 ldr r3,[r7]
 3938 0028 0222     	 movs r2,#2
 3939 002a 1A70     	 strb r2,[r3]
 3940 002c 05E0     	 b .L243
 3941              	.L242:
 884:../Libraries/libscpi/src/lexer.c ****     } else {
 885:../Libraries/libscpi/src/lexer.c ****         token->len = 0;
 3942              	 .loc 1 885 0
 3943 002e 3B68     	 ldr r3,[r7]
 3944 0030 0022     	 movs r2,#0
 3945 0032 9A60     	 str r2,[r3,#8]
 886:../Libraries/libscpi/src/lexer.c ****         token->type = SCPI_TOKEN_UNKNOWN;
 3946              	 .loc 1 886 0
 3947 0034 3B68     	 ldr r3,[r7]
 3948 0036 1A22     	 movs r2,#26
 3949 0038 1A70     	 strb r2,[r3]
 3950              	.L243:
 887:../Libraries/libscpi/src/lexer.c ****     }
 888:../Libraries/libscpi/src/lexer.c **** 
 889:../Libraries/libscpi/src/lexer.c ****     return token->len;
 3951              	 .loc 1 889 0
 3952 003a 3B68     	 ldr r3,[r7]
 3953 003c 9B68     	 ldr r3,[r3,#8]
 890:../Libraries/libscpi/src/lexer.c **** }
 3954              	 .loc 1 890 0
 3955 003e 1846     	 mov r0,r3
 3956 0040 0837     	 adds r7,r7,#8
 3957              	.LCFI246:
 3958              	 .cfi_def_cfa_offset 8
 3959 0042 BD46     	 mov sp,r7
 3960              	.LCFI247:
 3961              	 .cfi_def_cfa_register 13
 3962              	 
 3963 0044 80BD     	 pop {r7,pc}
 3964              	 .cfi_endproc
 3965              	.LFE46:
 3967 0046 00BF     	 .section .text.scpiLex_SpecificCharacter,"ax",%progbits
 3968              	 .align 2
 3969              	 .global scpiLex_SpecificCharacter
 3970              	 .hidden scpiLex_SpecificCharacter
 3971              	 .thumb
 3972              	 .thumb_func
 3974              	scpiLex_SpecificCharacter:
 3975              	.LFB47:
 891:../Libraries/libscpi/src/lexer.c **** 
 892:../Libraries/libscpi/src/lexer.c **** /**
 893:../Libraries/libscpi/src/lexer.c ****  * Detect specified character
 894:../Libraries/libscpi/src/lexer.c ****  * @param state
 895:../Libraries/libscpi/src/lexer.c ****  * @param token
 896:../Libraries/libscpi/src/lexer.c ****  * @return 
 897:../Libraries/libscpi/src/lexer.c ****  */
 898:../Libraries/libscpi/src/lexer.c **** int scpiLex_SpecificCharacter(lex_state_t * state, scpi_token_t * token, char chr) {
 3976              	 .loc 1 898 0
 3977              	 .cfi_startproc
 3978              	 
 3979              	 
 3980 0000 80B5     	 push {r7,lr}
 3981              	.LCFI248:
 3982              	 .cfi_def_cfa_offset 8
 3983              	 .cfi_offset 7,-8
 3984              	 .cfi_offset 14,-4
 3985 0002 84B0     	 sub sp,sp,#16
 3986              	.LCFI249:
 3987              	 .cfi_def_cfa_offset 24
 3988 0004 00AF     	 add r7,sp,#0
 3989              	.LCFI250:
 3990              	 .cfi_def_cfa_register 7
 3991 0006 F860     	 str r0,[r7,#12]
 3992 0008 B960     	 str r1,[r7,#8]
 3993 000a 1346     	 mov r3,r2
 3994 000c FB71     	 strb r3,[r7,#7]
 899:../Libraries/libscpi/src/lexer.c ****     token->ptr = state->pos;
 3995              	 .loc 1 899 0
 3996 000e FB68     	 ldr r3,[r7,#12]
 3997 0010 5A68     	 ldr r2,[r3,#4]
 3998 0012 BB68     	 ldr r3,[r7,#8]
 3999 0014 5A60     	 str r2,[r3,#4]
 900:../Libraries/libscpi/src/lexer.c **** 
 901:../Libraries/libscpi/src/lexer.c ****     if (skipChr(state, chr)) {
 4000              	 .loc 1 901 0
 4001 0016 FB79     	 ldrb r3,[r7,#7]
 4002 0018 F868     	 ldr r0,[r7,#12]
 4003 001a 1946     	 mov r1,r3
 4004 001c FFF7FEFF 	 bl skipChr
 4005 0020 0346     	 mov r3,r0
 4006 0022 002B     	 cmp r3,#0
 4007 0024 06D0     	 beq .L246
 902:../Libraries/libscpi/src/lexer.c ****         token->len = 1;
 4008              	 .loc 1 902 0
 4009 0026 BB68     	 ldr r3,[r7,#8]
 4010 0028 0122     	 movs r2,#1
 4011 002a 9A60     	 str r2,[r3,#8]
 903:../Libraries/libscpi/src/lexer.c ****         token->type = SCPI_TOKEN_SPECIFIC_CHARACTER;
 4012              	 .loc 1 903 0
 4013 002c BB68     	 ldr r3,[r7,#8]
 4014 002e 0322     	 movs r2,#3
 4015 0030 1A70     	 strb r2,[r3]
 4016 0032 05E0     	 b .L247
 4017              	.L246:
 904:../Libraries/libscpi/src/lexer.c ****     } else {
 905:../Libraries/libscpi/src/lexer.c ****         token->len = 0;
 4018              	 .loc 1 905 0
 4019 0034 BB68     	 ldr r3,[r7,#8]
 4020 0036 0022     	 movs r2,#0
 4021 0038 9A60     	 str r2,[r3,#8]
 906:../Libraries/libscpi/src/lexer.c ****         token->type = SCPI_TOKEN_UNKNOWN;
 4022              	 .loc 1 906 0
 4023 003a BB68     	 ldr r3,[r7,#8]
 4024 003c 1A22     	 movs r2,#26
 4025 003e 1A70     	 strb r2,[r3]
 4026              	.L247:
 907:../Libraries/libscpi/src/lexer.c ****     }
 908:../Libraries/libscpi/src/lexer.c **** 
 909:../Libraries/libscpi/src/lexer.c ****     return token->len;
 4027              	 .loc 1 909 0
 4028 0040 BB68     	 ldr r3,[r7,#8]
 4029 0042 9B68     	 ldr r3,[r3,#8]
 910:../Libraries/libscpi/src/lexer.c **** }
 4030              	 .loc 1 910 0
 4031 0044 1846     	 mov r0,r3
 4032 0046 1037     	 adds r7,r7,#16
 4033              	.LCFI251:
 4034              	 .cfi_def_cfa_offset 8
 4035 0048 BD46     	 mov sp,r7
 4036              	.LCFI252:
 4037              	 .cfi_def_cfa_register 13
 4038              	 
 4039 004a 80BD     	 pop {r7,pc}
 4040              	 .cfi_endproc
 4041              	.LFE47:
 4043              	 .section .text.scpiLex_NewLine,"ax",%progbits
 4044              	 .align 2
 4045              	 .global scpiLex_NewLine
 4046              	 .hidden scpiLex_NewLine
 4047              	 .thumb
 4048              	 .thumb_func
 4050              	scpiLex_NewLine:
 4051              	.LFB48:
 911:../Libraries/libscpi/src/lexer.c **** 
 912:../Libraries/libscpi/src/lexer.c **** /**
 913:../Libraries/libscpi/src/lexer.c ****  * Detect token New line
 914:../Libraries/libscpi/src/lexer.c ****  * @param state
 915:../Libraries/libscpi/src/lexer.c ****  * @param token
 916:../Libraries/libscpi/src/lexer.c ****  * @return 
 917:../Libraries/libscpi/src/lexer.c ****  */
 918:../Libraries/libscpi/src/lexer.c **** int scpiLex_NewLine(lex_state_t * state, scpi_token_t * token) {
 4052              	 .loc 1 918 0
 4053              	 .cfi_startproc
 4054              	 
 4055              	 
 4056 0000 80B5     	 push {r7,lr}
 4057              	.LCFI253:
 4058              	 .cfi_def_cfa_offset 8
 4059              	 .cfi_offset 7,-8
 4060              	 .cfi_offset 14,-4
 4061 0002 82B0     	 sub sp,sp,#8
 4062              	.LCFI254:
 4063              	 .cfi_def_cfa_offset 16
 4064 0004 00AF     	 add r7,sp,#0
 4065              	.LCFI255:
 4066              	 .cfi_def_cfa_register 7
 4067 0006 7860     	 str r0,[r7,#4]
 4068 0008 3960     	 str r1,[r7]
 919:../Libraries/libscpi/src/lexer.c ****     token->ptr = state->pos;
 4069              	 .loc 1 919 0
 4070 000a 7B68     	 ldr r3,[r7,#4]
 4071 000c 5A68     	 ldr r2,[r3,#4]
 4072 000e 3B68     	 ldr r3,[r7]
 4073 0010 5A60     	 str r2,[r3,#4]
 920:../Libraries/libscpi/src/lexer.c **** 
 921:../Libraries/libscpi/src/lexer.c ****     skipChr(state, '\r');
 4074              	 .loc 1 921 0
 4075 0012 7868     	 ldr r0,[r7,#4]
 4076 0014 0D21     	 movs r1,#13
 4077 0016 FFF7FEFF 	 bl skipChr
 922:../Libraries/libscpi/src/lexer.c ****     skipChr(state, '\n');
 4078              	 .loc 1 922 0
 4079 001a 7868     	 ldr r0,[r7,#4]
 4080 001c 0A21     	 movs r1,#10
 4081 001e FFF7FEFF 	 bl skipChr
 923:../Libraries/libscpi/src/lexer.c **** 
 924:../Libraries/libscpi/src/lexer.c ****     token->len = state->pos - token->ptr;
 4082              	 .loc 1 924 0
 4083 0022 7B68     	 ldr r3,[r7,#4]
 4084 0024 5B68     	 ldr r3,[r3,#4]
 4085 0026 1A46     	 mov r2,r3
 4086 0028 3B68     	 ldr r3,[r7]
 4087 002a 5B68     	 ldr r3,[r3,#4]
 4088 002c D21A     	 subs r2,r2,r3
 4089 002e 3B68     	 ldr r3,[r7]
 4090 0030 9A60     	 str r2,[r3,#8]
 925:../Libraries/libscpi/src/lexer.c **** 
 926:../Libraries/libscpi/src/lexer.c ****     if ((token->len > 0)) {
 4091              	 .loc 1 926 0
 4092 0032 3B68     	 ldr r3,[r7]
 4093 0034 9B68     	 ldr r3,[r3,#8]
 4094 0036 002B     	 cmp r3,#0
 4095 0038 03DD     	 ble .L250
 927:../Libraries/libscpi/src/lexer.c ****         token->type = SCPI_TOKEN_NL;
 4096              	 .loc 1 927 0
 4097 003a 3B68     	 ldr r3,[r7]
 4098 003c 0522     	 movs r2,#5
 4099 003e 1A70     	 strb r2,[r3]
 4100 0040 09E0     	 b .L251
 4101              	.L250:
 928:../Libraries/libscpi/src/lexer.c ****     } else {
 929:../Libraries/libscpi/src/lexer.c ****         token->type = SCPI_TOKEN_UNKNOWN;
 4102              	 .loc 1 929 0
 4103 0042 3B68     	 ldr r3,[r7]
 4104 0044 1A22     	 movs r2,#26
 4105 0046 1A70     	 strb r2,[r3]
 930:../Libraries/libscpi/src/lexer.c ****         state->pos = token->ptr;
 4106              	 .loc 1 930 0
 4107 0048 3B68     	 ldr r3,[r7]
 4108 004a 5A68     	 ldr r2,[r3,#4]
 4109 004c 7B68     	 ldr r3,[r7,#4]
 4110 004e 5A60     	 str r2,[r3,#4]
 931:../Libraries/libscpi/src/lexer.c ****         token->len = 0;
 4111              	 .loc 1 931 0
 4112 0050 3B68     	 ldr r3,[r7]
 4113 0052 0022     	 movs r2,#0
 4114 0054 9A60     	 str r2,[r3,#8]
 4115              	.L251:
 932:../Libraries/libscpi/src/lexer.c ****     }
 933:../Libraries/libscpi/src/lexer.c **** 
 934:../Libraries/libscpi/src/lexer.c ****     return token->len;
 4116              	 .loc 1 934 0
 4117 0056 3B68     	 ldr r3,[r7]
 4118 0058 9B68     	 ldr r3,[r3,#8]
 935:../Libraries/libscpi/src/lexer.c **** }
 4119              	 .loc 1 935 0
 4120 005a 1846     	 mov r0,r3
 4121 005c 0837     	 adds r7,r7,#8
 4122              	.LCFI256:
 4123              	 .cfi_def_cfa_offset 8
 4124 005e BD46     	 mov sp,r7
 4125              	.LCFI257:
 4126              	 .cfi_def_cfa_register 13
 4127              	 
 4128 0060 80BD     	 pop {r7,pc}
 4129              	 .cfi_endproc
 4130              	.LFE48:
 4132 0062 00BF     	 .text
 4133              	.Letext0:
 4134              	 .file 2 "c:\\infineon\\tools\\dave ide\\4.5.0.202105191637\\eclipse\\arm-gcc-49\\arm-none-eabi\\include\\machine\\_default_types.h"
 4135              	 .file 3 "c:\\infineon\\tools\\dave ide\\4.5.0.202105191637\\eclipse\\arm-gcc-49\\arm-none-eabi\\include\\stdint.h"
 4136              	 .file 4 "C:/Infineon/Tools/DAVE IDE/4.5.0.202105191637/eclipse/workspace/ScpiRelax/Libraries/libscpi/inc/scpi/types.h"
 4137              	 .file 5 "c:\\infineon\\tools\\dave ide\\4.5.0.202105191637\\eclipse\\arm-gcc-49\\arm-none-eabi\\include\\ctype.h"