   1              	 .syntax unified
   2              	 .cpu cortex-m4
   3              	 .eabi_attribute 27,3
   4              	 .fpu fpv4-sp-d16
   5              	 .eabi_attribute 20,1
   6              	 .eabi_attribute 21,1
   7              	 .eabi_attribute 23,3
   8              	 .eabi_attribute 24,1
   9              	 .eabi_attribute 25,1
  10              	 .eabi_attribute 26,1
  11              	 .eabi_attribute 30,6
  12              	 .eabi_attribute 34,1
  13              	 .eabi_attribute 18,4
  14              	 .thumb
  15              	 .file "utils.c"
  16              	 .text
  17              	.Ltext0:
  18              	 .cfi_sections .debug_frame
  19              	 .section .text.strnpbrk,"ax",%progbits
  20              	 .align 2
  21              	 .global strnpbrk
  22              	 .hidden strnpbrk
  23              	 .thumb
  24              	 .thumb_func
  26              	strnpbrk:
  27              	.LFB0:
  28              	 .file 1 "../Libraries/libscpi/src/utils.c"
   1:../Libraries/libscpi/src/utils.c **** /*-
   2:../Libraries/libscpi/src/utils.c ****  * BSD 2-Clause License
   3:../Libraries/libscpi/src/utils.c ****  *
   4:../Libraries/libscpi/src/utils.c ****  * Copyright (c) 2012-2018, Jan Breuer, Richard.hmm
   5:../Libraries/libscpi/src/utils.c ****  * All rights reserved.
   6:../Libraries/libscpi/src/utils.c ****  *
   7:../Libraries/libscpi/src/utils.c ****  * Redistribution and use in source and binary forms, with or without
   8:../Libraries/libscpi/src/utils.c ****  * modification, are permitted provided that the following conditions are met:
   9:../Libraries/libscpi/src/utils.c ****  *
  10:../Libraries/libscpi/src/utils.c ****  * * Redistributions of source code must retain the above copyright notice, this
  11:../Libraries/libscpi/src/utils.c ****  *   list of conditions and the following disclaimer.
  12:../Libraries/libscpi/src/utils.c ****  *
  13:../Libraries/libscpi/src/utils.c ****  * * Redistributions in binary form must reproduce the above copyright notice,
  14:../Libraries/libscpi/src/utils.c ****  *   this list of conditions and the following disclaimer in the documentation
  15:../Libraries/libscpi/src/utils.c ****  *   and/or other materials provided with the distribution.
  16:../Libraries/libscpi/src/utils.c ****  *
  17:../Libraries/libscpi/src/utils.c ****  * THIS SOFTWARE IS PROVIDED BY THE COPYRIGHT HOLDERS AND CONTRIBUTORS "AS IS"
  18:../Libraries/libscpi/src/utils.c ****  * AND ANY EXPRESS OR IMPLIED WARRANTIES, INCLUDING, BUT NOT LIMITED TO, THE
  19:../Libraries/libscpi/src/utils.c ****  * IMPLIED WARRANTIES OF MERCHANTABILITY AND FITNESS FOR A PARTICULAR PURPOSE ARE
  20:../Libraries/libscpi/src/utils.c ****  * DISCLAIMED. IN NO EVENT SHALL THE COPYRIGHT HOLDER OR CONTRIBUTORS BE LIABLE
  21:../Libraries/libscpi/src/utils.c ****  * FOR ANY DIRECT, INDIRECT, INCIDENTAL, SPECIAL, EXEMPLARY, OR CONSEQUENTIAL
  22:../Libraries/libscpi/src/utils.c ****  * DAMAGES (INCLUDING, BUT NOT LIMITED TO, PROCUREMENT OF SUBSTITUTE GOODS OR
  23:../Libraries/libscpi/src/utils.c ****  * SERVICES; LOSS OF USE, DATA, OR PROFITS; OR BUSINESS INTERRUPTION) HOWEVER
  24:../Libraries/libscpi/src/utils.c ****  * CAUSED AND ON ANY THEORY OF LIABILITY, WHETHER IN CONTRACT, STRICT LIABILITY,
  25:../Libraries/libscpi/src/utils.c ****  * OR TORT (INCLUDING NEGLIGENCE OR OTHERWISE) ARISING IN ANY WAY OUT OF THE USE
  26:../Libraries/libscpi/src/utils.c ****  * OF THIS SOFTWARE, EVEN IF ADVISED OF THE POSSIBILITY OF SUCH DAMAGE.
  27:../Libraries/libscpi/src/utils.c ****  */
  28:../Libraries/libscpi/src/utils.c **** 
  29:../Libraries/libscpi/src/utils.c **** /**
  30:../Libraries/libscpi/src/utils.c ****  * @file   scpi_utils.c
  31:../Libraries/libscpi/src/utils.c ****  * @date   Thu Nov 15 10:58:45 UTC 2012
  32:../Libraries/libscpi/src/utils.c ****  *
  33:../Libraries/libscpi/src/utils.c ****  * @brief  Conversion routines and string manipulation routines
  34:../Libraries/libscpi/src/utils.c ****  *
  35:../Libraries/libscpi/src/utils.c ****  *
  36:../Libraries/libscpi/src/utils.c ****  */
  37:../Libraries/libscpi/src/utils.c **** 
  38:../Libraries/libscpi/src/utils.c **** #include <stdio.h>
  39:../Libraries/libscpi/src/utils.c **** #include <stdlib.h>
  40:../Libraries/libscpi/src/utils.c **** #include <string.h>
  41:../Libraries/libscpi/src/utils.c **** #include <ctype.h>
  42:../Libraries/libscpi/src/utils.c **** #include <math.h>
  43:../Libraries/libscpi/src/utils.c **** 
  44:../Libraries/libscpi/src/utils.c **** #include "utils_private.h"
  45:../Libraries/libscpi/src/utils.c **** #include "scpi/utils.h"
  46:../Libraries/libscpi/src/utils.c **** 
  47:../Libraries/libscpi/src/utils.c **** static size_t patternSeparatorShortPos(const char * pattern, size_t len);
  48:../Libraries/libscpi/src/utils.c **** static size_t patternSeparatorPos(const char * pattern, size_t len);
  49:../Libraries/libscpi/src/utils.c **** static size_t cmdSeparatorPos(const char * cmd, size_t len);
  50:../Libraries/libscpi/src/utils.c **** 
  51:../Libraries/libscpi/src/utils.c **** /**
  52:../Libraries/libscpi/src/utils.c ****  * Find the first occurrence in str of a character in set.
  53:../Libraries/libscpi/src/utils.c ****  * @param str
  54:../Libraries/libscpi/src/utils.c ****  * @param size
  55:../Libraries/libscpi/src/utils.c ****  * @param set
  56:../Libraries/libscpi/src/utils.c ****  * @return
  57:../Libraries/libscpi/src/utils.c ****  */
  58:../Libraries/libscpi/src/utils.c **** char * strnpbrk(const char *str, size_t size, const char *set) {
  29              	 .loc 1 58 0
  30              	 .cfi_startproc
  31              	 
  32              	 
  33              	 
  34 0000 80B4     	 push {r7}
  35              	.LCFI0:
  36              	 .cfi_def_cfa_offset 4
  37              	 .cfi_offset 7,-4
  38 0002 89B0     	 sub sp,sp,#36
  39              	.LCFI1:
  40              	 .cfi_def_cfa_offset 40
  41 0004 00AF     	 add r7,sp,#0
  42              	.LCFI2:
  43              	 .cfi_def_cfa_register 7
  44 0006 F860     	 str r0,[r7,#12]
  45 0008 B960     	 str r1,[r7,#8]
  46 000a 7A60     	 str r2,[r7,#4]
  59:../Libraries/libscpi/src/utils.c ****     const char *scanp;
  60:../Libraries/libscpi/src/utils.c ****     long c, sc;
  61:../Libraries/libscpi/src/utils.c ****     const char * strend = str + size;
  47              	 .loc 1 61 0
  48 000c FA68     	 ldr r2,[r7,#12]
  49 000e BB68     	 ldr r3,[r7,#8]
  50 0010 1344     	 add r3,r3,r2
  51 0012 BB61     	 str r3,[r7,#24]
  62:../Libraries/libscpi/src/utils.c **** 
  63:../Libraries/libscpi/src/utils.c ****     while ((strend != str) && ((c = *str++) != 0)) {
  52              	 .loc 1 63 0
  53 0014 11E0     	 b .L2
  54              	.L7:
  64:../Libraries/libscpi/src/utils.c ****         for (scanp = set; (sc = *scanp++) != '\0';)
  55              	 .loc 1 64 0
  56 0016 7B68     	 ldr r3,[r7,#4]
  57 0018 FB61     	 str r3,[r7,#28]
  58 001a 06E0     	 b .L3
  59              	.L5:
  65:../Libraries/libscpi/src/utils.c ****             if (sc == c)
  60              	 .loc 1 65 0
  61 001c 3A69     	 ldr r2,[r7,#16]
  62 001e 7B69     	 ldr r3,[r7,#20]
  63 0020 9A42     	 cmp r2,r3
  64 0022 02D1     	 bne .L3
  66:../Libraries/libscpi/src/utils.c ****                 return ((char *) (str - 1));
  65              	 .loc 1 66 0
  66 0024 FB68     	 ldr r3,[r7,#12]
  67 0026 013B     	 subs r3,r3,#1
  68 0028 14E0     	 b .L4
  69              	.L3:
  64:../Libraries/libscpi/src/utils.c ****         for (scanp = set; (sc = *scanp++) != '\0';)
  70              	 .loc 1 64 0 discriminator 1
  71 002a FB69     	 ldr r3,[r7,#28]
  72 002c 5A1C     	 adds r2,r3,#1
  73 002e FA61     	 str r2,[r7,#28]
  74 0030 1B78     	 ldrb r3,[r3]
  75 0032 3B61     	 str r3,[r7,#16]
  76 0034 3B69     	 ldr r3,[r7,#16]
  77 0036 002B     	 cmp r3,#0
  78 0038 F0D1     	 bne .L5
  79              	.L2:
  63:../Libraries/libscpi/src/utils.c ****         for (scanp = set; (sc = *scanp++) != '\0';)
  80              	 .loc 1 63 0
  81 003a BA69     	 ldr r2,[r7,#24]
  82 003c FB68     	 ldr r3,[r7,#12]
  83 003e 9A42     	 cmp r2,r3
  84 0040 07D0     	 beq .L6
  63:../Libraries/libscpi/src/utils.c ****         for (scanp = set; (sc = *scanp++) != '\0';)
  85              	 .loc 1 63 0 is_stmt 0 discriminator 1
  86 0042 FB68     	 ldr r3,[r7,#12]
  87 0044 5A1C     	 adds r2,r3,#1
  88 0046 FA60     	 str r2,[r7,#12]
  89 0048 1B78     	 ldrb r3,[r3]
  90 004a 7B61     	 str r3,[r7,#20]
  91 004c 7B69     	 ldr r3,[r7,#20]
  92 004e 002B     	 cmp r3,#0
  93 0050 E1D1     	 bne .L7
  94              	.L6:
  67:../Libraries/libscpi/src/utils.c ****     }
  68:../Libraries/libscpi/src/utils.c ****     return (NULL);
  95              	 .loc 1 68 0 is_stmt 1
  96 0052 0023     	 movs r3,#0
  97              	.L4:
  69:../Libraries/libscpi/src/utils.c **** }
  98              	 .loc 1 69 0
  99 0054 1846     	 mov r0,r3
 100 0056 2437     	 adds r7,r7,#36
 101              	.LCFI3:
 102              	 .cfi_def_cfa_offset 4
 103 0058 BD46     	 mov sp,r7
 104              	.LCFI4:
 105              	 .cfi_def_cfa_register 13
 106              	 
 107 005a 5DF8047B 	 ldr r7,[sp],#4
 108              	.LCFI5:
 109              	 .cfi_restore 7
 110              	 .cfi_def_cfa_offset 0
 111 005e 7047     	 bx lr
 112              	 .cfi_endproc
 113              	.LFE0:
 115              	 .section .rodata
 116              	 .align 2
 117              	.LC0:
 118 0000 30313233 	 .ascii "0123456789ABCDEF\000"
 118      34353637 
 118      38394142 
 118      43444546 
 118      00
 119              	 .section .text.UInt32ToStrBaseSign,"ax",%progbits
 120              	 .align 2
 121              	 .global UInt32ToStrBaseSign
 122              	 .hidden UInt32ToStrBaseSign
 123              	 .thumb
 124              	 .thumb_func
 126              	UInt32ToStrBaseSign:
 127              	.LFB1:
  70:../Libraries/libscpi/src/utils.c **** 
  71:../Libraries/libscpi/src/utils.c **** /**
  72:../Libraries/libscpi/src/utils.c ****  * Converts signed/unsigned 32 bit integer value to string in specific base
  73:../Libraries/libscpi/src/utils.c ****  * @param val   integer value
  74:../Libraries/libscpi/src/utils.c ****  * @param str   converted textual representation
  75:../Libraries/libscpi/src/utils.c ****  * @param len   string buffer length
  76:../Libraries/libscpi/src/utils.c ****  * @param base  output base
  77:../Libraries/libscpi/src/utils.c ****  * @param sign
  78:../Libraries/libscpi/src/utils.c ****  * @return number of bytes written to str (without '\0')
  79:../Libraries/libscpi/src/utils.c ****  */
  80:../Libraries/libscpi/src/utils.c **** size_t UInt32ToStrBaseSign(uint32_t val, char * str, size_t len, int8_t base, scpi_bool_t sign) {
 128              	 .loc 1 80 0
 129              	 .cfi_startproc
 130              	 
 131              	 
 132              	 
 133 0000 B0B4     	 push {r4,r5,r7}
 134              	.LCFI6:
 135              	 .cfi_def_cfa_offset 12
 136              	 .cfi_offset 4,-12
 137              	 .cfi_offset 5,-8
 138              	 .cfi_offset 7,-4
 139 0002 8FB0     	 sub sp,sp,#60
 140              	.LCFI7:
 141              	 .cfi_def_cfa_offset 72
 142 0004 00AF     	 add r7,sp,#0
 143              	.LCFI8:
 144              	 .cfi_def_cfa_register 7
 145 0006 F860     	 str r0,[r7,#12]
 146 0008 B960     	 str r1,[r7,#8]
 147 000a 7A60     	 str r2,[r7,#4]
 148 000c FB70     	 strb r3,[r7,#3]
  81:../Libraries/libscpi/src/utils.c ****     const char digits[] = "0123456789ABCDEF";
 149              	 .loc 1 81 0
 150 000e 4A4B     	 ldr r3,.L25
 151 0010 07F11404 	 add r4,r7,#20
 152 0014 1D46     	 mov r5,r3
 153 0016 0FCD     	 ldmia r5!,{r0,r1,r2,r3}
 154 0018 0FC4     	 stmia r4!,{r0,r1,r2,r3}
 155 001a 2B68     	 ldr r3,[r5]
 156 001c 2370     	 strb r3,[r4]
  82:../Libraries/libscpi/src/utils.c **** 
  83:../Libraries/libscpi/src/utils.c **** #define ADD_CHAR(c) if (pos < len) str[pos++] = (c)
  84:../Libraries/libscpi/src/utils.c ****     uint32_t x = 0;
 157              	 .loc 1 84 0
 158 001e 0023     	 movs r3,#0
 159 0020 7B63     	 str r3,[r7,#52]
  85:../Libraries/libscpi/src/utils.c ****     int_fast8_t digit;
  86:../Libraries/libscpi/src/utils.c ****     size_t pos = 0;
 160              	 .loc 1 86 0
 161 0022 0023     	 movs r3,#0
 162 0024 3B63     	 str r3,[r7,#48]
  87:../Libraries/libscpi/src/utils.c ****     uint32_t uval = val;
 163              	 .loc 1 87 0
 164 0026 FB68     	 ldr r3,[r7,#12]
 165 0028 FB62     	 str r3,[r7,#44]
  88:../Libraries/libscpi/src/utils.c **** 
  89:../Libraries/libscpi/src/utils.c ****     if (uval == 0) {
 166              	 .loc 1 89 0
 167 002a FB6A     	 ldr r3,[r7,#44]
 168 002c 002B     	 cmp r3,#0
 169 002e 0BD1     	 bne .L9
  90:../Libraries/libscpi/src/utils.c ****         ADD_CHAR('0');
 170              	 .loc 1 90 0
 171 0030 3A6B     	 ldr r2,[r7,#48]
 172 0032 7B68     	 ldr r3,[r7,#4]
 173 0034 9A42     	 cmp r2,r3
 174 0036 6FD2     	 bcs .L11
 175              	 .loc 1 90 0 is_stmt 0 discriminator 1
 176 0038 3B6B     	 ldr r3,[r7,#48]
 177 003a 5A1C     	 adds r2,r3,#1
 178 003c 3A63     	 str r2,[r7,#48]
 179 003e BA68     	 ldr r2,[r7,#8]
 180 0040 1344     	 add r3,r3,r2
 181 0042 3022     	 movs r2,#48
 182 0044 1A70     	 strb r2,[r3]
 183 0046 67E0     	 b .L11
 184              	.L9:
  91:../Libraries/libscpi/src/utils.c ****     } else {
  92:../Libraries/libscpi/src/utils.c **** 
  93:../Libraries/libscpi/src/utils.c ****         switch (base) {
 185              	 .loc 1 93 0 is_stmt 1
 186 0048 97F90330 	 ldrsb r3,[r7,#3]
 187 004c 082B     	 cmp r3,#8
 188 004e 07D0     	 beq .L13
 189 0050 102B     	 cmp r3,#16
 190 0052 0ED0     	 beq .L14
 191 0054 022B     	 cmp r3,#2
 192 0056 07D1     	 bne .L24
  94:../Libraries/libscpi/src/utils.c ****             case 2:
  95:../Libraries/libscpi/src/utils.c ****                 x = 0x80000000L;
 193              	 .loc 1 95 0
 194 0058 4FF00043 	 mov r3,#-2147483648
 195 005c 7B63     	 str r3,[r7,#52]
  96:../Libraries/libscpi/src/utils.c ****                 break;
 196              	 .loc 1 96 0
 197 005e 0CE0     	 b .L16
 198              	.L13:
  97:../Libraries/libscpi/src/utils.c ****             case 8:
  98:../Libraries/libscpi/src/utils.c ****                 x = 0x40000000L;
 199              	 .loc 1 98 0
 200 0060 4FF08043 	 mov r3,#1073741824
 201 0064 7B63     	 str r3,[r7,#52]
  99:../Libraries/libscpi/src/utils.c ****                 break;
 202              	 .loc 1 99 0
 203 0066 08E0     	 b .L16
 204              	.L24:
 100:../Libraries/libscpi/src/utils.c ****             default:
 101:../Libraries/libscpi/src/utils.c ****             case 10:
 102:../Libraries/libscpi/src/utils.c ****                 base = 10;
 205              	 .loc 1 102 0
 206 0068 0A23     	 movs r3,#10
 207 006a FB70     	 strb r3,[r7,#3]
 103:../Libraries/libscpi/src/utils.c ****                 x = 1000000000L;
 208              	 .loc 1 103 0
 209 006c 334B     	 ldr r3,.L25+4
 210 006e 7B63     	 str r3,[r7,#52]
 104:../Libraries/libscpi/src/utils.c ****                 break;
 211              	 .loc 1 104 0
 212 0070 03E0     	 b .L16
 213              	.L14:
 105:../Libraries/libscpi/src/utils.c ****             case 16:
 106:../Libraries/libscpi/src/utils.c ****                 x = 0x10000000L;
 214              	 .loc 1 106 0
 215 0072 4FF08053 	 mov r3,#268435456
 216 0076 7B63     	 str r3,[r7,#52]
 107:../Libraries/libscpi/src/utils.c ****                 break;
 217              	 .loc 1 107 0
 218 0078 00BF     	 nop
 219              	.L16:
 108:../Libraries/libscpi/src/utils.c ****         }
 109:../Libraries/libscpi/src/utils.c **** 
 110:../Libraries/libscpi/src/utils.c ****         /* add sign for numbers in base 10 */
 111:../Libraries/libscpi/src/utils.c ****         if (sign && ((int32_t) val < 0) && (base == 10)) {
 220              	 .loc 1 111 0
 221 007a 97F84830 	 ldrb r3,[r7,#72]
 222 007e 002B     	 cmp r3,#0
 223 0080 14D0     	 beq .L17
 224              	 .loc 1 111 0 is_stmt 0 discriminator 1
 225 0082 FB68     	 ldr r3,[r7,#12]
 226 0084 002B     	 cmp r3,#0
 227 0086 11DA     	 bge .L17
 228              	 .loc 1 111 0 discriminator 2
 229 0088 97F90330 	 ldrsb r3,[r7,#3]
 230 008c 0A2B     	 cmp r3,#10
 231 008e 0DD1     	 bne .L17
 112:../Libraries/libscpi/src/utils.c ****             uval = -val;
 232              	 .loc 1 112 0 is_stmt 1
 233 0090 FB68     	 ldr r3,[r7,#12]
 234 0092 5B42     	 negs r3,r3
 235 0094 FB62     	 str r3,[r7,#44]
 113:../Libraries/libscpi/src/utils.c ****             ADD_CHAR('-');
 236              	 .loc 1 113 0
 237 0096 3A6B     	 ldr r2,[r7,#48]
 238 0098 7B68     	 ldr r3,[r7,#4]
 239 009a 9A42     	 cmp r2,r3
 240 009c 06D2     	 bcs .L17
 241              	 .loc 1 113 0 is_stmt 0 discriminator 1
 242 009e 3B6B     	 ldr r3,[r7,#48]
 243 00a0 5A1C     	 adds r2,r3,#1
 244 00a2 3A63     	 str r2,[r7,#48]
 245 00a4 BA68     	 ldr r2,[r7,#8]
 246 00a6 1344     	 add r3,r3,r2
 247 00a8 2D22     	 movs r2,#45
 248 00aa 1A70     	 strb r2,[r3]
 249              	.L17:
 114:../Libraries/libscpi/src/utils.c ****         }
 115:../Libraries/libscpi/src/utils.c **** 
 116:../Libraries/libscpi/src/utils.c ****         /* remove leading zeros */
 117:../Libraries/libscpi/src/utils.c ****         while ((uval / x) == 0) {
 250              	 .loc 1 117 0 is_stmt 1
 251 00ac 05E0     	 b .L18
 252              	.L19:
 118:../Libraries/libscpi/src/utils.c ****             x /= base;
 253              	 .loc 1 118 0
 254 00ae 97F90330 	 ldrsb r3,[r7,#3]
 255 00b2 7A6B     	 ldr r2,[r7,#52]
 256 00b4 B2FBF3F3 	 udiv r3,r2,r3
 257 00b8 7B63     	 str r3,[r7,#52]
 258              	.L18:
 117:../Libraries/libscpi/src/utils.c ****             x /= base;
 259              	 .loc 1 117 0
 260 00ba FA6A     	 ldr r2,[r7,#44]
 261 00bc 7B6B     	 ldr r3,[r7,#52]
 262 00be B2FBF3F3 	 udiv r3,r2,r3
 263 00c2 002B     	 cmp r3,#0
 264 00c4 F3D0     	 beq .L19
 265              	.L21:
 119:../Libraries/libscpi/src/utils.c ****         }
 120:../Libraries/libscpi/src/utils.c **** 
 121:../Libraries/libscpi/src/utils.c ****         do {
 122:../Libraries/libscpi/src/utils.c ****             digit = (uint8_t) (uval / x);
 266              	 .loc 1 122 0
 267 00c6 FA6A     	 ldr r2,[r7,#44]
 268 00c8 7B6B     	 ldr r3,[r7,#52]
 269 00ca B2FBF3F3 	 udiv r3,r2,r3
 270 00ce DBB2     	 uxtb r3,r3
 271 00d0 BB62     	 str r3,[r7,#40]
 123:../Libraries/libscpi/src/utils.c ****             ADD_CHAR(digits[digit]);
 272              	 .loc 1 123 0
 273 00d2 3A6B     	 ldr r2,[r7,#48]
 274 00d4 7B68     	 ldr r3,[r7,#4]
 275 00d6 9A42     	 cmp r2,r3
 276 00d8 0AD2     	 bcs .L20
 277              	 .loc 1 123 0 is_stmt 0 discriminator 1
 278 00da 3B6B     	 ldr r3,[r7,#48]
 279 00dc 5A1C     	 adds r2,r3,#1
 280 00de 3A63     	 str r2,[r7,#48]
 281 00e0 BA68     	 ldr r2,[r7,#8]
 282 00e2 1344     	 add r3,r3,r2
 283 00e4 07F11401 	 add r1,r7,#20
 284 00e8 BA6A     	 ldr r2,[r7,#40]
 285 00ea 0A44     	 add r2,r2,r1
 286 00ec 1278     	 ldrb r2,[r2]
 287 00ee 1A70     	 strb r2,[r3]
 288              	.L20:
 124:../Libraries/libscpi/src/utils.c ****             uval -= digit * x;
 289              	 .loc 1 124 0 is_stmt 1
 290 00f0 BB6A     	 ldr r3,[r7,#40]
 291 00f2 7A6B     	 ldr r2,[r7,#52]
 292 00f4 02FB03F3 	 mul r3,r2,r3
 293 00f8 FA6A     	 ldr r2,[r7,#44]
 294 00fa D31A     	 subs r3,r2,r3
 295 00fc FB62     	 str r3,[r7,#44]
 125:../Libraries/libscpi/src/utils.c ****             x /= base;
 296              	 .loc 1 125 0
 297 00fe 97F90330 	 ldrsb r3,[r7,#3]
 298 0102 7A6B     	 ldr r2,[r7,#52]
 299 0104 B2FBF3F3 	 udiv r3,r2,r3
 300 0108 7B63     	 str r3,[r7,#52]
 126:../Libraries/libscpi/src/utils.c ****         } while (x && (pos < len));
 301              	 .loc 1 126 0
 302 010a 7B6B     	 ldr r3,[r7,#52]
 303 010c 002B     	 cmp r3,#0
 304 010e 03D0     	 beq .L11
 305              	 .loc 1 126 0 is_stmt 0 discriminator 1
 306 0110 3A6B     	 ldr r2,[r7,#48]
 307 0112 7B68     	 ldr r3,[r7,#4]
 308 0114 9A42     	 cmp r2,r3
 309 0116 D6D3     	 bcc .L21
 310              	.L11:
 127:../Libraries/libscpi/src/utils.c ****     }
 128:../Libraries/libscpi/src/utils.c **** 
 129:../Libraries/libscpi/src/utils.c ****     if (pos < len) str[pos] = 0;
 311              	 .loc 1 129 0 is_stmt 1
 312 0118 3A6B     	 ldr r2,[r7,#48]
 313 011a 7B68     	 ldr r3,[r7,#4]
 314 011c 9A42     	 cmp r2,r3
 315 011e 04D2     	 bcs .L22
 316              	 .loc 1 129 0 is_stmt 0 discriminator 1
 317 0120 BA68     	 ldr r2,[r7,#8]
 318 0122 3B6B     	 ldr r3,[r7,#48]
 319 0124 1344     	 add r3,r3,r2
 320 0126 0022     	 movs r2,#0
 321 0128 1A70     	 strb r2,[r3]
 322              	.L22:
 130:../Libraries/libscpi/src/utils.c ****     return pos;
 323              	 .loc 1 130 0 is_stmt 1
 324 012a 3B6B     	 ldr r3,[r7,#48]
 131:../Libraries/libscpi/src/utils.c **** #undef ADD_CHAR
 132:../Libraries/libscpi/src/utils.c **** }
 325              	 .loc 1 132 0
 326 012c 1846     	 mov r0,r3
 327 012e 3C37     	 adds r7,r7,#60
 328              	.LCFI9:
 329              	 .cfi_def_cfa_offset 12
 330 0130 BD46     	 mov sp,r7
 331              	.LCFI10:
 332              	 .cfi_def_cfa_register 13
 333              	 
 334 0132 B0BC     	 pop {r4,r5,r7}
 335              	.LCFI11:
 336              	 .cfi_restore 7
 337              	 .cfi_restore 5
 338              	 .cfi_restore 4
 339              	 .cfi_def_cfa_offset 0
 340 0134 7047     	 bx lr
 341              	.L26:
 342 0136 00BF     	 .align 2
 343              	.L25:
 344 0138 00000000 	 .word .LC0
 345 013c 00CA9A3B 	 .word 1000000000
 346              	 .cfi_endproc
 347              	.LFE1:
 349              	 .section .text.SCPI_Int32ToStr,"ax",%progbits
 350              	 .align 2
 351              	 .global SCPI_Int32ToStr
 352              	 .thumb
 353              	 .thumb_func
 355              	SCPI_Int32ToStr:
 356              	.LFB2:
 133:../Libraries/libscpi/src/utils.c **** 
 134:../Libraries/libscpi/src/utils.c **** /**
 135:../Libraries/libscpi/src/utils.c ****  * Converts signed 32 bit integer value to string
 136:../Libraries/libscpi/src/utils.c ****  * @param val   integer value
 137:../Libraries/libscpi/src/utils.c ****  * @param str   converted textual representation
 138:../Libraries/libscpi/src/utils.c ****  * @param len   string buffer length
 139:../Libraries/libscpi/src/utils.c ****  * @return number of bytes written to str (without '\0')
 140:../Libraries/libscpi/src/utils.c ****  */
 141:../Libraries/libscpi/src/utils.c **** size_t SCPI_Int32ToStr(int32_t val, char * str, size_t len) {
 357              	 .loc 1 141 0
 358              	 .cfi_startproc
 359              	 
 360              	 
 361 0000 80B5     	 push {r7,lr}
 362              	.LCFI12:
 363              	 .cfi_def_cfa_offset 8
 364              	 .cfi_offset 7,-8
 365              	 .cfi_offset 14,-4
 366 0002 86B0     	 sub sp,sp,#24
 367              	.LCFI13:
 368              	 .cfi_def_cfa_offset 32
 369 0004 02AF     	 add r7,sp,#8
 370              	.LCFI14:
 371              	 .cfi_def_cfa 7,24
 372 0006 F860     	 str r0,[r7,#12]
 373 0008 B960     	 str r1,[r7,#8]
 374 000a 7A60     	 str r2,[r7,#4]
 142:../Libraries/libscpi/src/utils.c ****     return UInt32ToStrBaseSign((uint32_t) val, str, len, 10, TRUE);
 375              	 .loc 1 142 0
 376 000c FA68     	 ldr r2,[r7,#12]
 377 000e 0123     	 movs r3,#1
 378 0010 0093     	 str r3,[sp]
 379 0012 1046     	 mov r0,r2
 380 0014 B968     	 ldr r1,[r7,#8]
 381 0016 7A68     	 ldr r2,[r7,#4]
 382 0018 0A23     	 movs r3,#10
 383 001a FFF7FEFF 	 bl UInt32ToStrBaseSign
 384 001e 0346     	 mov r3,r0
 143:../Libraries/libscpi/src/utils.c **** }
 385              	 .loc 1 143 0
 386 0020 1846     	 mov r0,r3
 387 0022 1037     	 adds r7,r7,#16
 388              	.LCFI15:
 389              	 .cfi_def_cfa_offset 8
 390 0024 BD46     	 mov sp,r7
 391              	.LCFI16:
 392              	 .cfi_def_cfa_register 13
 393              	 
 394 0026 80BD     	 pop {r7,pc}
 395              	 .cfi_endproc
 396              	.LFE2:
 398              	 .section .text.SCPI_UInt32ToStrBase,"ax",%progbits
 399              	 .align 2
 400              	 .global SCPI_UInt32ToStrBase
 401              	 .thumb
 402              	 .thumb_func
 404              	SCPI_UInt32ToStrBase:
 405              	.LFB3:
 144:../Libraries/libscpi/src/utils.c **** 
 145:../Libraries/libscpi/src/utils.c **** /**
 146:../Libraries/libscpi/src/utils.c ****  * Converts unsigned 32 bit integer value to string in specific base
 147:../Libraries/libscpi/src/utils.c ****  * @param val   integer value
 148:../Libraries/libscpi/src/utils.c ****  * @param str   converted textual representation
 149:../Libraries/libscpi/src/utils.c ****  * @param len   string buffer length
 150:../Libraries/libscpi/src/utils.c ****  * @param base  output base
 151:../Libraries/libscpi/src/utils.c ****  * @return number of bytes written to str (without '\0')
 152:../Libraries/libscpi/src/utils.c ****  */
 153:../Libraries/libscpi/src/utils.c **** size_t SCPI_UInt32ToStrBase(uint32_t val, char * str, size_t len, int8_t base) {
 406              	 .loc 1 153 0
 407              	 .cfi_startproc
 408              	 
 409              	 
 410 0000 90B5     	 push {r4,r7,lr}
 411              	.LCFI17:
 412              	 .cfi_def_cfa_offset 12
 413              	 .cfi_offset 4,-12
 414              	 .cfi_offset 7,-8
 415              	 .cfi_offset 14,-4
 416 0002 87B0     	 sub sp,sp,#28
 417              	.LCFI18:
 418              	 .cfi_def_cfa_offset 40
 419 0004 02AF     	 add r7,sp,#8
 420              	.LCFI19:
 421              	 .cfi_def_cfa 7,32
 422 0006 F860     	 str r0,[r7,#12]
 423 0008 B960     	 str r1,[r7,#8]
 424 000a 7A60     	 str r2,[r7,#4]
 425 000c FB70     	 strb r3,[r7,#3]
 154:../Libraries/libscpi/src/utils.c ****     return UInt32ToStrBaseSign(val, str, len, base, FALSE);
 426              	 .loc 1 154 0
 427 000e 97F90340 	 ldrsb r4,[r7,#3]
 428 0012 0023     	 movs r3,#0
 429 0014 0093     	 str r3,[sp]
 430 0016 F868     	 ldr r0,[r7,#12]
 431 0018 B968     	 ldr r1,[r7,#8]
 432 001a 7A68     	 ldr r2,[r7,#4]
 433 001c 2346     	 mov r3,r4
 434 001e FFF7FEFF 	 bl UInt32ToStrBaseSign
 435 0022 0346     	 mov r3,r0
 155:../Libraries/libscpi/src/utils.c **** }
 436              	 .loc 1 155 0
 437 0024 1846     	 mov r0,r3
 438 0026 1437     	 adds r7,r7,#20
 439              	.LCFI20:
 440              	 .cfi_def_cfa_offset 12
 441 0028 BD46     	 mov sp,r7
 442              	.LCFI21:
 443              	 .cfi_def_cfa_register 13
 444              	 
 445 002a 90BD     	 pop {r4,r7,pc}
 446              	 .cfi_endproc
 447              	.LFE3:
 449              	 .global __aeabi_uldivmod
 450              	 .section .text.UInt64ToStrBaseSign,"ax",%progbits
 451              	 .align 2
 452              	 .global UInt64ToStrBaseSign
 453              	 .hidden UInt64ToStrBaseSign
 454              	 .thumb
 455              	 .thumb_func
 457              	UInt64ToStrBaseSign:
 458              	.LFB4:
 156:../Libraries/libscpi/src/utils.c **** 
 157:../Libraries/libscpi/src/utils.c **** /**
 158:../Libraries/libscpi/src/utils.c ****  * Converts signed/unsigned 64 bit integer value to string in specific base
 159:../Libraries/libscpi/src/utils.c ****  * @param val   integer value
 160:../Libraries/libscpi/src/utils.c ****  * @param str   converted textual representation
 161:../Libraries/libscpi/src/utils.c ****  * @param len   string buffer length
 162:../Libraries/libscpi/src/utils.c ****  * @param base  output base
 163:../Libraries/libscpi/src/utils.c ****  * @param sign
 164:../Libraries/libscpi/src/utils.c ****  * @return number of bytes written to str (without '\0')
 165:../Libraries/libscpi/src/utils.c ****  */
 166:../Libraries/libscpi/src/utils.c **** size_t UInt64ToStrBaseSign(uint64_t val, char * str, size_t len, int8_t base, scpi_bool_t sign) {
 459              	 .loc 1 166 0
 460              	 .cfi_startproc
 461              	 
 462              	 
 463 0000 B0B5     	 push {r4,r5,r7,lr}
 464              	.LCFI22:
 465              	 .cfi_def_cfa_offset 16
 466              	 .cfi_offset 4,-16
 467              	 .cfi_offset 5,-12
 468              	 .cfi_offset 7,-8
 469              	 .cfi_offset 14,-4
 470 0002 90B0     	 sub sp,sp,#64
 471              	.LCFI23:
 472              	 .cfi_def_cfa_offset 80
 473 0004 00AF     	 add r7,sp,#0
 474              	.LCFI24:
 475              	 .cfi_def_cfa_register 7
 476 0006 C7E90201 	 strd r0,[r7,#8]
 477 000a 7A60     	 str r2,[r7,#4]
 478 000c 3B60     	 str r3,[r7]
 167:../Libraries/libscpi/src/utils.c ****     const char digits[] = "0123456789ABCDEF";
 479              	 .loc 1 167 0
 480 000e 6C4B     	 ldr r3,.L48+8
 481 0010 07F11004 	 add r4,r7,#16
 482 0014 1D46     	 mov r5,r3
 483 0016 0FCD     	 ldmia r5!,{r0,r1,r2,r3}
 484 0018 0FC4     	 stmia r4!,{r0,r1,r2,r3}
 485 001a 2B68     	 ldr r3,[r5]
 486 001c 2370     	 strb r3,[r4]
 168:../Libraries/libscpi/src/utils.c **** 
 169:../Libraries/libscpi/src/utils.c **** #define ADD_CHAR(c) if (pos < len) str[pos++] = (c)
 170:../Libraries/libscpi/src/utils.c ****     uint64_t x = 0;
 487              	 .loc 1 170 0
 488 001e 4FF00002 	 mov r2,#0
 489 0022 4FF00003 	 mov r3,#0
 490 0026 C7E90E23 	 strd r2,[r7,#56]
 171:../Libraries/libscpi/src/utils.c ****     int_fast8_t digit;
 172:../Libraries/libscpi/src/utils.c ****     size_t pos = 0;
 491              	 .loc 1 172 0
 492 002a 0023     	 movs r3,#0
 493 002c 7B63     	 str r3,[r7,#52]
 173:../Libraries/libscpi/src/utils.c ****     uint64_t uval = val;
 494              	 .loc 1 173 0
 495 002e D7E90223 	 ldrd r2,[r7,#8]
 496 0032 C7E90A23 	 strd r2,[r7,#40]
 174:../Libraries/libscpi/src/utils.c **** 
 175:../Libraries/libscpi/src/utils.c ****     if (uval == 0) {
 497              	 .loc 1 175 0
 498 0036 D7E90A23 	 ldrd r2,[r7,#40]
 499 003a 1343     	 orrs r3,r2,r3
 500 003c 0CD1     	 bne .L32
 176:../Libraries/libscpi/src/utils.c ****         ADD_CHAR('0');
 501              	 .loc 1 176 0
 502 003e 7A6B     	 ldr r2,[r7,#52]
 503 0040 3B68     	 ldr r3,[r7]
 504 0042 9A42     	 cmp r2,r3
 505 0044 80F0A980 	 bcs .L34
 506              	 .loc 1 176 0 is_stmt 0 discriminator 1
 507 0048 7B6B     	 ldr r3,[r7,#52]
 508 004a 5A1C     	 adds r2,r3,#1
 509 004c 7A63     	 str r2,[r7,#52]
 510 004e 7A68     	 ldr r2,[r7,#4]
 511 0050 1344     	 add r3,r3,r2
 512 0052 3022     	 movs r2,#48
 513 0054 1A70     	 strb r2,[r3]
 514 0056 A0E0     	 b .L34
 515              	.L32:
 177:../Libraries/libscpi/src/utils.c ****     } else {
 178:../Libraries/libscpi/src/utils.c **** 
 179:../Libraries/libscpi/src/utils.c ****         switch (base) {
 516              	 .loc 1 179 0 is_stmt 1
 517 0058 97F95030 	 ldrsb r3,[r7,#80]
 518 005c 082B     	 cmp r3,#8
 519 005e 0AD0     	 beq .L36
 520 0060 102B     	 cmp r3,#16
 521 0062 18D0     	 beq .L37
 522 0064 022B     	 cmp r3,#2
 523 0066 0DD1     	 bne .L47
 180:../Libraries/libscpi/src/utils.c ****             case 2:
 181:../Libraries/libscpi/src/utils.c ****                 x = 0x8000000000000000ULL;
 524              	 .loc 1 181 0
 525 0068 4FF00002 	 mov r2,#0
 526 006c 4FF00043 	 mov r3,#-2147483648
 527 0070 C7E90E23 	 strd r2,[r7,#56]
 182:../Libraries/libscpi/src/utils.c ****                 break;
 528              	 .loc 1 182 0
 529 0074 16E0     	 b .L39
 530              	.L36:
 183:../Libraries/libscpi/src/utils.c ****             case 8:
 184:../Libraries/libscpi/src/utils.c ****                 x = 0x8000000000000000ULL;
 531              	 .loc 1 184 0
 532 0076 4FF00002 	 mov r2,#0
 533 007a 4FF00043 	 mov r3,#-2147483648
 534 007e C7E90E23 	 strd r2,[r7,#56]
 185:../Libraries/libscpi/src/utils.c ****                 break;
 535              	 .loc 1 185 0
 536 0082 0FE0     	 b .L39
 537              	.L47:
 186:../Libraries/libscpi/src/utils.c ****             default:
 187:../Libraries/libscpi/src/utils.c ****             case 10:
 188:../Libraries/libscpi/src/utils.c ****                 x = 10000000000000000000ULL;
 538              	 .loc 1 188 0
 539 0084 4CA3     	 adr r3,.L48
 540 0086 D3E90023 	 ldrd r2,[r3]
 541 008a C7E90E23 	 strd r2,[r7,#56]
 189:../Libraries/libscpi/src/utils.c ****                 base = 10;
 542              	 .loc 1 189 0
 543 008e 0A23     	 movs r3,#10
 544 0090 87F85030 	 strb r3,[r7,#80]
 190:../Libraries/libscpi/src/utils.c ****                 break;
 545              	 .loc 1 190 0
 546 0094 06E0     	 b .L39
 547              	.L37:
 191:../Libraries/libscpi/src/utils.c ****             case 16:
 192:../Libraries/libscpi/src/utils.c ****                 x = 0x1000000000000000ULL;
 548              	 .loc 1 192 0
 549 0096 4FF00002 	 mov r2,#0
 550 009a 4FF08053 	 mov r3,#268435456
 551 009e C7E90E23 	 strd r2,[r7,#56]
 193:../Libraries/libscpi/src/utils.c ****                 break;
 552              	 .loc 1 193 0
 553 00a2 00BF     	 nop
 554              	.L39:
 194:../Libraries/libscpi/src/utils.c ****         }
 195:../Libraries/libscpi/src/utils.c **** 
 196:../Libraries/libscpi/src/utils.c ****         /* add sign for numbers in base 10 */
 197:../Libraries/libscpi/src/utils.c ****         if (sign && ((int64_t) val < 0) && (base == 10)) {
 555              	 .loc 1 197 0
 556 00a4 97F85430 	 ldrb r3,[r7,#84]
 557 00a8 002B     	 cmp r3,#0
 558 00aa 1BD0     	 beq .L40
 559              	 .loc 1 197 0 is_stmt 0 discriminator 1
 560 00ac D7E90223 	 ldrd r2,[r7,#8]
 561 00b0 002A     	 cmp r2,#0
 562 00b2 73F10003 	 sbcs r3,r3,#0
 563 00b6 15DA     	 bge .L40
 564              	 .loc 1 197 0 discriminator 2
 565 00b8 97F95030 	 ldrsb r3,[r7,#80]
 566 00bc 0A2B     	 cmp r3,#10
 567 00be 11D1     	 bne .L40
 198:../Libraries/libscpi/src/utils.c ****             uval = -val;
 568              	 .loc 1 198 0 is_stmt 1
 569 00c0 D7E90223 	 ldrd r2,[r7,#8]
 570 00c4 5242     	 rsbs r2,r2,#0
 571 00c6 63EB4303 	 sbc r3,r3,r3,lsl#1
 572 00ca C7E90A23 	 strd r2,[r7,#40]
 199:../Libraries/libscpi/src/utils.c ****             ADD_CHAR('-');
 573              	 .loc 1 199 0
 574 00ce 7A6B     	 ldr r2,[r7,#52]
 575 00d0 3B68     	 ldr r3,[r7]
 576 00d2 9A42     	 cmp r2,r3
 577 00d4 06D2     	 bcs .L40
 578              	 .loc 1 199 0 is_stmt 0 discriminator 1
 579 00d6 7B6B     	 ldr r3,[r7,#52]
 580 00d8 5A1C     	 adds r2,r3,#1
 581 00da 7A63     	 str r2,[r7,#52]
 582 00dc 7A68     	 ldr r2,[r7,#4]
 583 00de 1344     	 add r3,r3,r2
 584 00e0 2D22     	 movs r2,#45
 585 00e2 1A70     	 strb r2,[r3]
 586              	.L40:
 200:../Libraries/libscpi/src/utils.c ****         }
 201:../Libraries/libscpi/src/utils.c **** 
 202:../Libraries/libscpi/src/utils.c ****         /* remove leading zeros */
 203:../Libraries/libscpi/src/utils.c ****         while ((uval / x) == 0) {
 587              	 .loc 1 203 0 is_stmt 1
 588 00e4 0BE0     	 b .L41
 589              	.L42:
 204:../Libraries/libscpi/src/utils.c ****             x /= base;
 590              	 .loc 1 204 0
 591 00e6 97F95020 	 ldrsb r2,[r7,#80]
 592 00ea 4FEAE273 	 asr r3,r2,#31
 593 00ee D7E90E01 	 ldrd r0,[r7,#56]
 594 00f2 FFF7FEFF 	 bl __aeabi_uldivmod
 595 00f6 0246     	 mov r2,r0
 596 00f8 0B46     	 mov r3,r1
 597 00fa C7E90E23 	 strd r2,[r7,#56]
 598              	.L41:
 203:../Libraries/libscpi/src/utils.c ****             x /= base;
 599              	 .loc 1 203 0
 600 00fe D7E90A01 	 ldrd r0,[r7,#40]
 601 0102 D7E90E23 	 ldrd r2,[r7,#56]
 602 0106 FFF7FEFF 	 bl __aeabi_uldivmod
 603 010a 0246     	 mov r2,r0
 604 010c 0B46     	 mov r3,r1
 605 010e 1343     	 orrs r3,r2,r3
 606 0110 E9D0     	 beq .L42
 607              	.L44:
 205:../Libraries/libscpi/src/utils.c ****         }
 206:../Libraries/libscpi/src/utils.c **** 
 207:../Libraries/libscpi/src/utils.c ****         do {
 208:../Libraries/libscpi/src/utils.c ****             digit = (uint8_t) (uval / x);
 608              	 .loc 1 208 0
 609 0112 D7E90A01 	 ldrd r0,[r7,#40]
 610 0116 D7E90E23 	 ldrd r2,[r7,#56]
 611 011a FFF7FEFF 	 bl __aeabi_uldivmod
 612 011e 0246     	 mov r2,r0
 613 0120 0B46     	 mov r3,r1
 614 0122 D3B2     	 uxtb r3,r2
 615 0124 7B62     	 str r3,[r7,#36]
 209:../Libraries/libscpi/src/utils.c ****             ADD_CHAR(digits[digit]);
 616              	 .loc 1 209 0
 617 0126 7A6B     	 ldr r2,[r7,#52]
 618 0128 3B68     	 ldr r3,[r7]
 619 012a 9A42     	 cmp r2,r3
 620 012c 0AD2     	 bcs .L43
 621              	 .loc 1 209 0 is_stmt 0 discriminator 1
 622 012e 7B6B     	 ldr r3,[r7,#52]
 623 0130 5A1C     	 adds r2,r3,#1
 624 0132 7A63     	 str r2,[r7,#52]
 625 0134 7A68     	 ldr r2,[r7,#4]
 626 0136 1344     	 add r3,r3,r2
 627 0138 07F11001 	 add r1,r7,#16
 628 013c 7A6A     	 ldr r2,[r7,#36]
 629 013e 0A44     	 add r2,r2,r1
 630 0140 1278     	 ldrb r2,[r2]
 631 0142 1A70     	 strb r2,[r3]
 632              	.L43:
 210:../Libraries/libscpi/src/utils.c ****             uval -= digit * x;
 633              	 .loc 1 210 0 is_stmt 1
 634 0144 7B6A     	 ldr r3,[r7,#36]
 635 0146 1A46     	 mov r2,r3
 636 0148 4FEAE273 	 asr r3,r2,#31
 637 014c B96B     	 ldr r1,[r7,#56]
 638 014e 03FB01F0 	 mul r0,r3,r1
 639 0152 F96B     	 ldr r1,[r7,#60]
 640 0154 02FB01F1 	 mul r1,r2,r1
 641 0158 0144     	 add r1,r1,r0
 642 015a B86B     	 ldr r0,[r7,#56]
 643 015c A0FB0223 	 umull r2,r3,r0,r2
 644 0160 1944     	 add r1,r1,r3
 645 0162 0B46     	 mov r3,r1
 646 0164 D7E90A01 	 ldrd r0,[r7,#40]
 647 0168 821A     	 subs r2,r0,r2
 648 016a 61EB0303 	 sbc r3,r1,r3
 649 016e C7E90A23 	 strd r2,[r7,#40]
 211:../Libraries/libscpi/src/utils.c ****             x /= base;
 650              	 .loc 1 211 0
 651 0172 97F95020 	 ldrsb r2,[r7,#80]
 652 0176 4FEAE273 	 asr r3,r2,#31
 653 017a D7E90E01 	 ldrd r0,[r7,#56]
 654 017e FFF7FEFF 	 bl __aeabi_uldivmod
 655 0182 0246     	 mov r2,r0
 656 0184 0B46     	 mov r3,r1
 657 0186 C7E90E23 	 strd r2,[r7,#56]
 212:../Libraries/libscpi/src/utils.c ****         } while (x && (pos < len));
 658              	 .loc 1 212 0
 659 018a D7E90E23 	 ldrd r2,[r7,#56]
 660 018e 1343     	 orrs r3,r2,r3
 661 0190 03D0     	 beq .L34
 662              	 .loc 1 212 0 is_stmt 0 discriminator 1
 663 0192 7A6B     	 ldr r2,[r7,#52]
 664 0194 3B68     	 ldr r3,[r7]
 665 0196 9A42     	 cmp r2,r3
 666 0198 BBD3     	 bcc .L44
 667              	.L34:
 213:../Libraries/libscpi/src/utils.c ****     }
 214:../Libraries/libscpi/src/utils.c **** 
 215:../Libraries/libscpi/src/utils.c ****     if (pos < len) str[pos] = 0;
 668              	 .loc 1 215 0 is_stmt 1
 669 019a 7A6B     	 ldr r2,[r7,#52]
 670 019c 3B68     	 ldr r3,[r7]
 671 019e 9A42     	 cmp r2,r3
 672 01a0 04D2     	 bcs .L45
 673              	 .loc 1 215 0 is_stmt 0 discriminator 1
 674 01a2 7A68     	 ldr r2,[r7,#4]
 675 01a4 7B6B     	 ldr r3,[r7,#52]
 676 01a6 1344     	 add r3,r3,r2
 677 01a8 0022     	 movs r2,#0
 678 01aa 1A70     	 strb r2,[r3]
 679              	.L45:
 216:../Libraries/libscpi/src/utils.c ****     return pos;
 680              	 .loc 1 216 0 is_stmt 1
 681 01ac 7B6B     	 ldr r3,[r7,#52]
 217:../Libraries/libscpi/src/utils.c **** #undef ADD_CHAR
 218:../Libraries/libscpi/src/utils.c **** }
 682              	 .loc 1 218 0
 683 01ae 1846     	 mov r0,r3
 684 01b0 4037     	 adds r7,r7,#64
 685              	.LCFI25:
 686              	 .cfi_def_cfa_offset 16
 687 01b2 BD46     	 mov sp,r7
 688              	.LCFI26:
 689              	 .cfi_def_cfa_register 13
 690              	 
 691 01b4 B0BD     	 pop {r4,r5,r7,pc}
 692              	.L49:
 693 01b6 00BF     	 .align 3
 694              	.L48:
 695 01b8 0000E889 	 .word -1981284352
 696 01bc 0423C78A 	 .word -1966660860
 697 01c0 00000000 	 .word .LC0
 698              	 .cfi_endproc
 699              	.LFE4:
 701 01c4 AFF30080 	 .section .text.SCPI_Int64ToStr,"ax",%progbits
 702              	 .align 2
 703              	 .global SCPI_Int64ToStr
 704              	 .thumb
 705              	 .thumb_func
 707              	SCPI_Int64ToStr:
 708              	.LFB5:
 219:../Libraries/libscpi/src/utils.c **** 
 220:../Libraries/libscpi/src/utils.c **** /**
 221:../Libraries/libscpi/src/utils.c ****  * Converts signed 64 bit integer value to string
 222:../Libraries/libscpi/src/utils.c ****  * @param val   integer value
 223:../Libraries/libscpi/src/utils.c ****  * @param str   converted textual representation
 224:../Libraries/libscpi/src/utils.c ****  * @param len   string buffer length
 225:../Libraries/libscpi/src/utils.c ****  * @return number of bytes written to str (without '\0')
 226:../Libraries/libscpi/src/utils.c ****  */
 227:../Libraries/libscpi/src/utils.c **** size_t SCPI_Int64ToStr(int64_t val, char * str, size_t len) {
 709              	 .loc 1 227 0
 710              	 .cfi_startproc
 711              	 
 712              	 
 713 0000 80B5     	 push {r7,lr}
 714              	.LCFI27:
 715              	 .cfi_def_cfa_offset 8
 716              	 .cfi_offset 7,-8
 717              	 .cfi_offset 14,-4
 718 0002 86B0     	 sub sp,sp,#24
 719              	.LCFI28:
 720              	 .cfi_def_cfa_offset 32
 721 0004 02AF     	 add r7,sp,#8
 722              	.LCFI29:
 723              	 .cfi_def_cfa 7,24
 724 0006 C7E90201 	 strd r0,[r7,#8]
 725 000a 7A60     	 str r2,[r7,#4]
 726 000c 3B60     	 str r3,[r7]
 228:../Libraries/libscpi/src/utils.c ****     return UInt64ToStrBaseSign((uint64_t) val, str, len, 10, TRUE);
 727              	 .loc 1 228 0
 728 000e D7E90223 	 ldrd r2,[r7,#8]
 729 0012 0A21     	 movs r1,#10
 730 0014 0091     	 str r1,[sp]
 731 0016 0121     	 movs r1,#1
 732 0018 0191     	 str r1,[sp,#4]
 733 001a 1046     	 mov r0,r2
 734 001c 1946     	 mov r1,r3
 735 001e 7A68     	 ldr r2,[r7,#4]
 736 0020 3B68     	 ldr r3,[r7]
 737 0022 FFF7FEFF 	 bl UInt64ToStrBaseSign
 738 0026 0346     	 mov r3,r0
 229:../Libraries/libscpi/src/utils.c **** }
 739              	 .loc 1 229 0
 740 0028 1846     	 mov r0,r3
 741 002a 1037     	 adds r7,r7,#16
 742              	.LCFI30:
 743              	 .cfi_def_cfa_offset 8
 744 002c BD46     	 mov sp,r7
 745              	.LCFI31:
 746              	 .cfi_def_cfa_register 13
 747              	 
 748 002e 80BD     	 pop {r7,pc}
 749              	 .cfi_endproc
 750              	.LFE5:
 752              	 .section .text.SCPI_UInt64ToStrBase,"ax",%progbits
 753              	 .align 2
 754              	 .global SCPI_UInt64ToStrBase
 755              	 .thumb
 756              	 .thumb_func
 758              	SCPI_UInt64ToStrBase:
 759              	.LFB6:
 230:../Libraries/libscpi/src/utils.c **** 
 231:../Libraries/libscpi/src/utils.c **** /**
 232:../Libraries/libscpi/src/utils.c ****  * Converts signed/unsigned 64 bit integer value to string in specific base
 233:../Libraries/libscpi/src/utils.c ****  * @param val   integer value
 234:../Libraries/libscpi/src/utils.c ****  * @param str   converted textual representation
 235:../Libraries/libscpi/src/utils.c ****  * @param len   string buffer length
 236:../Libraries/libscpi/src/utils.c ****  * @param base  output base
 237:../Libraries/libscpi/src/utils.c ****  * @return number of bytes written to str (without '\0')
 238:../Libraries/libscpi/src/utils.c ****  */
 239:../Libraries/libscpi/src/utils.c **** size_t SCPI_UInt64ToStrBase(uint64_t val, char * str, size_t len, int8_t base) {
 760              	 .loc 1 239 0
 761              	 .cfi_startproc
 762              	 
 763              	 
 764 0000 80B5     	 push {r7,lr}
 765              	.LCFI32:
 766              	 .cfi_def_cfa_offset 8
 767              	 .cfi_offset 7,-8
 768              	 .cfi_offset 14,-4
 769 0002 86B0     	 sub sp,sp,#24
 770              	.LCFI33:
 771              	 .cfi_def_cfa_offset 32
 772 0004 02AF     	 add r7,sp,#8
 773              	.LCFI34:
 774              	 .cfi_def_cfa 7,24
 775 0006 C7E90201 	 strd r0,[r7,#8]
 776 000a 7A60     	 str r2,[r7,#4]
 777 000c 3B60     	 str r3,[r7]
 240:../Libraries/libscpi/src/utils.c ****     return UInt64ToStrBaseSign(val, str, len, base, FALSE);
 778              	 .loc 1 240 0
 779 000e 97F91830 	 ldrsb r3,[r7,#24]
 780 0012 0093     	 str r3,[sp]
 781 0014 0023     	 movs r3,#0
 782 0016 0193     	 str r3,[sp,#4]
 783 0018 D7E90201 	 ldrd r0,[r7,#8]
 784 001c 7A68     	 ldr r2,[r7,#4]
 785 001e 3B68     	 ldr r3,[r7]
 786 0020 FFF7FEFF 	 bl UInt64ToStrBaseSign
 787 0024 0346     	 mov r3,r0
 241:../Libraries/libscpi/src/utils.c **** }
 788              	 .loc 1 241 0
 789 0026 1846     	 mov r0,r3
 790 0028 1037     	 adds r7,r7,#16
 791              	.LCFI35:
 792              	 .cfi_def_cfa_offset 8
 793 002a BD46     	 mov sp,r7
 794              	.LCFI36:
 795              	 .cfi_def_cfa_register 13
 796              	 
 797 002c 80BD     	 pop {r7,pc}
 798              	 .cfi_endproc
 799              	.LFE6:
 801              	 .global __aeabi_f2d
 802 002e 00BF     	 .section .rodata
 803 0011 000000   	 .align 2
 804              	.LC1:
 805 0014 256700   	 .ascii "%g\000"
 806              	 .section .text.SCPI_FloatToStr,"ax",%progbits
 807              	 .align 2
 808              	 .global SCPI_FloatToStr
 809              	 .thumb
 810              	 .thumb_func
 812              	SCPI_FloatToStr:
 813              	.LFB7:
 242:../Libraries/libscpi/src/utils.c **** 
 243:../Libraries/libscpi/src/utils.c **** /**
 244:../Libraries/libscpi/src/utils.c ****  * Converts float (32 bit) value to string
 245:../Libraries/libscpi/src/utils.c ****  * @param val   long value
 246:../Libraries/libscpi/src/utils.c ****  * @param str   converted textual representation
 247:../Libraries/libscpi/src/utils.c ****  * @param len   string buffer length
 248:../Libraries/libscpi/src/utils.c ****  * @return number of bytes written to str (without '\0')
 249:../Libraries/libscpi/src/utils.c ****  */
 250:../Libraries/libscpi/src/utils.c **** size_t SCPI_FloatToStr(float val, char * str, size_t len) {
 814              	 .loc 1 250 0
 815              	 .cfi_startproc
 816              	 
 817              	 
 818 0000 80B5     	 push {r7,lr}
 819              	.LCFI37:
 820              	 .cfi_def_cfa_offset 8
 821              	 .cfi_offset 7,-8
 822              	 .cfi_offset 14,-4
 823 0002 86B0     	 sub sp,sp,#24
 824              	.LCFI38:
 825              	 .cfi_def_cfa_offset 32
 826 0004 02AF     	 add r7,sp,#8
 827              	.LCFI39:
 828              	 .cfi_def_cfa 7,24
 829 0006 F860     	 str r0,[r7,#12]
 830 0008 B960     	 str r1,[r7,#8]
 831 000a 7A60     	 str r2,[r7,#4]
 251:../Libraries/libscpi/src/utils.c ****     SCPIDEFINE_floatToStr(val, str, len);
 832              	 .loc 1 251 0
 833 000c F868     	 ldr r0,[r7,#12]
 834 000e FFF7FEFF 	 bl __aeabi_f2d
 835 0012 0246     	 mov r2,r0
 836 0014 0B46     	 mov r3,r1
 837 0016 CDE90023 	 strd r2,[sp]
 838 001a B868     	 ldr r0,[r7,#8]
 839 001c 7968     	 ldr r1,[r7,#4]
 840 001e 054A     	 ldr r2,.L56
 841 0020 FFF7FEFF 	 bl snprintf
 252:../Libraries/libscpi/src/utils.c ****     return strlen(str);
 842              	 .loc 1 252 0
 843 0024 B868     	 ldr r0,[r7,#8]
 844 0026 FFF7FEFF 	 bl strlen
 845 002a 0346     	 mov r3,r0
 253:../Libraries/libscpi/src/utils.c **** }
 846              	 .loc 1 253 0
 847 002c 1846     	 mov r0,r3
 848 002e 1037     	 adds r7,r7,#16
 849              	.LCFI40:
 850              	 .cfi_def_cfa_offset 8
 851 0030 BD46     	 mov sp,r7
 852              	.LCFI41:
 853              	 .cfi_def_cfa_register 13
 854              	 
 855 0032 80BD     	 pop {r7,pc}
 856              	.L57:
 857              	 .align 2
 858              	.L56:
 859 0034 14000000 	 .word .LC1
 860              	 .cfi_endproc
 861              	.LFE7:
 863              	 .section .rodata
 864 0017 00       	 .align 2
 865              	.LC2:
 866 0018 252E3135 	 .ascii "%.15lg\000"
 866      6C6700
 867              	 .section .text.SCPI_DoubleToStr,"ax",%progbits
 868              	 .align 2
 869              	 .global SCPI_DoubleToStr
 870              	 .thumb
 871              	 .thumb_func
 873              	SCPI_DoubleToStr:
 874              	.LFB8:
 254:../Libraries/libscpi/src/utils.c **** 
 255:../Libraries/libscpi/src/utils.c **** /**
 256:../Libraries/libscpi/src/utils.c ****  * Converts double (64 bit) value to string
 257:../Libraries/libscpi/src/utils.c ****  * @param val   double value
 258:../Libraries/libscpi/src/utils.c ****  * @param str   converted textual representation
 259:../Libraries/libscpi/src/utils.c ****  * @param len   string buffer length
 260:../Libraries/libscpi/src/utils.c ****  * @return number of bytes written to str (without '\0')
 261:../Libraries/libscpi/src/utils.c ****  */
 262:../Libraries/libscpi/src/utils.c **** size_t SCPI_DoubleToStr(double val, char * str, size_t len) {
 875              	 .loc 1 262 0
 876              	 .cfi_startproc
 877              	 
 878              	 
 879 0000 80B5     	 push {r7,lr}
 880              	.LCFI42:
 881              	 .cfi_def_cfa_offset 8
 882              	 .cfi_offset 7,-8
 883              	 .cfi_offset 14,-4
 884 0002 86B0     	 sub sp,sp,#24
 885              	.LCFI43:
 886              	 .cfi_def_cfa_offset 32
 887 0004 02AF     	 add r7,sp,#8
 888              	.LCFI44:
 889              	 .cfi_def_cfa 7,24
 890 0006 C7E90201 	 strd r0,[r7,#8]
 891 000a 7A60     	 str r2,[r7,#4]
 892 000c 3B60     	 str r3,[r7]
 263:../Libraries/libscpi/src/utils.c ****     SCPIDEFINE_doubleToStr(val, str, len);
 893              	 .loc 1 263 0
 894 000e D7E90223 	 ldrd r2,[r7,#8]
 895 0012 CDE90023 	 strd r2,[sp]
 896 0016 7868     	 ldr r0,[r7,#4]
 897 0018 3968     	 ldr r1,[r7]
 898 001a 054A     	 ldr r2,.L60
 899 001c FFF7FEFF 	 bl snprintf
 264:../Libraries/libscpi/src/utils.c ****     return strlen(str);
 900              	 .loc 1 264 0
 901 0020 7868     	 ldr r0,[r7,#4]
 902 0022 FFF7FEFF 	 bl strlen
 903 0026 0346     	 mov r3,r0
 265:../Libraries/libscpi/src/utils.c **** }
 904              	 .loc 1 265 0
 905 0028 1846     	 mov r0,r3
 906 002a 1037     	 adds r7,r7,#16
 907              	.LCFI45:
 908              	 .cfi_def_cfa_offset 8
 909 002c BD46     	 mov sp,r7
 910              	.LCFI46:
 911              	 .cfi_def_cfa_register 13
 912              	 
 913 002e 80BD     	 pop {r7,pc}
 914              	.L61:
 915              	 .align 2
 916              	.L60:
 917 0030 18000000 	 .word .LC2
 918              	 .cfi_endproc
 919              	.LFE8:
 921              	 .section .text.strBaseToInt32,"ax",%progbits
 922              	 .align 2
 923              	 .global strBaseToInt32
 924              	 .hidden strBaseToInt32
 925              	 .thumb
 926              	 .thumb_func
 928              	strBaseToInt32:
 929              	.LFB9:
 266:../Libraries/libscpi/src/utils.c **** 
 267:../Libraries/libscpi/src/utils.c **** /**
 268:../Libraries/libscpi/src/utils.c ****  * Converts string to signed 32bit integer representation
 269:../Libraries/libscpi/src/utils.c ****  * @param str   string value
 270:../Libraries/libscpi/src/utils.c ****  * @param val   32bit integer result
 271:../Libraries/libscpi/src/utils.c ****  * @return      number of bytes used in string
 272:../Libraries/libscpi/src/utils.c ****  */
 273:../Libraries/libscpi/src/utils.c **** size_t strBaseToInt32(const char * str, int32_t * val, int8_t base) {
 930              	 .loc 1 273 0
 931              	 .cfi_startproc
 932              	 
 933              	 
 934 0000 80B5     	 push {r7,lr}
 935              	.LCFI47:
 936              	 .cfi_def_cfa_offset 8
 937              	 .cfi_offset 7,-8
 938              	 .cfi_offset 14,-4
 939 0002 86B0     	 sub sp,sp,#24
 940              	.LCFI48:
 941              	 .cfi_def_cfa_offset 32
 942 0004 00AF     	 add r7,sp,#0
 943              	.LCFI49:
 944              	 .cfi_def_cfa_register 7
 945 0006 F860     	 str r0,[r7,#12]
 946 0008 B960     	 str r1,[r7,#8]
 947 000a 1346     	 mov r3,r2
 948 000c FB71     	 strb r3,[r7,#7]
 274:../Libraries/libscpi/src/utils.c ****     char * endptr;
 275:../Libraries/libscpi/src/utils.c ****     *val = strtol(str, &endptr, base);
 949              	 .loc 1 275 0
 950 000e 97F90730 	 ldrsb r3,[r7,#7]
 951 0012 07F11402 	 add r2,r7,#20
 952 0016 F868     	 ldr r0,[r7,#12]
 953 0018 1146     	 mov r1,r2
 954 001a 1A46     	 mov r2,r3
 955 001c FFF7FEFF 	 bl strtol
 956 0020 0246     	 mov r2,r0
 957 0022 BB68     	 ldr r3,[r7,#8]
 958 0024 1A60     	 str r2,[r3]
 276:../Libraries/libscpi/src/utils.c ****     return endptr - str;
 959              	 .loc 1 276 0
 960 0026 7B69     	 ldr r3,[r7,#20]
 961 0028 1A46     	 mov r2,r3
 962 002a FB68     	 ldr r3,[r7,#12]
 963 002c D31A     	 subs r3,r2,r3
 277:../Libraries/libscpi/src/utils.c **** }
 964              	 .loc 1 277 0
 965 002e 1846     	 mov r0,r3
 966 0030 1837     	 adds r7,r7,#24
 967              	.LCFI50:
 968              	 .cfi_def_cfa_offset 8
 969 0032 BD46     	 mov sp,r7
 970              	.LCFI51:
 971              	 .cfi_def_cfa_register 13
 972              	 
 973 0034 80BD     	 pop {r7,pc}
 974              	 .cfi_endproc
 975              	.LFE9:
 977 0036 00BF     	 .section .text.strBaseToUInt32,"ax",%progbits
 978              	 .align 2
 979              	 .global strBaseToUInt32
 980              	 .hidden strBaseToUInt32
 981              	 .thumb
 982              	 .thumb_func
 984              	strBaseToUInt32:
 985              	.LFB10:
 278:../Libraries/libscpi/src/utils.c **** 
 279:../Libraries/libscpi/src/utils.c **** /**
 280:../Libraries/libscpi/src/utils.c ****  * Converts string to unsigned 32bit integer representation
 281:../Libraries/libscpi/src/utils.c ****  * @param str   string value
 282:../Libraries/libscpi/src/utils.c ****  * @param val   32bit integer result
 283:../Libraries/libscpi/src/utils.c ****  * @return      number of bytes used in string
 284:../Libraries/libscpi/src/utils.c ****  */
 285:../Libraries/libscpi/src/utils.c **** size_t strBaseToUInt32(const char * str, uint32_t * val, int8_t base) {
 986              	 .loc 1 285 0
 987              	 .cfi_startproc
 988              	 
 989              	 
 990 0000 80B5     	 push {r7,lr}
 991              	.LCFI52:
 992              	 .cfi_def_cfa_offset 8
 993              	 .cfi_offset 7,-8
 994              	 .cfi_offset 14,-4
 995 0002 86B0     	 sub sp,sp,#24
 996              	.LCFI53:
 997              	 .cfi_def_cfa_offset 32
 998 0004 00AF     	 add r7,sp,#0
 999              	.LCFI54:
 1000              	 .cfi_def_cfa_register 7
 1001 0006 F860     	 str r0,[r7,#12]
 1002 0008 B960     	 str r1,[r7,#8]
 1003 000a 1346     	 mov r3,r2
 1004 000c FB71     	 strb r3,[r7,#7]
 286:../Libraries/libscpi/src/utils.c ****     char * endptr;
 287:../Libraries/libscpi/src/utils.c ****     *val = strtoul(str, &endptr, base);
 1005              	 .loc 1 287 0
 1006 000e 97F90730 	 ldrsb r3,[r7,#7]
 1007 0012 07F11402 	 add r2,r7,#20
 1008 0016 F868     	 ldr r0,[r7,#12]
 1009 0018 1146     	 mov r1,r2
 1010 001a 1A46     	 mov r2,r3
 1011 001c FFF7FEFF 	 bl strtoul
 1012 0020 0246     	 mov r2,r0
 1013 0022 BB68     	 ldr r3,[r7,#8]
 1014 0024 1A60     	 str r2,[r3]
 288:../Libraries/libscpi/src/utils.c ****     return endptr - str;
 1015              	 .loc 1 288 0
 1016 0026 7B69     	 ldr r3,[r7,#20]
 1017 0028 1A46     	 mov r2,r3
 1018 002a FB68     	 ldr r3,[r7,#12]
 1019 002c D31A     	 subs r3,r2,r3
 289:../Libraries/libscpi/src/utils.c **** }
 1020              	 .loc 1 289 0
 1021 002e 1846     	 mov r0,r3
 1022 0030 1837     	 adds r7,r7,#24
 1023              	.LCFI55:
 1024              	 .cfi_def_cfa_offset 8
 1025 0032 BD46     	 mov sp,r7
 1026              	.LCFI56:
 1027              	 .cfi_def_cfa_register 13
 1028              	 
 1029 0034 80BD     	 pop {r7,pc}
 1030              	 .cfi_endproc
 1031              	.LFE10:
 1033 0036 00BF     	 .section .text.strBaseToInt64,"ax",%progbits
 1034              	 .align 2
 1035              	 .global strBaseToInt64
 1036              	 .hidden strBaseToInt64
 1037              	 .thumb
 1038              	 .thumb_func
 1040              	strBaseToInt64:
 1041              	.LFB11:
 290:../Libraries/libscpi/src/utils.c **** 
 291:../Libraries/libscpi/src/utils.c **** /**
 292:../Libraries/libscpi/src/utils.c ****  * Converts string to signed 64bit integer representation
 293:../Libraries/libscpi/src/utils.c ****  * @param str   string value
 294:../Libraries/libscpi/src/utils.c ****  * @param val   64bit integer result
 295:../Libraries/libscpi/src/utils.c ****  * @return      number of bytes used in string
 296:../Libraries/libscpi/src/utils.c ****  */
 297:../Libraries/libscpi/src/utils.c **** size_t strBaseToInt64(const char * str, int64_t * val, int8_t base) {
 1042              	 .loc 1 297 0
 1043              	 .cfi_startproc
 1044              	 
 1045              	 
 1046 0000 80B5     	 push {r7,lr}
 1047              	.LCFI57:
 1048              	 .cfi_def_cfa_offset 8
 1049              	 .cfi_offset 7,-8
 1050              	 .cfi_offset 14,-4
 1051 0002 86B0     	 sub sp,sp,#24
 1052              	.LCFI58:
 1053              	 .cfi_def_cfa_offset 32
 1054 0004 00AF     	 add r7,sp,#0
 1055              	.LCFI59:
 1056              	 .cfi_def_cfa_register 7
 1057 0006 F860     	 str r0,[r7,#12]
 1058 0008 B960     	 str r1,[r7,#8]
 1059 000a 1346     	 mov r3,r2
 1060 000c FB71     	 strb r3,[r7,#7]
 298:../Libraries/libscpi/src/utils.c ****     char * endptr;
 299:../Libraries/libscpi/src/utils.c ****     *val = SCPIDEFINE_strtoll(str, &endptr, base);
 1061              	 .loc 1 299 0
 1062 000e 97F90730 	 ldrsb r3,[r7,#7]
 1063 0012 07F11402 	 add r2,r7,#20
 1064 0016 F868     	 ldr r0,[r7,#12]
 1065 0018 1146     	 mov r1,r2
 1066 001a 1A46     	 mov r2,r3
 1067 001c FFF7FEFF 	 bl strtoll
 1068 0020 0246     	 mov r2,r0
 1069 0022 0B46     	 mov r3,r1
 1070 0024 B968     	 ldr r1,[r7,#8]
 1071 0026 C1E90023 	 strd r2,[r1]
 300:../Libraries/libscpi/src/utils.c ****     return endptr - str;
 1072              	 .loc 1 300 0
 1073 002a 7B69     	 ldr r3,[r7,#20]
 1074 002c 1A46     	 mov r2,r3
 1075 002e FB68     	 ldr r3,[r7,#12]
 1076 0030 D31A     	 subs r3,r2,r3
 301:../Libraries/libscpi/src/utils.c **** }
 1077              	 .loc 1 301 0
 1078 0032 1846     	 mov r0,r3
 1079 0034 1837     	 adds r7,r7,#24
 1080              	.LCFI60:
 1081              	 .cfi_def_cfa_offset 8
 1082 0036 BD46     	 mov sp,r7
 1083              	.LCFI61:
 1084              	 .cfi_def_cfa_register 13
 1085              	 
 1086 0038 80BD     	 pop {r7,pc}
 1087              	 .cfi_endproc
 1088              	.LFE11:
 1090 003a 00BF     	 .section .text.strBaseToUInt64,"ax",%progbits
 1091              	 .align 2
 1092              	 .global strBaseToUInt64
 1093              	 .hidden strBaseToUInt64
 1094              	 .thumb
 1095              	 .thumb_func
 1097              	strBaseToUInt64:
 1098              	.LFB12:
 302:../Libraries/libscpi/src/utils.c **** 
 303:../Libraries/libscpi/src/utils.c **** /**
 304:../Libraries/libscpi/src/utils.c ****  * Converts string to unsigned 64bit integer representation
 305:../Libraries/libscpi/src/utils.c ****  * @param str   string value
 306:../Libraries/libscpi/src/utils.c ****  * @param val   64bit integer result
 307:../Libraries/libscpi/src/utils.c ****  * @return      number of bytes used in string
 308:../Libraries/libscpi/src/utils.c ****  */
 309:../Libraries/libscpi/src/utils.c **** size_t strBaseToUInt64(const char * str, uint64_t * val, int8_t base) {
 1099              	 .loc 1 309 0
 1100              	 .cfi_startproc
 1101              	 
 1102              	 
 1103 0000 80B5     	 push {r7,lr}
 1104              	.LCFI62:
 1105              	 .cfi_def_cfa_offset 8
 1106              	 .cfi_offset 7,-8
 1107              	 .cfi_offset 14,-4
 1108 0002 86B0     	 sub sp,sp,#24
 1109              	.LCFI63:
 1110              	 .cfi_def_cfa_offset 32
 1111 0004 00AF     	 add r7,sp,#0
 1112              	.LCFI64:
 1113              	 .cfi_def_cfa_register 7
 1114 0006 F860     	 str r0,[r7,#12]
 1115 0008 B960     	 str r1,[r7,#8]
 1116 000a 1346     	 mov r3,r2
 1117 000c FB71     	 strb r3,[r7,#7]
 310:../Libraries/libscpi/src/utils.c ****     char * endptr;
 311:../Libraries/libscpi/src/utils.c ****     *val = SCPIDEFINE_strtoull(str, &endptr, base);
 1118              	 .loc 1 311 0
 1119 000e 97F90730 	 ldrsb r3,[r7,#7]
 1120 0012 07F11402 	 add r2,r7,#20
 1121 0016 F868     	 ldr r0,[r7,#12]
 1122 0018 1146     	 mov r1,r2
 1123 001a 1A46     	 mov r2,r3
 1124 001c FFF7FEFF 	 bl strtoull
 1125 0020 0246     	 mov r2,r0
 1126 0022 0B46     	 mov r3,r1
 1127 0024 B968     	 ldr r1,[r7,#8]
 1128 0026 C1E90023 	 strd r2,[r1]
 312:../Libraries/libscpi/src/utils.c ****     return endptr - str;
 1129              	 .loc 1 312 0
 1130 002a 7B69     	 ldr r3,[r7,#20]
 1131 002c 1A46     	 mov r2,r3
 1132 002e FB68     	 ldr r3,[r7,#12]
 1133 0030 D31A     	 subs r3,r2,r3
 313:../Libraries/libscpi/src/utils.c **** }
 1134              	 .loc 1 313 0
 1135 0032 1846     	 mov r0,r3
 1136 0034 1837     	 adds r7,r7,#24
 1137              	.LCFI65:
 1138              	 .cfi_def_cfa_offset 8
 1139 0036 BD46     	 mov sp,r7
 1140              	.LCFI66:
 1141              	 .cfi_def_cfa_register 13
 1142              	 
 1143 0038 80BD     	 pop {r7,pc}
 1144              	 .cfi_endproc
 1145              	.LFE12:
 1147 003a 00BF     	 .section .text.strToFloat,"ax",%progbits
 1148              	 .align 2
 1149              	 .global strToFloat
 1150              	 .hidden strToFloat
 1151              	 .thumb
 1152              	 .thumb_func
 1154              	strToFloat:
 1155              	.LFB13:
 314:../Libraries/libscpi/src/utils.c **** 
 315:../Libraries/libscpi/src/utils.c **** /**
 316:../Libraries/libscpi/src/utils.c ****  * Converts string to float (32 bit) representation
 317:../Libraries/libscpi/src/utils.c ****  * @param str   string value
 318:../Libraries/libscpi/src/utils.c ****  * @param val   float result
 319:../Libraries/libscpi/src/utils.c ****  * @return      number of bytes used in string
 320:../Libraries/libscpi/src/utils.c ****  */
 321:../Libraries/libscpi/src/utils.c **** size_t strToFloat(const char * str, float * val) {
 1156              	 .loc 1 321 0
 1157              	 .cfi_startproc
 1158              	 
 1159              	 
 1160 0000 80B5     	 push {r7,lr}
 1161              	.LCFI67:
 1162              	 .cfi_def_cfa_offset 8
 1163              	 .cfi_offset 7,-8
 1164              	 .cfi_offset 14,-4
 1165 0002 84B0     	 sub sp,sp,#16
 1166              	.LCFI68:
 1167              	 .cfi_def_cfa_offset 24
 1168 0004 00AF     	 add r7,sp,#0
 1169              	.LCFI69:
 1170              	 .cfi_def_cfa_register 7
 1171 0006 7860     	 str r0,[r7,#4]
 1172 0008 3960     	 str r1,[r7]
 322:../Libraries/libscpi/src/utils.c ****     char * endptr;
 323:../Libraries/libscpi/src/utils.c ****     *val = SCPIDEFINE_strtof(str, &endptr);
 1173              	 .loc 1 323 0
 1174 000a 07F10C03 	 add r3,r7,#12
 1175 000e 7868     	 ldr r0,[r7,#4]
 1176 0010 1946     	 mov r1,r3
 1177 0012 FFF7FEFF 	 bl strtof
 1178 0016 0246     	 mov r2,r0
 1179 0018 3B68     	 ldr r3,[r7]
 1180 001a 1A60     	 str r2,[r3]
 324:../Libraries/libscpi/src/utils.c ****     return endptr - str;
 1181              	 .loc 1 324 0
 1182 001c FB68     	 ldr r3,[r7,#12]
 1183 001e 1A46     	 mov r2,r3
 1184 0020 7B68     	 ldr r3,[r7,#4]
 1185 0022 D31A     	 subs r3,r2,r3
 325:../Libraries/libscpi/src/utils.c **** }
 1186              	 .loc 1 325 0
 1187 0024 1846     	 mov r0,r3
 1188 0026 1037     	 adds r7,r7,#16
 1189              	.LCFI70:
 1190              	 .cfi_def_cfa_offset 8
 1191 0028 BD46     	 mov sp,r7
 1192              	.LCFI71:
 1193              	 .cfi_def_cfa_register 13
 1194              	 
 1195 002a 80BD     	 pop {r7,pc}
 1196              	 .cfi_endproc
 1197              	.LFE13:
 1199              	 .section .text.strToDouble,"ax",%progbits
 1200              	 .align 2
 1201              	 .global strToDouble
 1202              	 .hidden strToDouble
 1203              	 .thumb
 1204              	 .thumb_func
 1206              	strToDouble:
 1207              	.LFB14:
 326:../Libraries/libscpi/src/utils.c **** 
 327:../Libraries/libscpi/src/utils.c **** /**
 328:../Libraries/libscpi/src/utils.c ****  * Converts string to double (64 bit) representation
 329:../Libraries/libscpi/src/utils.c ****  * @param str   string value
 330:../Libraries/libscpi/src/utils.c ****  * @param val   double result
 331:../Libraries/libscpi/src/utils.c ****  * @return      number of bytes used in string
 332:../Libraries/libscpi/src/utils.c ****  */
 333:../Libraries/libscpi/src/utils.c **** size_t strToDouble(const char * str, double * val) {
 1208              	 .loc 1 333 0
 1209              	 .cfi_startproc
 1210              	 
 1211              	 
 1212 0000 80B5     	 push {r7,lr}
 1213              	.LCFI72:
 1214              	 .cfi_def_cfa_offset 8
 1215              	 .cfi_offset 7,-8
 1216              	 .cfi_offset 14,-4
 1217 0002 84B0     	 sub sp,sp,#16
 1218              	.LCFI73:
 1219              	 .cfi_def_cfa_offset 24
 1220 0004 00AF     	 add r7,sp,#0
 1221              	.LCFI74:
 1222              	 .cfi_def_cfa_register 7
 1223 0006 7860     	 str r0,[r7,#4]
 1224 0008 3960     	 str r1,[r7]
 334:../Libraries/libscpi/src/utils.c ****     char * endptr;
 335:../Libraries/libscpi/src/utils.c ****     *val = strtod(str, &endptr);
 1225              	 .loc 1 335 0
 1226 000a 07F10C03 	 add r3,r7,#12
 1227 000e 7868     	 ldr r0,[r7,#4]
 1228 0010 1946     	 mov r1,r3
 1229 0012 FFF7FEFF 	 bl strtod
 1230 0016 0246     	 mov r2,r0
 1231 0018 0B46     	 mov r3,r1
 1232 001a 3968     	 ldr r1,[r7]
 1233 001c C1E90023 	 strd r2,[r1]
 336:../Libraries/libscpi/src/utils.c ****     return endptr - str;
 1234              	 .loc 1 336 0
 1235 0020 FB68     	 ldr r3,[r7,#12]
 1236 0022 1A46     	 mov r2,r3
 1237 0024 7B68     	 ldr r3,[r7,#4]
 1238 0026 D31A     	 subs r3,r2,r3
 337:../Libraries/libscpi/src/utils.c **** }
 1239              	 .loc 1 337 0
 1240 0028 1846     	 mov r0,r3
 1241 002a 1037     	 adds r7,r7,#16
 1242              	.LCFI75:
 1243              	 .cfi_def_cfa_offset 8
 1244 002c BD46     	 mov sp,r7
 1245              	.LCFI76:
 1246              	 .cfi_def_cfa_register 13
 1247              	 
 1248 002e 80BD     	 pop {r7,pc}
 1249              	 .cfi_endproc
 1250              	.LFE14:
 1252              	 .section .text.compareStr,"ax",%progbits
 1253              	 .align 2
 1254              	 .global compareStr
 1255              	 .hidden compareStr
 1256              	 .thumb
 1257              	 .thumb_func
 1259              	compareStr:
 1260              	.LFB15:
 338:../Libraries/libscpi/src/utils.c **** 
 339:../Libraries/libscpi/src/utils.c **** /**
 340:../Libraries/libscpi/src/utils.c ****  * Compare two strings with exact length
 341:../Libraries/libscpi/src/utils.c ****  * @param str1
 342:../Libraries/libscpi/src/utils.c ****  * @param len1
 343:../Libraries/libscpi/src/utils.c ****  * @param str2
 344:../Libraries/libscpi/src/utils.c ****  * @param len2
 345:../Libraries/libscpi/src/utils.c ****  * @return TRUE if len1==len2 and "len" characters of both strings are equal
 346:../Libraries/libscpi/src/utils.c ****  */
 347:../Libraries/libscpi/src/utils.c **** scpi_bool_t compareStr(const char * str1, size_t len1, const char * str2, size_t len2) {
 1261              	 .loc 1 347 0
 1262              	 .cfi_startproc
 1263              	 
 1264              	 
 1265 0000 80B5     	 push {r7,lr}
 1266              	.LCFI77:
 1267              	 .cfi_def_cfa_offset 8
 1268              	 .cfi_offset 7,-8
 1269              	 .cfi_offset 14,-4
 1270 0002 84B0     	 sub sp,sp,#16
 1271              	.LCFI78:
 1272              	 .cfi_def_cfa_offset 24
 1273 0004 00AF     	 add r7,sp,#0
 1274              	.LCFI79:
 1275              	 .cfi_def_cfa_register 7
 1276 0006 F860     	 str r0,[r7,#12]
 1277 0008 B960     	 str r1,[r7,#8]
 1278 000a 7A60     	 str r2,[r7,#4]
 1279 000c 3B60     	 str r3,[r7]
 348:../Libraries/libscpi/src/utils.c ****     if (len1 != len2) {
 1280              	 .loc 1 348 0
 1281 000e BA68     	 ldr r2,[r7,#8]
 1282 0010 3B68     	 ldr r3,[r7]
 1283 0012 9A42     	 cmp r2,r3
 1284 0014 01D0     	 beq .L75
 349:../Libraries/libscpi/src/utils.c ****         return FALSE;
 1285              	 .loc 1 349 0
 1286 0016 0023     	 movs r3,#0
 1287 0018 0AE0     	 b .L76
 1288              	.L75:
 350:../Libraries/libscpi/src/utils.c ****     }
 351:../Libraries/libscpi/src/utils.c **** 
 352:../Libraries/libscpi/src/utils.c ****     if (SCPIDEFINE_strncasecmp(str1, str2, len2) == 0) {
 1289              	 .loc 1 352 0
 1290 001a F868     	 ldr r0,[r7,#12]
 1291 001c 7968     	 ldr r1,[r7,#4]
 1292 001e 3A68     	 ldr r2,[r7]
 1293 0020 FFF7FEFF 	 bl OUR_strncasecmp
 1294 0024 0346     	 mov r3,r0
 1295 0026 002B     	 cmp r3,#0
 1296 0028 01D1     	 bne .L77
 353:../Libraries/libscpi/src/utils.c ****         return TRUE;
 1297              	 .loc 1 353 0
 1298 002a 0123     	 movs r3,#1
 1299 002c 00E0     	 b .L76
 1300              	.L77:
 354:../Libraries/libscpi/src/utils.c ****     }
 355:../Libraries/libscpi/src/utils.c **** 
 356:../Libraries/libscpi/src/utils.c ****     return FALSE;
 1301              	 .loc 1 356 0
 1302 002e 0023     	 movs r3,#0
 1303              	.L76:
 357:../Libraries/libscpi/src/utils.c **** }
 1304              	 .loc 1 357 0
 1305 0030 1846     	 mov r0,r3
 1306 0032 1037     	 adds r7,r7,#16
 1307              	.LCFI80:
 1308              	 .cfi_def_cfa_offset 8
 1309 0034 BD46     	 mov sp,r7
 1310              	.LCFI81:
 1311              	 .cfi_def_cfa_register 13
 1312              	 
 1313 0036 80BD     	 pop {r7,pc}
 1314              	 .cfi_endproc
 1315              	.LFE15:
 1317              	 .section .text.compareStrAndNum,"ax",%progbits
 1318              	 .align 2
 1319              	 .global compareStrAndNum
 1320              	 .hidden compareStrAndNum
 1321              	 .thumb
 1322              	 .thumb_func
 1324              	compareStrAndNum:
 1325              	.LFB16:
 358:../Libraries/libscpi/src/utils.c **** 
 359:../Libraries/libscpi/src/utils.c **** /**
 360:../Libraries/libscpi/src/utils.c ****  * Compare two strings, one be longer but may contains only numbers in that section
 361:../Libraries/libscpi/src/utils.c ****  * @param str1
 362:../Libraries/libscpi/src/utils.c ****  * @param len1
 363:../Libraries/libscpi/src/utils.c ****  * @param str2
 364:../Libraries/libscpi/src/utils.c ****  * @param len2
 365:../Libraries/libscpi/src/utils.c ****  * @return TRUE if strings match
 366:../Libraries/libscpi/src/utils.c ****  */
 367:../Libraries/libscpi/src/utils.c **** scpi_bool_t compareStrAndNum(const char * str1, size_t len1, const char * str2, size_t len2, int32_
 1326              	 .loc 1 367 0
 1327              	 .cfi_startproc
 1328              	 
 1329              	 
 1330 0000 80B5     	 push {r7,lr}
 1331              	.LCFI82:
 1332              	 .cfi_def_cfa_offset 8
 1333              	 .cfi_offset 7,-8
 1334              	 .cfi_offset 14,-4
 1335 0002 88B0     	 sub sp,sp,#32
 1336              	.LCFI83:
 1337              	 .cfi_def_cfa_offset 40
 1338 0004 00AF     	 add r7,sp,#0
 1339              	.LCFI84:
 1340              	 .cfi_def_cfa_register 7
 1341 0006 F860     	 str r0,[r7,#12]
 1342 0008 B960     	 str r1,[r7,#8]
 1343 000a 7A60     	 str r2,[r7,#4]
 1344 000c 3B60     	 str r3,[r7]
 368:../Libraries/libscpi/src/utils.c ****     scpi_bool_t result = FALSE;
 1345              	 .loc 1 368 0
 1346 000e 0023     	 movs r3,#0
 1347 0010 FB77     	 strb r3,[r7,#31]
 369:../Libraries/libscpi/src/utils.c ****     size_t i;
 370:../Libraries/libscpi/src/utils.c **** 
 371:../Libraries/libscpi/src/utils.c ****     if (len2 < len1) {
 1348              	 .loc 1 371 0
 1349 0012 3A68     	 ldr r2,[r7]
 1350 0014 BB68     	 ldr r3,[r7,#8]
 1351 0016 9A42     	 cmp r2,r3
 1352 0018 01D2     	 bcs .L79
 372:../Libraries/libscpi/src/utils.c ****         return FALSE;
 1353              	 .loc 1 372 0
 1354 001a 0023     	 movs r3,#0
 1355 001c 44E0     	 b .L80
 1356              	.L79:
 373:../Libraries/libscpi/src/utils.c ****     }
 374:../Libraries/libscpi/src/utils.c **** 
 375:../Libraries/libscpi/src/utils.c ****     if (SCPIDEFINE_strncasecmp(str1, str2, len1) == 0) {
 1357              	 .loc 1 375 0
 1358 001e F868     	 ldr r0,[r7,#12]
 1359 0020 7968     	 ldr r1,[r7,#4]
 1360 0022 BA68     	 ldr r2,[r7,#8]
 1361 0024 FFF7FEFF 	 bl OUR_strncasecmp
 1362 0028 0346     	 mov r3,r0
 1363 002a 002B     	 cmp r3,#0
 1364 002c 3BD1     	 bne .L81
 376:../Libraries/libscpi/src/utils.c ****         result = TRUE;
 1365              	 .loc 1 376 0
 1366 002e 0123     	 movs r3,#1
 1367 0030 FB77     	 strb r3,[r7,#31]
 377:../Libraries/libscpi/src/utils.c **** 
 378:../Libraries/libscpi/src/utils.c ****         if (num) {
 1368              	 .loc 1 378 0
 1369 0032 BB6A     	 ldr r3,[r7,#40]
 1370 0034 002B     	 cmp r3,#0
 1371 0036 1CD0     	 beq .L82
 379:../Libraries/libscpi/src/utils.c ****             if (len1 == len2) {
 1372              	 .loc 1 379 0
 1373 0038 BA68     	 ldr r2,[r7,#8]
 1374 003a 3B68     	 ldr r3,[r7]
 1375 003c 9A42     	 cmp r2,r3
 1376 003e 32D0     	 beq .L81
 1377              	.LBB2:
 380:../Libraries/libscpi/src/utils.c ****                 /* *num = 1; */
 381:../Libraries/libscpi/src/utils.c ****             } else {
 382:../Libraries/libscpi/src/utils.c ****                 int32_t tmpNum;
 383:../Libraries/libscpi/src/utils.c ****                 i = len1 + strBaseToInt32(str2 + len1, &tmpNum, 10);
 1378              	 .loc 1 383 0
 1379 0040 7A68     	 ldr r2,[r7,#4]
 1380 0042 BB68     	 ldr r3,[r7,#8]
 1381 0044 1A44     	 add r2,r2,r3
 1382 0046 07F11403 	 add r3,r7,#20
 1383 004a 1046     	 mov r0,r2
 1384 004c 1946     	 mov r1,r3
 1385 004e 0A22     	 movs r2,#10
 1386 0050 FFF7FEFF 	 bl strBaseToInt32
 1387 0054 0246     	 mov r2,r0
 1388 0056 BB68     	 ldr r3,[r7,#8]
 1389 0058 1344     	 add r3,r3,r2
 1390 005a BB61     	 str r3,[r7,#24]
 384:../Libraries/libscpi/src/utils.c ****                 if (i != len2) {
 1391              	 .loc 1 384 0
 1392 005c BA69     	 ldr r2,[r7,#24]
 1393 005e 3B68     	 ldr r3,[r7]
 1394 0060 9A42     	 cmp r2,r3
 1395 0062 02D0     	 beq .L84
 385:../Libraries/libscpi/src/utils.c ****                     result = FALSE;
 1396              	 .loc 1 385 0
 1397 0064 0023     	 movs r3,#0
 1398 0066 FB77     	 strb r3,[r7,#31]
 1399 0068 1DE0     	 b .L81
 1400              	.L84:
 386:../Libraries/libscpi/src/utils.c ****                 } else {
 387:../Libraries/libscpi/src/utils.c ****                     *num = tmpNum;
 1401              	 .loc 1 387 0
 1402 006a 7A69     	 ldr r2,[r7,#20]
 1403 006c BB6A     	 ldr r3,[r7,#40]
 1404 006e 1A60     	 str r2,[r3]
 1405              	.LBE2:
 1406 0070 19E0     	 b .L81
 1407              	.L82:
 388:../Libraries/libscpi/src/utils.c ****                 }
 389:../Libraries/libscpi/src/utils.c ****             }
 390:../Libraries/libscpi/src/utils.c ****         } else {
 391:../Libraries/libscpi/src/utils.c ****             for (i = len1; i < len2; i++) {
 1408              	 .loc 1 391 0
 1409 0072 BB68     	 ldr r3,[r7,#8]
 1410 0074 BB61     	 str r3,[r7,#24]
 1411 0076 12E0     	 b .L86
 1412              	.L88:
 392:../Libraries/libscpi/src/utils.c ****                 if (!isdigit((int) str2[i])) {
 1413              	 .loc 1 392 0
 1414 0078 0D4B     	 ldr r3,.L89
 1415 007a 1A68     	 ldr r2,[r3]
 1416 007c 7968     	 ldr r1,[r7,#4]
 1417 007e BB69     	 ldr r3,[r7,#24]
 1418 0080 0B44     	 add r3,r3,r1
 1419 0082 1B78     	 ldrb r3,[r3]
 1420 0084 0133     	 adds r3,r3,#1
 1421 0086 1344     	 add r3,r3,r2
 1422 0088 1B78     	 ldrb r3,[r3]
 1423 008a 03F00403 	 and r3,r3,#4
 1424 008e 002B     	 cmp r3,#0
 1425 0090 02D1     	 bne .L87
 393:../Libraries/libscpi/src/utils.c ****                     result = FALSE;
 1426              	 .loc 1 393 0
 1427 0092 0023     	 movs r3,#0
 1428 0094 FB77     	 strb r3,[r7,#31]
 394:../Libraries/libscpi/src/utils.c ****                     break;
 1429              	 .loc 1 394 0
 1430 0096 06E0     	 b .L81
 1431              	.L87:
 391:../Libraries/libscpi/src/utils.c ****                 if (!isdigit((int) str2[i])) {
 1432              	 .loc 1 391 0 discriminator 2
 1433 0098 BB69     	 ldr r3,[r7,#24]
 1434 009a 0133     	 adds r3,r3,#1
 1435 009c BB61     	 str r3,[r7,#24]
 1436              	.L86:
 391:../Libraries/libscpi/src/utils.c ****                 if (!isdigit((int) str2[i])) {
 1437              	 .loc 1 391 0 is_stmt 0 discriminator 1
 1438 009e BA69     	 ldr r2,[r7,#24]
 1439 00a0 3B68     	 ldr r3,[r7]
 1440 00a2 9A42     	 cmp r2,r3
 1441 00a4 E8D3     	 bcc .L88
 1442              	.L81:
 395:../Libraries/libscpi/src/utils.c ****                 }
 396:../Libraries/libscpi/src/utils.c ****             }
 397:../Libraries/libscpi/src/utils.c ****         }
 398:../Libraries/libscpi/src/utils.c ****     }
 399:../Libraries/libscpi/src/utils.c **** 
 400:../Libraries/libscpi/src/utils.c ****     return result;
 1443              	 .loc 1 400 0 is_stmt 1
 1444 00a6 FB7F     	 ldrb r3,[r7,#31]
 1445              	.L80:
 401:../Libraries/libscpi/src/utils.c **** }
 1446              	 .loc 1 401 0
 1447 00a8 1846     	 mov r0,r3
 1448 00aa 2037     	 adds r7,r7,#32
 1449              	.LCFI85:
 1450              	 .cfi_def_cfa_offset 8
 1451 00ac BD46     	 mov sp,r7
 1452              	.LCFI86:
 1453              	 .cfi_def_cfa_register 13
 1454              	 
 1455 00ae 80BD     	 pop {r7,pc}
 1456              	.L90:
 1457              	 .align 2
 1458              	.L89:
 1459 00b0 00000000 	 .word __ctype_ptr__
 1460              	 .cfi_endproc
 1461              	.LFE16:
 1463              	 .section .text.skipWhitespace,"ax",%progbits
 1464              	 .align 2
 1465              	 .global skipWhitespace
 1466              	 .hidden skipWhitespace
 1467              	 .thumb
 1468              	 .thumb_func
 1470              	skipWhitespace:
 1471              	.LFB17:
 402:../Libraries/libscpi/src/utils.c **** 
 403:../Libraries/libscpi/src/utils.c **** /**
 404:../Libraries/libscpi/src/utils.c ****  * Count white spaces from the beggining
 405:../Libraries/libscpi/src/utils.c ****  * @param cmd - command
 406:../Libraries/libscpi/src/utils.c ****  * @param len - max search length
 407:../Libraries/libscpi/src/utils.c ****  * @return number of white spaces
 408:../Libraries/libscpi/src/utils.c ****  */
 409:../Libraries/libscpi/src/utils.c **** size_t skipWhitespace(const char * cmd, size_t len) {
 1472              	 .loc 1 409 0
 1473              	 .cfi_startproc
 1474              	 
 1475              	 
 1476              	 
 1477 0000 80B4     	 push {r7}
 1478              	.LCFI87:
 1479              	 .cfi_def_cfa_offset 4
 1480              	 .cfi_offset 7,-4
 1481 0002 85B0     	 sub sp,sp,#20
 1482              	.LCFI88:
 1483              	 .cfi_def_cfa_offset 24
 1484 0004 00AF     	 add r7,sp,#0
 1485              	.LCFI89:
 1486              	 .cfi_def_cfa_register 7
 1487 0006 7860     	 str r0,[r7,#4]
 1488 0008 3960     	 str r1,[r7]
 410:../Libraries/libscpi/src/utils.c ****     size_t i;
 411:../Libraries/libscpi/src/utils.c ****     for (i = 0; i < len; i++) {
 1489              	 .loc 1 411 0
 1490 000a 0023     	 movs r3,#0
 1491 000c FB60     	 str r3,[r7,#12]
 1492 000e 11E0     	 b .L92
 1493              	.L95:
 412:../Libraries/libscpi/src/utils.c ****         if (!isspace((unsigned char) cmd[i])) {
 1494              	 .loc 1 412 0
 1495 0010 0E4B     	 ldr r3,.L96
 1496 0012 1A68     	 ldr r2,[r3]
 1497 0014 7968     	 ldr r1,[r7,#4]
 1498 0016 FB68     	 ldr r3,[r7,#12]
 1499 0018 0B44     	 add r3,r3,r1
 1500 001a 1B78     	 ldrb r3,[r3]
 1501 001c 0133     	 adds r3,r3,#1
 1502 001e 1344     	 add r3,r3,r2
 1503 0020 1B78     	 ldrb r3,[r3]
 1504 0022 03F00803 	 and r3,r3,#8
 1505 0026 002B     	 cmp r3,#0
 1506 0028 01D1     	 bne .L93
 413:../Libraries/libscpi/src/utils.c ****             return i;
 1507              	 .loc 1 413 0
 1508 002a FB68     	 ldr r3,[r7,#12]
 1509 002c 07E0     	 b .L94
 1510              	.L93:
 411:../Libraries/libscpi/src/utils.c ****         if (!isspace((unsigned char) cmd[i])) {
 1511              	 .loc 1 411 0 discriminator 2
 1512 002e FB68     	 ldr r3,[r7,#12]
 1513 0030 0133     	 adds r3,r3,#1
 1514 0032 FB60     	 str r3,[r7,#12]
 1515              	.L92:
 411:../Libraries/libscpi/src/utils.c ****         if (!isspace((unsigned char) cmd[i])) {
 1516              	 .loc 1 411 0 is_stmt 0 discriminator 1
 1517 0034 FA68     	 ldr r2,[r7,#12]
 1518 0036 3B68     	 ldr r3,[r7]
 1519 0038 9A42     	 cmp r2,r3
 1520 003a E9D3     	 bcc .L95
 414:../Libraries/libscpi/src/utils.c ****         }
 415:../Libraries/libscpi/src/utils.c ****     }
 416:../Libraries/libscpi/src/utils.c ****     return len;
 1521              	 .loc 1 416 0 is_stmt 1
 1522 003c 3B68     	 ldr r3,[r7]
 1523              	.L94:
 417:../Libraries/libscpi/src/utils.c **** }
 1524              	 .loc 1 417 0
 1525 003e 1846     	 mov r0,r3
 1526 0040 1437     	 adds r7,r7,#20
 1527              	.LCFI90:
 1528              	 .cfi_def_cfa_offset 4
 1529 0042 BD46     	 mov sp,r7
 1530              	.LCFI91:
 1531              	 .cfi_def_cfa_register 13
 1532              	 
 1533 0044 5DF8047B 	 ldr r7,[sp],#4
 1534              	.LCFI92:
 1535              	 .cfi_restore 7
 1536              	 .cfi_def_cfa_offset 0
 1537 0048 7047     	 bx lr
 1538              	.L97:
 1539 004a 00BF     	 .align 2
 1540              	.L96:
 1541 004c 00000000 	 .word __ctype_ptr__
 1542              	 .cfi_endproc
 1543              	.LFE17:
 1545              	 .section .text.patternSeparatorShortPos,"ax",%progbits
 1546              	 .align 2
 1547              	 .thumb
 1548              	 .thumb_func
 1550              	patternSeparatorShortPos:
 1551              	.LFB18:
 418:../Libraries/libscpi/src/utils.c **** 
 419:../Libraries/libscpi/src/utils.c **** /**
 420:../Libraries/libscpi/src/utils.c ****  * Pattern is composed from upper case an lower case letters. This function
 421:../Libraries/libscpi/src/utils.c ****  * search the first lowercase letter
 422:../Libraries/libscpi/src/utils.c ****  * @param pattern
 423:../Libraries/libscpi/src/utils.c ****  * @param len - max search length
 424:../Libraries/libscpi/src/utils.c ****  * @return position of separator or len
 425:../Libraries/libscpi/src/utils.c ****  */
 426:../Libraries/libscpi/src/utils.c **** static size_t patternSeparatorShortPos(const char * pattern, size_t len) {
 1552              	 .loc 1 426 0
 1553              	 .cfi_startproc
 1554              	 
 1555              	 
 1556              	 
 1557 0000 80B4     	 push {r7}
 1558              	.LCFI93:
 1559              	 .cfi_def_cfa_offset 4
 1560              	 .cfi_offset 7,-4
 1561 0002 85B0     	 sub sp,sp,#20
 1562              	.LCFI94:
 1563              	 .cfi_def_cfa_offset 24
 1564 0004 00AF     	 add r7,sp,#0
 1565              	.LCFI95:
 1566              	 .cfi_def_cfa_register 7
 1567 0006 7860     	 str r0,[r7,#4]
 1568 0008 3960     	 str r1,[r7]
 427:../Libraries/libscpi/src/utils.c ****     size_t i;
 428:../Libraries/libscpi/src/utils.c ****     for (i = 0; (i < len) && pattern[i]; i++) {
 1569              	 .loc 1 428 0
 1570 000a 0023     	 movs r3,#0
 1571 000c FB60     	 str r3,[r7,#12]
 1572 000e 11E0     	 b .L99
 1573              	.L103:
 429:../Libraries/libscpi/src/utils.c ****         if (islower((unsigned char) pattern[i])) {
 1574              	 .loc 1 429 0
 1575 0010 114B     	 ldr r3,.L104
 1576 0012 1A68     	 ldr r2,[r3]
 1577 0014 7968     	 ldr r1,[r7,#4]
 1578 0016 FB68     	 ldr r3,[r7,#12]
 1579 0018 0B44     	 add r3,r3,r1
 1580 001a 1B78     	 ldrb r3,[r3]
 1581 001c 0133     	 adds r3,r3,#1
 1582 001e 1344     	 add r3,r3,r2
 1583 0020 1B78     	 ldrb r3,[r3]
 1584 0022 03F00303 	 and r3,r3,#3
 1585 0026 022B     	 cmp r3,#2
 1586 0028 01D1     	 bne .L100
 430:../Libraries/libscpi/src/utils.c ****             return i;
 1587              	 .loc 1 430 0
 1588 002a FB68     	 ldr r3,[r7,#12]
 1589 002c 0DE0     	 b .L101
 1590              	.L100:
 428:../Libraries/libscpi/src/utils.c ****         if (islower((unsigned char) pattern[i])) {
 1591              	 .loc 1 428 0 discriminator 2
 1592 002e FB68     	 ldr r3,[r7,#12]
 1593 0030 0133     	 adds r3,r3,#1
 1594 0032 FB60     	 str r3,[r7,#12]
 1595              	.L99:
 428:../Libraries/libscpi/src/utils.c ****         if (islower((unsigned char) pattern[i])) {
 1596              	 .loc 1 428 0 is_stmt 0 discriminator 1
 1597 0034 FA68     	 ldr r2,[r7,#12]
 1598 0036 3B68     	 ldr r3,[r7]
 1599 0038 9A42     	 cmp r2,r3
 1600 003a 05D2     	 bcs .L102
 428:../Libraries/libscpi/src/utils.c ****         if (islower((unsigned char) pattern[i])) {
 1601              	 .loc 1 428 0 discriminator 3
 1602 003c 7A68     	 ldr r2,[r7,#4]
 1603 003e FB68     	 ldr r3,[r7,#12]
 1604 0040 1344     	 add r3,r3,r2
 1605 0042 1B78     	 ldrb r3,[r3]
 1606 0044 002B     	 cmp r3,#0
 1607 0046 E3D1     	 bne .L103
 1608              	.L102:
 431:../Libraries/libscpi/src/utils.c ****         }
 432:../Libraries/libscpi/src/utils.c ****     }
 433:../Libraries/libscpi/src/utils.c ****     return i;
 1609              	 .loc 1 433 0 is_stmt 1
 1610 0048 FB68     	 ldr r3,[r7,#12]
 1611              	.L101:
 434:../Libraries/libscpi/src/utils.c **** }
 1612              	 .loc 1 434 0
 1613 004a 1846     	 mov r0,r3
 1614 004c 1437     	 adds r7,r7,#20
 1615              	.LCFI96:
 1616              	 .cfi_def_cfa_offset 4
 1617 004e BD46     	 mov sp,r7
 1618              	.LCFI97:
 1619              	 .cfi_def_cfa_register 13
 1620              	 
 1621 0050 5DF8047B 	 ldr r7,[sp],#4
 1622              	.LCFI98:
 1623              	 .cfi_restore 7
 1624              	 .cfi_def_cfa_offset 0
 1625 0054 7047     	 bx lr
 1626              	.L105:
 1627 0056 00BF     	 .align 2
 1628              	.L104:
 1629 0058 00000000 	 .word __ctype_ptr__
 1630              	 .cfi_endproc
 1631              	.LFE18:
 1633              	 .section .rodata
 1634 001f 00       	 .align 2
 1635              	.LC3:
 1636 0020 3F3A5B5D 	 .ascii "?:[]\000"
 1636      00
 1637              	 .section .text.patternSeparatorPos,"ax",%progbits
 1638              	 .align 2
 1639              	 .thumb
 1640              	 .thumb_func
 1642              	patternSeparatorPos:
 1643              	.LFB19:
 435:../Libraries/libscpi/src/utils.c **** 
 436:../Libraries/libscpi/src/utils.c **** /**
 437:../Libraries/libscpi/src/utils.c ****  * Find pattern separator position
 438:../Libraries/libscpi/src/utils.c ****  * @param pattern
 439:../Libraries/libscpi/src/utils.c ****  * @param len - max search length
 440:../Libraries/libscpi/src/utils.c ****  * @return position of separator or len
 441:../Libraries/libscpi/src/utils.c ****  */
 442:../Libraries/libscpi/src/utils.c **** static size_t patternSeparatorPos(const char * pattern, size_t len) {
 1644              	 .loc 1 442 0
 1645              	 .cfi_startproc
 1646              	 
 1647              	 
 1648 0000 80B5     	 push {r7,lr}
 1649              	.LCFI99:
 1650              	 .cfi_def_cfa_offset 8
 1651              	 .cfi_offset 7,-8
 1652              	 .cfi_offset 14,-4
 1653 0002 84B0     	 sub sp,sp,#16
 1654              	.LCFI100:
 1655              	 .cfi_def_cfa_offset 24
 1656 0004 00AF     	 add r7,sp,#0
 1657              	.LCFI101:
 1658              	 .cfi_def_cfa_register 7
 1659 0006 7860     	 str r0,[r7,#4]
 1660 0008 3960     	 str r1,[r7]
 443:../Libraries/libscpi/src/utils.c **** 
 444:../Libraries/libscpi/src/utils.c ****     char * separator = strnpbrk(pattern, len, "?:[]");
 1661              	 .loc 1 444 0
 1662 000a 7868     	 ldr r0,[r7,#4]
 1663 000c 3968     	 ldr r1,[r7]
 1664 000e 084A     	 ldr r2,.L109
 1665 0010 FFF7FEFF 	 bl strnpbrk
 1666 0014 F860     	 str r0,[r7,#12]
 445:../Libraries/libscpi/src/utils.c ****     if (separator == NULL) {
 1667              	 .loc 1 445 0
 1668 0016 FB68     	 ldr r3,[r7,#12]
 1669 0018 002B     	 cmp r3,#0
 1670 001a 01D1     	 bne .L107
 446:../Libraries/libscpi/src/utils.c ****         return len;
 1671              	 .loc 1 446 0
 1672 001c 3B68     	 ldr r3,[r7]
 1673 001e 02E0     	 b .L108
 1674              	.L107:
 447:../Libraries/libscpi/src/utils.c ****     } else {
 448:../Libraries/libscpi/src/utils.c ****         return separator - pattern;
 1675              	 .loc 1 448 0
 1676 0020 FA68     	 ldr r2,[r7,#12]
 1677 0022 7B68     	 ldr r3,[r7,#4]
 1678 0024 D31A     	 subs r3,r2,r3
 1679              	.L108:
 449:../Libraries/libscpi/src/utils.c ****     }
 450:../Libraries/libscpi/src/utils.c **** }
 1680              	 .loc 1 450 0
 1681 0026 1846     	 mov r0,r3
 1682 0028 1037     	 adds r7,r7,#16
 1683              	.LCFI102:
 1684              	 .cfi_def_cfa_offset 8
 1685 002a BD46     	 mov sp,r7
 1686              	.LCFI103:
 1687              	 .cfi_def_cfa_register 13
 1688              	 
 1689 002c 80BD     	 pop {r7,pc}
 1690              	.L110:
 1691 002e 00BF     	 .align 2
 1692              	.L109:
 1693 0030 20000000 	 .word .LC3
 1694              	 .cfi_endproc
 1695              	.LFE19:
 1697              	 .section .rodata
 1698 0025 000000   	 .align 2
 1699              	.LC4:
 1700 0028 3A3F00   	 .ascii ":?\000"
 1701              	 .section .text.cmdSeparatorPos,"ax",%progbits
 1702              	 .align 2
 1703              	 .thumb
 1704              	 .thumb_func
 1706              	cmdSeparatorPos:
 1707              	.LFB20:
 451:../Libraries/libscpi/src/utils.c **** 
 452:../Libraries/libscpi/src/utils.c **** /**
 453:../Libraries/libscpi/src/utils.c ****  * Find command separator position
 454:../Libraries/libscpi/src/utils.c ****  * @param cmd - input command
 455:../Libraries/libscpi/src/utils.c ****  * @param len - max search length
 456:../Libraries/libscpi/src/utils.c ****  * @return position of separator or len
 457:../Libraries/libscpi/src/utils.c ****  */
 458:../Libraries/libscpi/src/utils.c **** static size_t cmdSeparatorPos(const char * cmd, size_t len) {
 1708              	 .loc 1 458 0
 1709              	 .cfi_startproc
 1710              	 
 1711              	 
 1712 0000 80B5     	 push {r7,lr}
 1713              	.LCFI104:
 1714              	 .cfi_def_cfa_offset 8
 1715              	 .cfi_offset 7,-8
 1716              	 .cfi_offset 14,-4
 1717 0002 84B0     	 sub sp,sp,#16
 1718              	.LCFI105:
 1719              	 .cfi_def_cfa_offset 24
 1720 0004 00AF     	 add r7,sp,#0
 1721              	.LCFI106:
 1722              	 .cfi_def_cfa_register 7
 1723 0006 7860     	 str r0,[r7,#4]
 1724 0008 3960     	 str r1,[r7]
 459:../Libraries/libscpi/src/utils.c ****     char * separator = strnpbrk(cmd, len, ":?");
 1725              	 .loc 1 459 0
 1726 000a 7868     	 ldr r0,[r7,#4]
 1727 000c 3968     	 ldr r1,[r7]
 1728 000e 094A     	 ldr r2,.L115
 1729 0010 FFF7FEFF 	 bl strnpbrk
 1730 0014 B860     	 str r0,[r7,#8]
 460:../Libraries/libscpi/src/utils.c ****     size_t result;
 461:../Libraries/libscpi/src/utils.c ****     if (separator == NULL) {
 1731              	 .loc 1 461 0
 1732 0016 BB68     	 ldr r3,[r7,#8]
 1733 0018 002B     	 cmp r3,#0
 1734 001a 02D1     	 bne .L112
 462:../Libraries/libscpi/src/utils.c ****         result = len;
 1735              	 .loc 1 462 0
 1736 001c 3B68     	 ldr r3,[r7]
 1737 001e FB60     	 str r3,[r7,#12]
 1738 0020 03E0     	 b .L113
 1739              	.L112:
 463:../Libraries/libscpi/src/utils.c ****     } else {
 464:../Libraries/libscpi/src/utils.c ****         result = separator - cmd;
 1740              	 .loc 1 464 0
 1741 0022 BA68     	 ldr r2,[r7,#8]
 1742 0024 7B68     	 ldr r3,[r7,#4]
 1743 0026 D31A     	 subs r3,r2,r3
 1744 0028 FB60     	 str r3,[r7,#12]
 1745              	.L113:
 465:../Libraries/libscpi/src/utils.c ****     }
 466:../Libraries/libscpi/src/utils.c **** 
 467:../Libraries/libscpi/src/utils.c ****     return result;
 1746              	 .loc 1 467 0
 1747 002a FB68     	 ldr r3,[r7,#12]
 468:../Libraries/libscpi/src/utils.c **** }
 1748              	 .loc 1 468 0
 1749 002c 1846     	 mov r0,r3
 1750 002e 1037     	 adds r7,r7,#16
 1751              	.LCFI107:
 1752              	 .cfi_def_cfa_offset 8
 1753 0030 BD46     	 mov sp,r7
 1754              	.LCFI108:
 1755              	 .cfi_def_cfa_register 13
 1756              	 
 1757 0032 80BD     	 pop {r7,pc}
 1758              	.L116:
 1759              	 .align 2
 1760              	.L115:
 1761 0034 28000000 	 .word .LC4
 1762              	 .cfi_endproc
 1763              	.LFE20:
 1765              	 .section .text.matchPattern,"ax",%progbits
 1766              	 .align 2
 1767              	 .global matchPattern
 1768              	 .hidden matchPattern
 1769              	 .thumb
 1770              	 .thumb_func
 1772              	matchPattern:
 1773              	.LFB21:
 469:../Libraries/libscpi/src/utils.c **** 
 470:../Libraries/libscpi/src/utils.c **** /**
 471:../Libraries/libscpi/src/utils.c ****  * Match pattern and str. Pattern is in format UPPERCASElowercase
 472:../Libraries/libscpi/src/utils.c ****  * @param pattern
 473:../Libraries/libscpi/src/utils.c ****  * @param pattern_len
 474:../Libraries/libscpi/src/utils.c ****  * @param str
 475:../Libraries/libscpi/src/utils.c ****  * @param str_len
 476:../Libraries/libscpi/src/utils.c ****  * @return
 477:../Libraries/libscpi/src/utils.c ****  */
 478:../Libraries/libscpi/src/utils.c **** scpi_bool_t matchPattern(const char * pattern, size_t pattern_len, const char * str, size_t str_len
 1774              	 .loc 1 478 0
 1775              	 .cfi_startproc
 1776              	 
 1777              	 
 1778 0000 80B5     	 push {r7,lr}
 1779              	.LCFI109:
 1780              	 .cfi_def_cfa_offset 8
 1781              	 .cfi_offset 7,-8
 1782              	 .cfi_offset 14,-4
 1783 0002 88B0     	 sub sp,sp,#32
 1784              	.LCFI110:
 1785              	 .cfi_def_cfa_offset 40
 1786 0004 02AF     	 add r7,sp,#8
 1787              	.LCFI111:
 1788              	 .cfi_def_cfa 7,32
 1789 0006 F860     	 str r0,[r7,#12]
 1790 0008 B960     	 str r1,[r7,#8]
 1791 000a 7A60     	 str r2,[r7,#4]
 1792 000c 3B60     	 str r3,[r7]
 479:../Libraries/libscpi/src/utils.c ****     int pattern_sep_pos_short;
 480:../Libraries/libscpi/src/utils.c **** 
 481:../Libraries/libscpi/src/utils.c ****     if ((pattern_len > 0) && pattern[pattern_len - 1] == '#') {
 1793              	 .loc 1 481 0
 1794 000e BB68     	 ldr r3,[r7,#8]
 1795 0010 002B     	 cmp r3,#0
 1796 0012 2DD0     	 beq .L118
 1797              	 .loc 1 481 0 is_stmt 0 discriminator 1
 1798 0014 BB68     	 ldr r3,[r7,#8]
 1799 0016 013B     	 subs r3,r3,#1
 1800 0018 FA68     	 ldr r2,[r7,#12]
 1801 001a 1344     	 add r3,r3,r2
 1802 001c 1B78     	 ldrb r3,[r3]
 1803 001e 232B     	 cmp r3,#35
 1804 0020 26D1     	 bne .L118
 1805              	.LBB3:
 482:../Libraries/libscpi/src/utils.c ****         size_t new_pattern_len = pattern_len - 1;
 1806              	 .loc 1 482 0 is_stmt 1
 1807 0022 BB68     	 ldr r3,[r7,#8]
 1808 0024 013B     	 subs r3,r3,#1
 1809 0026 7B61     	 str r3,[r7,#20]
 483:../Libraries/libscpi/src/utils.c **** 
 484:../Libraries/libscpi/src/utils.c ****         pattern_sep_pos_short = patternSeparatorShortPos(pattern, new_pattern_len);
 1810              	 .loc 1 484 0
 1811 0028 F868     	 ldr r0,[r7,#12]
 1812 002a 7969     	 ldr r1,[r7,#20]
 1813 002c FFF7FEFF 	 bl patternSeparatorShortPos
 1814 0030 0346     	 mov r3,r0
 1815 0032 3B61     	 str r3,[r7,#16]
 485:../Libraries/libscpi/src/utils.c **** 
 486:../Libraries/libscpi/src/utils.c ****         return compareStrAndNum(pattern, new_pattern_len, str, str_len, num) ||
 1816              	 .loc 1 486 0
 1817 0034 3B6A     	 ldr r3,[r7,#32]
 1818 0036 0093     	 str r3,[sp]
 1819 0038 F868     	 ldr r0,[r7,#12]
 1820 003a 7969     	 ldr r1,[r7,#20]
 1821 003c 7A68     	 ldr r2,[r7,#4]
 1822 003e 3B68     	 ldr r3,[r7]
 1823 0040 FFF7FEFF 	 bl compareStrAndNum
 1824 0044 0346     	 mov r3,r0
 1825 0046 002B     	 cmp r3,#0
 1826 0048 0BD1     	 bne .L119
 487:../Libraries/libscpi/src/utils.c ****                 compareStrAndNum(pattern, pattern_sep_pos_short, str, str_len, num);
 1827              	 .loc 1 487 0 discriminator 2
 1828 004a 3A69     	 ldr r2,[r7,#16]
 1829 004c 3B6A     	 ldr r3,[r7,#32]
 1830 004e 0093     	 str r3,[sp]
 1831 0050 F868     	 ldr r0,[r7,#12]
 1832 0052 1146     	 mov r1,r2
 1833 0054 7A68     	 ldr r2,[r7,#4]
 1834 0056 3B68     	 ldr r3,[r7]
 1835 0058 FFF7FEFF 	 bl compareStrAndNum
 1836 005c 0346     	 mov r3,r0
 486:../Libraries/libscpi/src/utils.c ****                 compareStrAndNum(pattern, pattern_sep_pos_short, str, str_len, num);
 1837              	 .loc 1 486 0 discriminator 2
 1838 005e 002B     	 cmp r3,#0
 1839 0060 01D0     	 beq .L120
 1840              	.L119:
 486:../Libraries/libscpi/src/utils.c ****                 compareStrAndNum(pattern, pattern_sep_pos_short, str, str_len, num);
 1841              	 .loc 1 486 0 is_stmt 0 discriminator 3
 1842 0062 0123     	 movs r3,#1
 1843 0064 00E0     	 b .L121
 1844              	.L120:
 486:../Libraries/libscpi/src/utils.c ****                 compareStrAndNum(pattern, pattern_sep_pos_short, str, str_len, num);
 1845              	 .loc 1 486 0 discriminator 4
 1846 0066 0023     	 movs r3,#0
 1847              	.L121:
 486:../Libraries/libscpi/src/utils.c ****                 compareStrAndNum(pattern, pattern_sep_pos_short, str, str_len, num);
 1848              	 .loc 1 486 0 discriminator 6
 1849 0068 03F00103 	 and r3,r3,#1
 1850 006c DBB2     	 uxtb r3,r3
 1851 006e 1EE0     	 b .L122
 1852              	.L118:
 1853              	.LBE3:
 488:../Libraries/libscpi/src/utils.c ****     } else {
 489:../Libraries/libscpi/src/utils.c **** 
 490:../Libraries/libscpi/src/utils.c ****         pattern_sep_pos_short = patternSeparatorShortPos(pattern, pattern_len);
 1854              	 .loc 1 490 0 is_stmt 1
 1855 0070 F868     	 ldr r0,[r7,#12]
 1856 0072 B968     	 ldr r1,[r7,#8]
 1857 0074 FFF7FEFF 	 bl patternSeparatorShortPos
 1858 0078 0346     	 mov r3,r0
 1859 007a 3B61     	 str r3,[r7,#16]
 491:../Libraries/libscpi/src/utils.c **** 
 492:../Libraries/libscpi/src/utils.c ****         return compareStr(pattern, pattern_len, str, str_len) ||
 1860              	 .loc 1 492 0
 1861 007c F868     	 ldr r0,[r7,#12]
 1862 007e B968     	 ldr r1,[r7,#8]
 1863 0080 7A68     	 ldr r2,[r7,#4]
 1864 0082 3B68     	 ldr r3,[r7]
 1865 0084 FFF7FEFF 	 bl compareStr
 1866 0088 0346     	 mov r3,r0
 1867 008a 002B     	 cmp r3,#0
 1868 008c 09D1     	 bne .L123
 493:../Libraries/libscpi/src/utils.c ****                 compareStr(pattern, pattern_sep_pos_short, str, str_len);
 1869              	 .loc 1 493 0 discriminator 2
 1870 008e 3B69     	 ldr r3,[r7,#16]
 1871 0090 F868     	 ldr r0,[r7,#12]
 1872 0092 1946     	 mov r1,r3
 1873 0094 7A68     	 ldr r2,[r7,#4]
 1874 0096 3B68     	 ldr r3,[r7]
 1875 0098 FFF7FEFF 	 bl compareStr
 1876 009c 0346     	 mov r3,r0
 492:../Libraries/libscpi/src/utils.c ****                 compareStr(pattern, pattern_sep_pos_short, str, str_len);
 1877              	 .loc 1 492 0 discriminator 2
 1878 009e 002B     	 cmp r3,#0
 1879 00a0 01D0     	 beq .L124
 1880              	.L123:
 492:../Libraries/libscpi/src/utils.c ****                 compareStr(pattern, pattern_sep_pos_short, str, str_len);
 1881              	 .loc 1 492 0 is_stmt 0 discriminator 3
 1882 00a2 0123     	 movs r3,#1
 1883 00a4 00E0     	 b .L125
 1884              	.L124:
 492:../Libraries/libscpi/src/utils.c ****                 compareStr(pattern, pattern_sep_pos_short, str, str_len);
 1885              	 .loc 1 492 0 discriminator 4
 1886 00a6 0023     	 movs r3,#0
 1887              	.L125:
 492:../Libraries/libscpi/src/utils.c ****                 compareStr(pattern, pattern_sep_pos_short, str, str_len);
 1888              	 .loc 1 492 0 discriminator 6
 1889 00a8 03F00103 	 and r3,r3,#1
 1890 00ac DBB2     	 uxtb r3,r3
 1891              	.L122:
 494:../Libraries/libscpi/src/utils.c ****     }
 495:../Libraries/libscpi/src/utils.c **** }
 1892              	 .loc 1 495 0 is_stmt 1
 1893 00ae 1846     	 mov r0,r3
 1894 00b0 1837     	 adds r7,r7,#24
 1895              	.LCFI112:
 1896              	 .cfi_def_cfa_offset 8
 1897 00b2 BD46     	 mov sp,r7
 1898              	.LCFI113:
 1899              	 .cfi_def_cfa_register 13
 1900              	 
 1901 00b4 80BD     	 pop {r7,pc}
 1902              	 .cfi_endproc
 1903              	.LFE21:
 1905 00b6 00BF     	 .section .text.matchCommand,"ax",%progbits
 1906              	 .align 2
 1907              	 .global matchCommand
 1908              	 .hidden matchCommand
 1909              	 .thumb
 1910              	 .thumb_func
 1912              	matchCommand:
 1913              	.LFB22:
 496:../Libraries/libscpi/src/utils.c **** 
 497:../Libraries/libscpi/src/utils.c **** /**
 498:../Libraries/libscpi/src/utils.c ****  * Compare pattern and command
 499:../Libraries/libscpi/src/utils.c ****  * @param pattern eg. [:MEASure]:VOLTage:DC?
 500:../Libraries/libscpi/src/utils.c ****  * @param cmd - command
 501:../Libraries/libscpi/src/utils.c ****  * @param len - max search length
 502:../Libraries/libscpi/src/utils.c ****  * @return TRUE if pattern matches, FALSE otherwise
 503:../Libraries/libscpi/src/utils.c ****  */
 504:../Libraries/libscpi/src/utils.c **** scpi_bool_t matchCommand(const char * pattern, const char * cmd, size_t len, int32_t *numbers, size
 1914              	 .loc 1 504 0
 1915              	 .cfi_startproc
 1916              	 
 1917              	 
 1918 0000 90B5     	 push {r4,r7,lr}
 1919              	.LCFI114:
 1920              	 .cfi_def_cfa_offset 12
 1921              	 .cfi_offset 4,-12
 1922              	 .cfi_offset 7,-8
 1923              	 .cfi_offset 14,-4
 1924 0002 91B0     	 sub sp,sp,#68
 1925              	.LCFI115:
 1926              	 .cfi_def_cfa_offset 80
 1927 0004 02AF     	 add r7,sp,#8
 1928              	.LCFI116:
 1929              	 .cfi_def_cfa 7,72
 1930 0006 F860     	 str r0,[r7,#12]
 1931 0008 B960     	 str r1,[r7,#8]
 1932 000a 7A60     	 str r2,[r7,#4]
 1933 000c 3B60     	 str r3,[r7]
 505:../Libraries/libscpi/src/utils.c **** #define SKIP_PATTERN(n) do {pattern_ptr += (n);  pattern_len -= (n);} while(0)
 506:../Libraries/libscpi/src/utils.c **** #define SKIP_CMD(n) do {cmd_ptr += (n);  cmd_len -= (n);} while(0)
 507:../Libraries/libscpi/src/utils.c **** 
 508:../Libraries/libscpi/src/utils.c ****     scpi_bool_t result = FALSE;
 1934              	 .loc 1 508 0
 1935 000e 0023     	 movs r3,#0
 1936 0010 87F83730 	 strb r3,[r7,#55]
 509:../Libraries/libscpi/src/utils.c ****     int brackets = 0;
 1937              	 .loc 1 509 0
 1938 0014 0023     	 movs r3,#0
 1939 0016 3B63     	 str r3,[r7,#48]
 510:../Libraries/libscpi/src/utils.c ****     int cmd_sep_pos = 0;
 1940              	 .loc 1 510 0
 1941 0018 0023     	 movs r3,#0
 1942 001a 7B61     	 str r3,[r7,#20]
 511:../Libraries/libscpi/src/utils.c **** 
 512:../Libraries/libscpi/src/utils.c ****     size_t numbers_idx = 0;
 1943              	 .loc 1 512 0
 1944 001c 0023     	 movs r3,#0
 1945 001e FB62     	 str r3,[r7,#44]
 513:../Libraries/libscpi/src/utils.c ****     int32_t *number_ptr = NULL;
 1946              	 .loc 1 513 0
 1947 0020 0023     	 movs r3,#0
 1948 0022 BB62     	 str r3,[r7,#40]
 514:../Libraries/libscpi/src/utils.c **** 
 515:../Libraries/libscpi/src/utils.c ****     const char * pattern_ptr = pattern;
 1949              	 .loc 1 515 0
 1950 0024 FB68     	 ldr r3,[r7,#12]
 1951 0026 7B62     	 str r3,[r7,#36]
 516:../Libraries/libscpi/src/utils.c ****     int pattern_len = strlen(pattern);
 1952              	 .loc 1 516 0
 1953 0028 F868     	 ldr r0,[r7,#12]
 1954 002a FFF7FEFF 	 bl strlen
 1955 002e 0346     	 mov r3,r0
 1956 0030 3B62     	 str r3,[r7,#32]
 517:../Libraries/libscpi/src/utils.c **** 
 518:../Libraries/libscpi/src/utils.c ****     const char * cmd_ptr = cmd;
 1957              	 .loc 1 518 0
 1958 0032 BB68     	 ldr r3,[r7,#8]
 1959 0034 FB61     	 str r3,[r7,#28]
 519:../Libraries/libscpi/src/utils.c ****     size_t cmd_len = SCPIDEFINE_strnlen(cmd, len);
 1960              	 .loc 1 519 0
 1961 0036 B868     	 ldr r0,[r7,#8]
 1962 0038 7968     	 ldr r1,[r7,#4]
 1963 003a FFF7FEFF 	 bl BSD_strnlen
 1964 003e B861     	 str r0,[r7,#24]
 520:../Libraries/libscpi/src/utils.c **** 
 521:../Libraries/libscpi/src/utils.c ****     /* both commands are query commands? */
 522:../Libraries/libscpi/src/utils.c ****     if (pattern_ptr[pattern_len - 1] == '?') {
 1965              	 .loc 1 522 0
 1966 0040 3B6A     	 ldr r3,[r7,#32]
 1967 0042 013B     	 subs r3,r3,#1
 1968 0044 7A6A     	 ldr r2,[r7,#36]
 1969 0046 1344     	 add r3,r3,r2
 1970 0048 1B78     	 ldrb r3,[r3]
 1971 004a 3F2B     	 cmp r3,#63
 1972 004c 0FD1     	 bne .L127
 523:../Libraries/libscpi/src/utils.c ****         if (cmd_ptr[cmd_len - 1] == '?') {
 1973              	 .loc 1 523 0
 1974 004e BB69     	 ldr r3,[r7,#24]
 1975 0050 013B     	 subs r3,r3,#1
 1976 0052 FA69     	 ldr r2,[r7,#28]
 1977 0054 1344     	 add r3,r3,r2
 1978 0056 1B78     	 ldrb r3,[r3]
 1979 0058 3F2B     	 cmp r3,#63
 1980 005a 06D1     	 bne .L128
 524:../Libraries/libscpi/src/utils.c ****             cmd_len -= 1;
 1981              	 .loc 1 524 0
 1982 005c BB69     	 ldr r3,[r7,#24]
 1983 005e 013B     	 subs r3,r3,#1
 1984 0060 BB61     	 str r3,[r7,#24]
 525:../Libraries/libscpi/src/utils.c ****             pattern_len -= 1;
 1985              	 .loc 1 525 0
 1986 0062 3B6A     	 ldr r3,[r7,#32]
 1987 0064 013B     	 subs r3,r3,#1
 1988 0066 3B62     	 str r3,[r7,#32]
 1989 0068 01E0     	 b .L127
 1990              	.L128:
 526:../Libraries/libscpi/src/utils.c ****         } else {
 527:../Libraries/libscpi/src/utils.c ****             return FALSE;
 1991              	 .loc 1 527 0
 1992 006a 0023     	 movs r3,#0
 1993 006c 8CE1     	 b .L129
 1994              	.L127:
 528:../Libraries/libscpi/src/utils.c ****         }
 529:../Libraries/libscpi/src/utils.c ****     }
 530:../Libraries/libscpi/src/utils.c **** 
 531:../Libraries/libscpi/src/utils.c ****     /* now support optional keywords in pattern style, e.g. [:MEASure]:VOLTage:DC? */
 532:../Libraries/libscpi/src/utils.c ****     if (pattern_ptr[0] == '[') { /* skip first '[' */
 1995              	 .loc 1 532 0
 1996 006e 7B6A     	 ldr r3,[r7,#36]
 1997 0070 1B78     	 ldrb r3,[r3]
 1998 0072 5B2B     	 cmp r3,#91
 1999 0074 08D1     	 bne .L130
 533:../Libraries/libscpi/src/utils.c ****         SKIP_PATTERN(1);
 2000              	 .loc 1 533 0
 2001 0076 7B6A     	 ldr r3,[r7,#36]
 2002 0078 0133     	 adds r3,r3,#1
 2003 007a 7B62     	 str r3,[r7,#36]
 2004 007c 3B6A     	 ldr r3,[r7,#32]
 2005 007e 013B     	 subs r3,r3,#1
 2006 0080 3B62     	 str r3,[r7,#32]
 534:../Libraries/libscpi/src/utils.c ****         brackets++;
 2007              	 .loc 1 534 0
 2008 0082 3B6B     	 ldr r3,[r7,#48]
 2009 0084 0133     	 adds r3,r3,#1
 2010 0086 3B63     	 str r3,[r7,#48]
 2011              	.L130:
 535:../Libraries/libscpi/src/utils.c ****     }
 536:../Libraries/libscpi/src/utils.c ****     if (pattern_ptr[0] == ':') { /* skip first ':' */
 2012              	 .loc 1 536 0
 2013 0088 7B6A     	 ldr r3,[r7,#36]
 2014 008a 1B78     	 ldrb r3,[r3]
 2015 008c 3A2B     	 cmp r3,#58
 2016 008e 05D1     	 bne .L131
 537:../Libraries/libscpi/src/utils.c ****         SKIP_PATTERN(1);
 2017              	 .loc 1 537 0
 2018 0090 7B6A     	 ldr r3,[r7,#36]
 2019 0092 0133     	 adds r3,r3,#1
 2020 0094 7B62     	 str r3,[r7,#36]
 2021 0096 3B6A     	 ldr r3,[r7,#32]
 2022 0098 013B     	 subs r3,r3,#1
 2023 009a 3B62     	 str r3,[r7,#32]
 2024              	.L131:
 538:../Libraries/libscpi/src/utils.c ****     }
 539:../Libraries/libscpi/src/utils.c **** 
 540:../Libraries/libscpi/src/utils.c ****     if (cmd_ptr[0] == ':') {
 2025              	 .loc 1 540 0
 2026 009c FB69     	 ldr r3,[r7,#28]
 2027 009e 1B78     	 ldrb r3,[r3]
 2028 00a0 3A2B     	 cmp r3,#58
 2029 00a2 10D1     	 bne .L132
 541:../Libraries/libscpi/src/utils.c ****         /* handle errornouse ":*IDN?" */
 542:../Libraries/libscpi/src/utils.c ****         if (cmd_len >= 2) {
 2030              	 .loc 1 542 0
 2031 00a4 BB69     	 ldr r3,[r7,#24]
 2032 00a6 012B     	 cmp r3,#1
 2033 00a8 0DD9     	 bls .L132
 543:../Libraries/libscpi/src/utils.c ****             if (cmd_ptr[1] != '*') {
 2034              	 .loc 1 543 0
 2035 00aa FB69     	 ldr r3,[r7,#28]
 2036 00ac 0133     	 adds r3,r3,#1
 2037 00ae 1B78     	 ldrb r3,[r3]
 2038 00b0 2A2B     	 cmp r3,#42
 2039 00b2 06D0     	 beq .L133
 544:../Libraries/libscpi/src/utils.c ****                 SKIP_CMD(1);
 2040              	 .loc 1 544 0
 2041 00b4 FB69     	 ldr r3,[r7,#28]
 2042 00b6 0133     	 adds r3,r3,#1
 2043 00b8 FB61     	 str r3,[r7,#28]
 2044 00ba BB69     	 ldr r3,[r7,#24]
 2045 00bc 013B     	 subs r3,r3,#1
 2046 00be BB61     	 str r3,[r7,#24]
 2047 00c0 01E0     	 b .L132
 2048              	.L133:
 545:../Libraries/libscpi/src/utils.c ****             } else {
 546:../Libraries/libscpi/src/utils.c ****                 return FALSE;
 2049              	 .loc 1 546 0
 2050 00c2 0023     	 movs r3,#0
 2051 00c4 60E1     	 b .L129
 2052              	.L132:
 2053              	.LBB4:
 547:../Libraries/libscpi/src/utils.c ****             }
 548:../Libraries/libscpi/src/utils.c ****         }
 549:../Libraries/libscpi/src/utils.c ****     }
 550:../Libraries/libscpi/src/utils.c **** 
 551:../Libraries/libscpi/src/utils.c ****     while (1) {
 552:../Libraries/libscpi/src/utils.c ****         int pattern_sep_pos = patternSeparatorPos(pattern_ptr, pattern_len);
 2054              	 .loc 1 552 0
 2055 00c6 3B6A     	 ldr r3,[r7,#32]
 2056 00c8 786A     	 ldr r0,[r7,#36]
 2057 00ca 1946     	 mov r1,r3
 2058 00cc FFF7FEFF 	 bl patternSeparatorPos
 2059 00d0 0346     	 mov r3,r0
 2060 00d2 3B61     	 str r3,[r7,#16]
 553:../Libraries/libscpi/src/utils.c **** 
 554:../Libraries/libscpi/src/utils.c ****         cmd_sep_pos = cmdSeparatorPos(cmd_ptr, cmd_len);
 2061              	 .loc 1 554 0
 2062 00d4 F869     	 ldr r0,[r7,#28]
 2063 00d6 B969     	 ldr r1,[r7,#24]
 2064 00d8 FFF7FEFF 	 bl cmdSeparatorPos
 2065 00dc 0346     	 mov r3,r0
 2066 00de 7B61     	 str r3,[r7,#20]
 555:../Libraries/libscpi/src/utils.c **** 
 556:../Libraries/libscpi/src/utils.c ****         if ((pattern_sep_pos > 0) && pattern_ptr[pattern_sep_pos - 1] == '#') {
 2067              	 .loc 1 556 0
 2068 00e0 3B69     	 ldr r3,[r7,#16]
 2069 00e2 002B     	 cmp r3,#0
 2070 00e4 1CDD     	 ble .L134
 2071              	 .loc 1 556 0 is_stmt 0 discriminator 1
 2072 00e6 3B69     	 ldr r3,[r7,#16]
 2073 00e8 013B     	 subs r3,r3,#1
 2074 00ea 7A6A     	 ldr r2,[r7,#36]
 2075 00ec 1344     	 add r3,r3,r2
 2076 00ee 1B78     	 ldrb r3,[r3]
 2077 00f0 232B     	 cmp r3,#35
 2078 00f2 15D1     	 bne .L134
 557:../Libraries/libscpi/src/utils.c ****             if (numbers && (numbers_idx < numbers_len)) {
 2079              	 .loc 1 557 0 is_stmt 1
 2080 00f4 3B68     	 ldr r3,[r7]
 2081 00f6 002B     	 cmp r3,#0
 2082 00f8 0CD0     	 beq .L135
 2083              	 .loc 1 557 0 is_stmt 0 discriminator 1
 2084 00fa FA6A     	 ldr r2,[r7,#44]
 2085 00fc BB6C     	 ldr r3,[r7,#72]
 2086 00fe 9A42     	 cmp r2,r3
 2087 0100 08D2     	 bcs .L135
 558:../Libraries/libscpi/src/utils.c ****                 number_ptr = numbers + numbers_idx;
 2088              	 .loc 1 558 0 is_stmt 1
 2089 0102 FB6A     	 ldr r3,[r7,#44]
 2090 0104 9B00     	 lsls r3,r3,#2
 2091 0106 3A68     	 ldr r2,[r7]
 2092 0108 1344     	 add r3,r3,r2
 2093 010a BB62     	 str r3,[r7,#40]
 559:../Libraries/libscpi/src/utils.c ****                 *number_ptr = default_value; /* default value */
 2094              	 .loc 1 559 0
 2095 010c BB6A     	 ldr r3,[r7,#40]
 2096 010e FA6C     	 ldr r2,[r7,#76]
 2097 0110 1A60     	 str r2,[r3]
 2098 0112 01E0     	 b .L136
 2099              	.L135:
 560:../Libraries/libscpi/src/utils.c ****             } else {
 561:../Libraries/libscpi/src/utils.c ****                 number_ptr = NULL;
 2100              	 .loc 1 561 0
 2101 0114 0023     	 movs r3,#0
 2102 0116 BB62     	 str r3,[r7,#40]
 2103              	.L136:
 562:../Libraries/libscpi/src/utils.c ****             }
 563:../Libraries/libscpi/src/utils.c ****             numbers_idx++;
 2104              	 .loc 1 563 0
 2105 0118 FB6A     	 ldr r3,[r7,#44]
 2106 011a 0133     	 adds r3,r3,#1
 2107 011c FB62     	 str r3,[r7,#44]
 2108 011e 01E0     	 b .L137
 2109              	.L134:
 564:../Libraries/libscpi/src/utils.c ****         } else {
 565:../Libraries/libscpi/src/utils.c ****             number_ptr = NULL;
 2110              	 .loc 1 565 0
 2111 0120 0023     	 movs r3,#0
 2112 0122 BB62     	 str r3,[r7,#40]
 2113              	.L137:
 566:../Libraries/libscpi/src/utils.c ****         }
 567:../Libraries/libscpi/src/utils.c **** 
 568:../Libraries/libscpi/src/utils.c ****         if (matchPattern(pattern_ptr, pattern_sep_pos, cmd_ptr, cmd_sep_pos, number_ptr)) {
 2114              	 .loc 1 568 0
 2115 0124 3A69     	 ldr r2,[r7,#16]
 2116 0126 7C69     	 ldr r4,[r7,#20]
 2117 0128 BB6A     	 ldr r3,[r7,#40]
 2118 012a 0093     	 str r3,[sp]
 2119 012c 786A     	 ldr r0,[r7,#36]
 2120 012e 1146     	 mov r1,r2
 2121 0130 FA69     	 ldr r2,[r7,#28]
 2122 0132 2346     	 mov r3,r4
 2123 0134 FFF7FEFF 	 bl matchPattern
 2124 0138 0346     	 mov r3,r0
 2125 013a 002B     	 cmp r3,#0
 2126 013c 00F0EA80 	 beq .L138
 569:../Libraries/libscpi/src/utils.c ****             SKIP_PATTERN(pattern_sep_pos);
 2127              	 .loc 1 569 0
 2128 0140 3B69     	 ldr r3,[r7,#16]
 2129 0142 7A6A     	 ldr r2,[r7,#36]
 2130 0144 1344     	 add r3,r3,r2
 2131 0146 7B62     	 str r3,[r7,#36]
 2132 0148 3A6A     	 ldr r2,[r7,#32]
 2133 014a 3B69     	 ldr r3,[r7,#16]
 2134 014c D31A     	 subs r3,r2,r3
 2135 014e 3B62     	 str r3,[r7,#32]
 570:../Libraries/libscpi/src/utils.c ****             SKIP_CMD(cmd_sep_pos);
 2136              	 .loc 1 570 0
 2137 0150 7B69     	 ldr r3,[r7,#20]
 2138 0152 FA69     	 ldr r2,[r7,#28]
 2139 0154 1344     	 add r3,r3,r2
 2140 0156 FB61     	 str r3,[r7,#28]
 2141 0158 7B69     	 ldr r3,[r7,#20]
 2142 015a BA69     	 ldr r2,[r7,#24]
 2143 015c D31A     	 subs r3,r2,r3
 2144 015e BB61     	 str r3,[r7,#24]
 571:../Libraries/libscpi/src/utils.c ****             result = TRUE;
 2145              	 .loc 1 571 0
 2146 0160 0123     	 movs r3,#1
 2147 0162 87F83730 	 strb r3,[r7,#55]
 572:../Libraries/libscpi/src/utils.c **** 
 573:../Libraries/libscpi/src/utils.c ****             /* command is complete */
 574:../Libraries/libscpi/src/utils.c ****             if ((pattern_len == 0) && (cmd_len == 0)) {
 2148              	 .loc 1 574 0
 2149 0166 3B6A     	 ldr r3,[r7,#32]
 2150 0168 002B     	 cmp r3,#0
 2151 016a 03D1     	 bne .L139
 2152              	 .loc 1 574 0 is_stmt 0 discriminator 1
 2153 016c BB69     	 ldr r3,[r7,#24]
 2154 016e 002B     	 cmp r3,#0
 2155 0170 00D1     	 bne .L139
 575:../Libraries/libscpi/src/utils.c ****                 break;
 2156              	 .loc 1 575 0 is_stmt 1
 2157 0172 07E1     	 b .L140
 2158              	.L139:
 576:../Libraries/libscpi/src/utils.c ****             }
 577:../Libraries/libscpi/src/utils.c **** 
 578:../Libraries/libscpi/src/utils.c ****             /* pattern complete, but command not */
 579:../Libraries/libscpi/src/utils.c ****             if ((pattern_len == 0) && (cmd_len > 0)) {
 2159              	 .loc 1 579 0
 2160 0174 3B6A     	 ldr r3,[r7,#32]
 2161 0176 002B     	 cmp r3,#0
 2162 0178 06D1     	 bne .L141
 2163              	 .loc 1 579 0 is_stmt 0 discriminator 1
 2164 017a BB69     	 ldr r3,[r7,#24]
 2165 017c 002B     	 cmp r3,#0
 2166 017e 03D0     	 beq .L141
 580:../Libraries/libscpi/src/utils.c ****                 result = FALSE;
 2167              	 .loc 1 580 0 is_stmt 1
 2168 0180 0023     	 movs r3,#0
 2169 0182 87F83730 	 strb r3,[r7,#55]
 581:../Libraries/libscpi/src/utils.c ****                 break;
 2170              	 .loc 1 581 0
 2171 0186 FDE0     	 b .L140
 2172              	.L141:
 582:../Libraries/libscpi/src/utils.c ****             }
 583:../Libraries/libscpi/src/utils.c **** 
 584:../Libraries/libscpi/src/utils.c ****             /* command complete, but pattern not */
 585:../Libraries/libscpi/src/utils.c ****             if (cmd_len == 0) {
 2173              	 .loc 1 585 0
 2174 0188 BB69     	 ldr r3,[r7,#24]
 2175 018a 002B     	 cmp r3,#0
 2176 018c 38D1     	 bne .L142
 586:../Libraries/libscpi/src/utils.c ****                 /* verify all subsequent pattern parts are also optional */
 587:../Libraries/libscpi/src/utils.c ****                 while (pattern_len) {
 2177              	 .loc 1 587 0
 2178 018e 2CE0     	 b .L143
 2179              	.L149:
 588:../Libraries/libscpi/src/utils.c ****                     pattern_sep_pos = patternSeparatorPos(pattern_ptr, pattern_len);
 2180              	 .loc 1 588 0
 2181 0190 3B6A     	 ldr r3,[r7,#32]
 2182 0192 786A     	 ldr r0,[r7,#36]
 2183 0194 1946     	 mov r1,r3
 2184 0196 FFF7FEFF 	 bl patternSeparatorPos
 2185 019a 0346     	 mov r3,r0
 2186 019c 3B61     	 str r3,[r7,#16]
 589:../Libraries/libscpi/src/utils.c ****                     switch (pattern_ptr[pattern_sep_pos]) {
 2187              	 .loc 1 589 0
 2188 019e 3B69     	 ldr r3,[r7,#16]
 2189 01a0 7A6A     	 ldr r2,[r7,#36]
 2190 01a2 1344     	 add r3,r3,r2
 2191 01a4 1B78     	 ldrb r3,[r3]
 2192 01a6 5B2B     	 cmp r3,#91
 2193 01a8 02D0     	 beq .L145
 2194 01aa 5D2B     	 cmp r3,#93
 2195 01ac 04D0     	 beq .L146
 590:../Libraries/libscpi/src/utils.c ****                         case '[':
 591:../Libraries/libscpi/src/utils.c ****                             brackets++;
 592:../Libraries/libscpi/src/utils.c ****                             break;
 593:../Libraries/libscpi/src/utils.c ****                         case ']':
 594:../Libraries/libscpi/src/utils.c ****                             brackets--;
 595:../Libraries/libscpi/src/utils.c ****                             break;
 596:../Libraries/libscpi/src/utils.c ****                         default:
 597:../Libraries/libscpi/src/utils.c ****                             break;
 2196              	 .loc 1 597 0
 2197 01ae 07E0     	 b .L147
 2198              	.L145:
 591:../Libraries/libscpi/src/utils.c ****                             break;
 2199              	 .loc 1 591 0
 2200 01b0 3B6B     	 ldr r3,[r7,#48]
 2201 01b2 0133     	 adds r3,r3,#1
 2202 01b4 3B63     	 str r3,[r7,#48]
 592:../Libraries/libscpi/src/utils.c ****                         case ']':
 2203              	 .loc 1 592 0
 2204 01b6 03E0     	 b .L147
 2205              	.L146:
 594:../Libraries/libscpi/src/utils.c ****                             break;
 2206              	 .loc 1 594 0
 2207 01b8 3B6B     	 ldr r3,[r7,#48]
 2208 01ba 013B     	 subs r3,r3,#1
 2209 01bc 3B63     	 str r3,[r7,#48]
 595:../Libraries/libscpi/src/utils.c ****                         default:
 2210              	 .loc 1 595 0
 2211 01be 00BF     	 nop
 2212              	.L147:
 598:../Libraries/libscpi/src/utils.c ****                     }
 599:../Libraries/libscpi/src/utils.c ****                     SKIP_PATTERN(pattern_sep_pos + 1);
 2213              	 .loc 1 599 0
 2214 01c0 3B69     	 ldr r3,[r7,#16]
 2215 01c2 0133     	 adds r3,r3,#1
 2216 01c4 7A6A     	 ldr r2,[r7,#36]
 2217 01c6 1344     	 add r3,r3,r2
 2218 01c8 7B62     	 str r3,[r7,#36]
 2219 01ca 3B69     	 ldr r3,[r7,#16]
 2220 01cc DB43     	 mvns r3,r3
 2221 01ce 3A6A     	 ldr r2,[r7,#32]
 2222 01d0 1344     	 add r3,r3,r2
 2223 01d2 3B62     	 str r3,[r7,#32]
 600:../Libraries/libscpi/src/utils.c ****                     if (brackets == 0) {
 2224              	 .loc 1 600 0
 2225 01d4 3B6B     	 ldr r3,[r7,#48]
 2226 01d6 002B     	 cmp r3,#0
 2227 01d8 07D1     	 bne .L143
 601:../Libraries/libscpi/src/utils.c ****                         if ((pattern_len > 0) && (pattern_ptr[0] == '[')) {
 2228              	 .loc 1 601 0
 2229 01da 3B6A     	 ldr r3,[r7,#32]
 2230 01dc 002B     	 cmp r3,#0
 2231 01de 07DD     	 ble .L148
 2232              	 .loc 1 601 0 is_stmt 0 discriminator 1
 2233 01e0 7B6A     	 ldr r3,[r7,#36]
 2234 01e2 1B78     	 ldrb r3,[r3]
 2235 01e4 5B2B     	 cmp r3,#91
 2236 01e6 03D1     	 bne .L148
 602:../Libraries/libscpi/src/utils.c ****                             continue;
 2237              	 .loc 1 602 0 is_stmt 1
 2238 01e8 00BF     	 nop
 2239              	.L143:
 587:../Libraries/libscpi/src/utils.c ****                     pattern_sep_pos = patternSeparatorPos(pattern_ptr, pattern_len);
 2240              	 .loc 1 587 0
 2241 01ea 3B6A     	 ldr r3,[r7,#32]
 2242 01ec 002B     	 cmp r3,#0
 2243 01ee CFD1     	 bne .L149
 2244              	.L148:
 603:../Libraries/libscpi/src/utils.c ****                         } else {
 604:../Libraries/libscpi/src/utils.c ****                             break;
 605:../Libraries/libscpi/src/utils.c ****                         }
 606:../Libraries/libscpi/src/utils.c ****                     }
 607:../Libraries/libscpi/src/utils.c ****                 }
 608:../Libraries/libscpi/src/utils.c ****                 if (pattern_len != 0) {
 2245              	 .loc 1 608 0
 2246 01f0 3B6A     	 ldr r3,[r7,#32]
 2247 01f2 002B     	 cmp r3,#0
 2248 01f4 03D0     	 beq .L150
 609:../Libraries/libscpi/src/utils.c ****                     result = FALSE;
 2249              	 .loc 1 609 0
 2250 01f6 0023     	 movs r3,#0
 2251 01f8 87F83730 	 strb r3,[r7,#55]
 610:../Libraries/libscpi/src/utils.c ****                 }
 611:../Libraries/libscpi/src/utils.c ****                 break; /* exist optional keyword, command is complete */
 2252              	 .loc 1 611 0
 2253 01fc C2E0     	 b .L140
 2254              	.L150:
 2255 01fe C1E0     	 b .L140
 2256              	.L142:
 612:../Libraries/libscpi/src/utils.c ****             }
 613:../Libraries/libscpi/src/utils.c **** 
 614:../Libraries/libscpi/src/utils.c ****             /* both command and patter contains command separator at this position */
 615:../Libraries/libscpi/src/utils.c ****             if ((pattern_len > 0)
 2257              	 .loc 1 615 0
 2258 0200 3B6A     	 ldr r3,[r7,#32]
 2259 0202 002B     	 cmp r3,#0
 2260 0204 16DD     	 ble .L151
 616:../Libraries/libscpi/src/utils.c ****                     && ((pattern_ptr[0] == cmd_ptr[0])
 2261              	 .loc 1 616 0
 2262 0206 7B6A     	 ldr r3,[r7,#36]
 2263 0208 1A78     	 ldrb r2,[r3]
 2264 020a FB69     	 ldr r3,[r7,#28]
 2265 020c 1B78     	 ldrb r3,[r3]
 2266 020e 9A42     	 cmp r2,r3
 2267 0210 10D1     	 bne .L151
 617:../Libraries/libscpi/src/utils.c ****                     && (pattern_ptr[0] == ':'))) {
 2268              	 .loc 1 617 0
 2269 0212 7B6A     	 ldr r3,[r7,#36]
 2270 0214 1B78     	 ldrb r3,[r3]
 2271 0216 3A2B     	 cmp r3,#58
 2272 0218 0CD1     	 bne .L151
 618:../Libraries/libscpi/src/utils.c ****                 SKIP_PATTERN(1);
 2273              	 .loc 1 618 0
 2274 021a 7B6A     	 ldr r3,[r7,#36]
 2275 021c 0133     	 adds r3,r3,#1
 2276 021e 7B62     	 str r3,[r7,#36]
 2277 0220 3B6A     	 ldr r3,[r7,#32]
 2278 0222 013B     	 subs r3,r3,#1
 2279 0224 3B62     	 str r3,[r7,#32]
 619:../Libraries/libscpi/src/utils.c ****                 SKIP_CMD(1);
 2280              	 .loc 1 619 0
 2281 0226 FB69     	 ldr r3,[r7,#28]
 2282 0228 0133     	 adds r3,r3,#1
 2283 022a FB61     	 str r3,[r7,#28]
 2284 022c BB69     	 ldr r3,[r7,#24]
 2285 022e 013B     	 subs r3,r3,#1
 2286 0230 BB61     	 str r3,[r7,#24]
 2287 0232 6EE0     	 b .L152
 2288              	.L151:
 620:../Libraries/libscpi/src/utils.c ****             } else if ((pattern_len > 1)
 2289              	 .loc 1 620 0
 2290 0234 3B6A     	 ldr r3,[r7,#32]
 2291 0236 012B     	 cmp r3,#1
 2292 0238 1FDD     	 ble .L153
 621:../Libraries/libscpi/src/utils.c ****                     && (pattern_ptr[1] == cmd_ptr[0])
 2293              	 .loc 1 621 0
 2294 023a 7B6A     	 ldr r3,[r7,#36]
 2295 023c 0133     	 adds r3,r3,#1
 2296 023e 1A78     	 ldrb r2,[r3]
 2297 0240 FB69     	 ldr r3,[r7,#28]
 2298 0242 1B78     	 ldrb r3,[r3]
 2299 0244 9A42     	 cmp r2,r3
 2300 0246 18D1     	 bne .L153
 622:../Libraries/libscpi/src/utils.c ****                     && (pattern_ptr[0] == '[')
 2301              	 .loc 1 622 0
 2302 0248 7B6A     	 ldr r3,[r7,#36]
 2303 024a 1B78     	 ldrb r3,[r3]
 2304 024c 5B2B     	 cmp r3,#91
 2305 024e 14D1     	 bne .L153
 623:../Libraries/libscpi/src/utils.c ****                     && (pattern_ptr[1] == ':')) {
 2306              	 .loc 1 623 0
 2307 0250 7B6A     	 ldr r3,[r7,#36]
 2308 0252 0133     	 adds r3,r3,#1
 2309 0254 1B78     	 ldrb r3,[r3]
 2310 0256 3A2B     	 cmp r3,#58
 2311 0258 0FD1     	 bne .L153
 624:../Libraries/libscpi/src/utils.c ****                 SKIP_PATTERN(2); /* for skip '[' in "[:" */
 2312              	 .loc 1 624 0
 2313 025a 7B6A     	 ldr r3,[r7,#36]
 2314 025c 0233     	 adds r3,r3,#2
 2315 025e 7B62     	 str r3,[r7,#36]
 2316 0260 3B6A     	 ldr r3,[r7,#32]
 2317 0262 023B     	 subs r3,r3,#2
 2318 0264 3B62     	 str r3,[r7,#32]
 625:../Libraries/libscpi/src/utils.c ****                 SKIP_CMD(1);
 2319              	 .loc 1 625 0
 2320 0266 FB69     	 ldr r3,[r7,#28]
 2321 0268 0133     	 adds r3,r3,#1
 2322 026a FB61     	 str r3,[r7,#28]
 2323 026c BB69     	 ldr r3,[r7,#24]
 2324 026e 013B     	 subs r3,r3,#1
 2325 0270 BB61     	 str r3,[r7,#24]
 626:../Libraries/libscpi/src/utils.c ****                 brackets++;
 2326              	 .loc 1 626 0
 2327 0272 3B6B     	 ldr r3,[r7,#48]
 2328 0274 0133     	 adds r3,r3,#1
 2329 0276 3B63     	 str r3,[r7,#48]
 2330 0278 4BE0     	 b .L152
 2331              	.L153:
 627:../Libraries/libscpi/src/utils.c ****             } else if ((pattern_len > 1)
 2332              	 .loc 1 627 0
 2333 027a 3B6A     	 ldr r3,[r7,#32]
 2334 027c 012B     	 cmp r3,#1
 2335 027e 1FDD     	 ble .L154
 628:../Libraries/libscpi/src/utils.c ****                     && (pattern_ptr[1] == cmd_ptr[0])
 2336              	 .loc 1 628 0
 2337 0280 7B6A     	 ldr r3,[r7,#36]
 2338 0282 0133     	 adds r3,r3,#1
 2339 0284 1A78     	 ldrb r2,[r3]
 2340 0286 FB69     	 ldr r3,[r7,#28]
 2341 0288 1B78     	 ldrb r3,[r3]
 2342 028a 9A42     	 cmp r2,r3
 2343 028c 18D1     	 bne .L154
 629:../Libraries/libscpi/src/utils.c ****                     && (pattern_ptr[0] == ']')
 2344              	 .loc 1 629 0
 2345 028e 7B6A     	 ldr r3,[r7,#36]
 2346 0290 1B78     	 ldrb r3,[r3]
 2347 0292 5D2B     	 cmp r3,#93
 2348 0294 14D1     	 bne .L154
 630:../Libraries/libscpi/src/utils.c ****                     && (pattern_ptr[1] == ':')) {
 2349              	 .loc 1 630 0
 2350 0296 7B6A     	 ldr r3,[r7,#36]
 2351 0298 0133     	 adds r3,r3,#1
 2352 029a 1B78     	 ldrb r3,[r3]
 2353 029c 3A2B     	 cmp r3,#58
 2354 029e 0FD1     	 bne .L154
 631:../Libraries/libscpi/src/utils.c ****                 SKIP_PATTERN(2); /* for skip ']' in "]:" */
 2355              	 .loc 1 631 0
 2356 02a0 7B6A     	 ldr r3,[r7,#36]
 2357 02a2 0233     	 adds r3,r3,#2
 2358 02a4 7B62     	 str r3,[r7,#36]
 2359 02a6 3B6A     	 ldr r3,[r7,#32]
 2360 02a8 023B     	 subs r3,r3,#2
 2361 02aa 3B62     	 str r3,[r7,#32]
 632:../Libraries/libscpi/src/utils.c ****                 SKIP_CMD(1);
 2362              	 .loc 1 632 0
 2363 02ac FB69     	 ldr r3,[r7,#28]
 2364 02ae 0133     	 adds r3,r3,#1
 2365 02b0 FB61     	 str r3,[r7,#28]
 2366 02b2 BB69     	 ldr r3,[r7,#24]
 2367 02b4 013B     	 subs r3,r3,#1
 2368 02b6 BB61     	 str r3,[r7,#24]
 633:../Libraries/libscpi/src/utils.c ****                 brackets--;
 2369              	 .loc 1 633 0
 2370 02b8 3B6B     	 ldr r3,[r7,#48]
 2371 02ba 013B     	 subs r3,r3,#1
 2372 02bc 3B63     	 str r3,[r7,#48]
 2373 02be 28E0     	 b .L152
 2374              	.L154:
 634:../Libraries/libscpi/src/utils.c ****             } else if ((pattern_len > 2)
 2375              	 .loc 1 634 0
 2376 02c0 3B6A     	 ldr r3,[r7,#32]
 2377 02c2 022B     	 cmp r3,#2
 2378 02c4 21DD     	 ble .L155
 635:../Libraries/libscpi/src/utils.c ****                     && (pattern_ptr[2] == cmd_ptr[0])
 2379              	 .loc 1 635 0
 2380 02c6 7B6A     	 ldr r3,[r7,#36]
 2381 02c8 0233     	 adds r3,r3,#2
 2382 02ca 1A78     	 ldrb r2,[r3]
 2383 02cc FB69     	 ldr r3,[r7,#28]
 2384 02ce 1B78     	 ldrb r3,[r3]
 2385 02d0 9A42     	 cmp r2,r3
 2386 02d2 1AD1     	 bne .L155
 636:../Libraries/libscpi/src/utils.c ****                     && (pattern_ptr[0] == ']')
 2387              	 .loc 1 636 0
 2388 02d4 7B6A     	 ldr r3,[r7,#36]
 2389 02d6 1B78     	 ldrb r3,[r3]
 2390 02d8 5D2B     	 cmp r3,#93
 2391 02da 16D1     	 bne .L155
 637:../Libraries/libscpi/src/utils.c ****                     && (pattern_ptr[1] == '[')
 2392              	 .loc 1 637 0
 2393 02dc 7B6A     	 ldr r3,[r7,#36]
 2394 02de 0133     	 adds r3,r3,#1
 2395 02e0 1B78     	 ldrb r3,[r3]
 2396 02e2 5B2B     	 cmp r3,#91
 2397 02e4 11D1     	 bne .L155
 638:../Libraries/libscpi/src/utils.c ****                     && (pattern_ptr[2] == ':')) {
 2398              	 .loc 1 638 0
 2399 02e6 7B6A     	 ldr r3,[r7,#36]
 2400 02e8 0233     	 adds r3,r3,#2
 2401 02ea 1B78     	 ldrb r3,[r3]
 2402 02ec 3A2B     	 cmp r3,#58
 2403 02ee 0CD1     	 bne .L155
 639:../Libraries/libscpi/src/utils.c ****                 SKIP_PATTERN(3); /* for skip '][' in "][:" */
 2404              	 .loc 1 639 0
 2405 02f0 7B6A     	 ldr r3,[r7,#36]
 2406 02f2 0333     	 adds r3,r3,#3
 2407 02f4 7B62     	 str r3,[r7,#36]
 2408 02f6 3B6A     	 ldr r3,[r7,#32]
 2409 02f8 033B     	 subs r3,r3,#3
 2410 02fa 3B62     	 str r3,[r7,#32]
 640:../Libraries/libscpi/src/utils.c ****                 SKIP_CMD(1);
 2411              	 .loc 1 640 0
 2412 02fc FB69     	 ldr r3,[r7,#28]
 2413 02fe 0133     	 adds r3,r3,#1
 2414 0300 FB61     	 str r3,[r7,#28]
 2415 0302 BB69     	 ldr r3,[r7,#24]
 2416 0304 013B     	 subs r3,r3,#1
 2417 0306 BB61     	 str r3,[r7,#24]
 2418 0308 03E0     	 b .L152
 2419              	.L155:
 641:../Libraries/libscpi/src/utils.c ****                 /* brackets++; */
 642:../Libraries/libscpi/src/utils.c ****                 /* brackets--; */
 643:../Libraries/libscpi/src/utils.c ****             } else {
 644:../Libraries/libscpi/src/utils.c ****                 result = FALSE;
 2420              	 .loc 1 644 0
 2421 030a 0023     	 movs r3,#0
 2422 030c 87F83730 	 strb r3,[r7,#55]
 645:../Libraries/libscpi/src/utils.c ****                 break;
 2423              	 .loc 1 645 0
 2424 0310 38E0     	 b .L140
 2425              	.L152:
 2426 0312 36E0     	 b .L156
 2427              	.L138:
 646:../Libraries/libscpi/src/utils.c ****             }
 647:../Libraries/libscpi/src/utils.c ****         } else {
 648:../Libraries/libscpi/src/utils.c ****             SKIP_PATTERN(pattern_sep_pos);
 2428              	 .loc 1 648 0
 2429 0314 3B69     	 ldr r3,[r7,#16]
 2430 0316 7A6A     	 ldr r2,[r7,#36]
 2431 0318 1344     	 add r3,r3,r2
 2432 031a 7B62     	 str r3,[r7,#36]
 2433 031c 3A6A     	 ldr r2,[r7,#32]
 2434 031e 3B69     	 ldr r3,[r7,#16]
 2435 0320 D31A     	 subs r3,r2,r3
 2436 0322 3B62     	 str r3,[r7,#32]
 649:../Libraries/libscpi/src/utils.c ****             if ((pattern_ptr[0] == ']') && (pattern_ptr[1] == ':')) {
 2437              	 .loc 1 649 0
 2438 0324 7B6A     	 ldr r3,[r7,#36]
 2439 0326 1B78     	 ldrb r3,[r3]
 2440 0328 5D2B     	 cmp r3,#93
 2441 032a 0ED1     	 bne .L157
 2442              	 .loc 1 649 0 is_stmt 0 discriminator 1
 2443 032c 7B6A     	 ldr r3,[r7,#36]
 2444 032e 0133     	 adds r3,r3,#1
 2445 0330 1B78     	 ldrb r3,[r3]
 2446 0332 3A2B     	 cmp r3,#58
 2447 0334 09D1     	 bne .L157
 650:../Libraries/libscpi/src/utils.c ****                 SKIP_PATTERN(2); /* for skip ']' in "]:" , pattern_ptr continue, while cmd_ptr rema
 2448              	 .loc 1 650 0 is_stmt 1
 2449 0336 7B6A     	 ldr r3,[r7,#36]
 2450 0338 0233     	 adds r3,r3,#2
 2451 033a 7B62     	 str r3,[r7,#36]
 2452 033c 3B6A     	 ldr r3,[r7,#32]
 2453 033e 023B     	 subs r3,r3,#2
 2454 0340 3B62     	 str r3,[r7,#32]
 651:../Libraries/libscpi/src/utils.c ****                 brackets--;
 2455              	 .loc 1 651 0
 2456 0342 3B6B     	 ldr r3,[r7,#48]
 2457 0344 013B     	 subs r3,r3,#1
 2458 0346 3B63     	 str r3,[r7,#48]
 2459 0348 1BE0     	 b .L156
 2460              	.L157:
 652:../Libraries/libscpi/src/utils.c ****             } else if ((pattern_len > 2) && (pattern_ptr[0] == ']')
 2461              	 .loc 1 652 0
 2462 034a 3B6A     	 ldr r3,[r7,#32]
 2463 034c 022B     	 cmp r3,#2
 2464 034e 14DD     	 ble .L158
 2465              	 .loc 1 652 0 is_stmt 0 discriminator 1
 2466 0350 7B6A     	 ldr r3,[r7,#36]
 2467 0352 1B78     	 ldrb r3,[r3]
 2468 0354 5D2B     	 cmp r3,#93
 2469 0356 10D1     	 bne .L158
 653:../Libraries/libscpi/src/utils.c ****                     && (pattern_ptr[1] == '[')
 2470              	 .loc 1 653 0 is_stmt 1
 2471 0358 7B6A     	 ldr r3,[r7,#36]
 2472 035a 0133     	 adds r3,r3,#1
 2473 035c 1B78     	 ldrb r3,[r3]
 2474 035e 5B2B     	 cmp r3,#91
 2475 0360 0BD1     	 bne .L158
 654:../Libraries/libscpi/src/utils.c ****                     && (pattern_ptr[2] == ':')) {
 2476              	 .loc 1 654 0
 2477 0362 7B6A     	 ldr r3,[r7,#36]
 2478 0364 0233     	 adds r3,r3,#2
 2479 0366 1B78     	 ldrb r3,[r3]
 2480 0368 3A2B     	 cmp r3,#58
 2481 036a 06D1     	 bne .L158
 655:../Libraries/libscpi/src/utils.c ****                 SKIP_PATTERN(3); /* for skip ']' in "][:" , pattern_ptr continue, while cmd_ptr rem
 2482              	 .loc 1 655 0
 2483 036c 7B6A     	 ldr r3,[r7,#36]
 2484 036e 0333     	 adds r3,r3,#3
 2485 0370 7B62     	 str r3,[r7,#36]
 2486 0372 3B6A     	 ldr r3,[r7,#32]
 2487 0374 033B     	 subs r3,r3,#3
 2488 0376 3B62     	 str r3,[r7,#32]
 2489 0378 03E0     	 b .L156
 2490              	.L158:
 656:../Libraries/libscpi/src/utils.c ****                 /* brackets++; */
 657:../Libraries/libscpi/src/utils.c ****                 /* brackets--; */
 658:../Libraries/libscpi/src/utils.c ****             } else {
 659:../Libraries/libscpi/src/utils.c ****                 result = FALSE;
 2491              	 .loc 1 659 0
 2492 037a 0023     	 movs r3,#0
 2493 037c 87F83730 	 strb r3,[r7,#55]
 660:../Libraries/libscpi/src/utils.c ****                 break;
 2494              	 .loc 1 660 0
 2495 0380 00E0     	 b .L140
 2496              	.L156:
 2497              	.LBE4:
 661:../Libraries/libscpi/src/utils.c ****             }
 662:../Libraries/libscpi/src/utils.c ****         }
 663:../Libraries/libscpi/src/utils.c ****     }
 2498              	 .loc 1 663 0 discriminator 1
 2499 0382 A0E6     	 b .L132
 2500              	.L140:
 664:../Libraries/libscpi/src/utils.c **** 
 665:../Libraries/libscpi/src/utils.c ****     return result;
 2501              	 .loc 1 665 0
 2502 0384 97F83730 	 ldrb r3,[r7,#55]
 2503              	.L129:
 666:../Libraries/libscpi/src/utils.c **** #undef SKIP_PATTERN
 667:../Libraries/libscpi/src/utils.c **** #undef SKIP_CMD
 668:../Libraries/libscpi/src/utils.c **** }
 2504              	 .loc 1 668 0
 2505 0388 1846     	 mov r0,r3
 2506 038a 3C37     	 adds r7,r7,#60
 2507              	.LCFI117:
 2508              	 .cfi_def_cfa_offset 12
 2509 038c BD46     	 mov sp,r7
 2510              	.LCFI118:
 2511              	 .cfi_def_cfa_register 13
 2512              	 
 2513 038e 90BD     	 pop {r4,r7,pc}
 2514              	 .cfi_endproc
 2515              	.LFE22:
 2517              	 .section .text.composeCompoundCommand,"ax",%progbits
 2518              	 .align 2
 2519              	 .global composeCompoundCommand
 2520              	 .hidden composeCompoundCommand
 2521              	 .thumb
 2522              	 .thumb_func
 2524              	composeCompoundCommand:
 2525              	.LFB23:
 669:../Libraries/libscpi/src/utils.c **** 
 670:../Libraries/libscpi/src/utils.c **** /**
 671:../Libraries/libscpi/src/utils.c ****  * Compose command from previous command anc current command
 672:../Libraries/libscpi/src/utils.c ****  *
 673:../Libraries/libscpi/src/utils.c ****  * @param prev pointer to previous command
 674:../Libraries/libscpi/src/utils.c ****  * @param current pointer of current command
 675:../Libraries/libscpi/src/utils.c ****  *
 676:../Libraries/libscpi/src/utils.c ****  * prev and current should be in the same memory buffer
 677:../Libraries/libscpi/src/utils.c ****  */
 678:../Libraries/libscpi/src/utils.c **** scpi_bool_t composeCompoundCommand(const scpi_token_t * prev, scpi_token_t * current) {
 2526              	 .loc 1 678 0
 2527              	 .cfi_startproc
 2528              	 
 2529              	 
 2530 0000 80B5     	 push {r7,lr}
 2531              	.LCFI119:
 2532              	 .cfi_def_cfa_offset 8
 2533              	 .cfi_offset 7,-8
 2534              	 .cfi_offset 14,-4
 2535 0002 84B0     	 sub sp,sp,#16
 2536              	.LCFI120:
 2537              	 .cfi_def_cfa_offset 24
 2538 0004 00AF     	 add r7,sp,#0
 2539              	.LCFI121:
 2540              	 .cfi_def_cfa_register 7
 2541 0006 7860     	 str r0,[r7,#4]
 2542 0008 3960     	 str r1,[r7]
 679:../Libraries/libscpi/src/utils.c ****     size_t i;
 680:../Libraries/libscpi/src/utils.c **** 
 681:../Libraries/libscpi/src/utils.c ****     /* Invalid input */
 682:../Libraries/libscpi/src/utils.c ****     if (current == NULL || current->ptr == NULL || current->len == 0)
 2543              	 .loc 1 682 0
 2544 000a 3B68     	 ldr r3,[r7]
 2545 000c 002B     	 cmp r3,#0
 2546 000e 07D0     	 beq .L160
 2547              	 .loc 1 682 0 is_stmt 0 discriminator 1
 2548 0010 3B68     	 ldr r3,[r7]
 2549 0012 5B68     	 ldr r3,[r3,#4]
 2550 0014 002B     	 cmp r3,#0
 2551 0016 03D0     	 beq .L160
 2552              	 .loc 1 682 0 discriminator 2
 2553 0018 3B68     	 ldr r3,[r7]
 2554 001a 9B68     	 ldr r3,[r3,#8]
 2555 001c 002B     	 cmp r3,#0
 2556 001e 01D1     	 bne .L161
 2557              	.L160:
 683:../Libraries/libscpi/src/utils.c ****         return FALSE;
 2558              	 .loc 1 683 0 is_stmt 1
 2559 0020 0023     	 movs r3,#0
 2560 0022 4DE0     	 b .L162
 2561              	.L161:
 684:../Libraries/libscpi/src/utils.c **** 
 685:../Libraries/libscpi/src/utils.c ****     /* no previous command - nothing to do*/
 686:../Libraries/libscpi/src/utils.c ****     if (prev->ptr == NULL || prev->len == 0)
 2562              	 .loc 1 686 0
 2563 0024 7B68     	 ldr r3,[r7,#4]
 2564 0026 5B68     	 ldr r3,[r3,#4]
 2565 0028 002B     	 cmp r3,#0
 2566 002a 03D0     	 beq .L163
 2567              	 .loc 1 686 0 is_stmt 0 discriminator 1
 2568 002c 7B68     	 ldr r3,[r7,#4]
 2569 002e 9B68     	 ldr r3,[r3,#8]
 2570 0030 002B     	 cmp r3,#0
 2571 0032 01D1     	 bne .L164
 2572              	.L163:
 687:../Libraries/libscpi/src/utils.c ****         return TRUE;
 2573              	 .loc 1 687 0 is_stmt 1
 2574 0034 0123     	 movs r3,#1
 2575 0036 43E0     	 b .L162
 2576              	.L164:
 688:../Libraries/libscpi/src/utils.c **** 
 689:../Libraries/libscpi/src/utils.c ****     /* Common command or command root - nothing to do */
 690:../Libraries/libscpi/src/utils.c ****     if (current->ptr[0] == '*' || current->ptr[0] == ':')
 2577              	 .loc 1 690 0
 2578 0038 3B68     	 ldr r3,[r7]
 2579 003a 5B68     	 ldr r3,[r3,#4]
 2580 003c 1B78     	 ldrb r3,[r3]
 2581 003e 2A2B     	 cmp r3,#42
 2582 0040 04D0     	 beq .L165
 2583              	 .loc 1 690 0 is_stmt 0 discriminator 1
 2584 0042 3B68     	 ldr r3,[r7]
 2585 0044 5B68     	 ldr r3,[r3,#4]
 2586 0046 1B78     	 ldrb r3,[r3]
 2587 0048 3A2B     	 cmp r3,#58
 2588 004a 01D1     	 bne .L166
 2589              	.L165:
 691:../Libraries/libscpi/src/utils.c ****         return TRUE;
 2590              	 .loc 1 691 0 is_stmt 1
 2591 004c 0123     	 movs r3,#1
 2592 004e 37E0     	 b .L162
 2593              	.L166:
 692:../Libraries/libscpi/src/utils.c **** 
 693:../Libraries/libscpi/src/utils.c ****     /* Previsou command was common command - nothing to do */
 694:../Libraries/libscpi/src/utils.c ****     if (prev->ptr[0] == '*')
 2594              	 .loc 1 694 0
 2595 0050 7B68     	 ldr r3,[r7,#4]
 2596 0052 5B68     	 ldr r3,[r3,#4]
 2597 0054 1B78     	 ldrb r3,[r3]
 2598 0056 2A2B     	 cmp r3,#42
 2599 0058 01D1     	 bne .L167
 695:../Libraries/libscpi/src/utils.c ****         return TRUE;
 2600              	 .loc 1 695 0
 2601 005a 0123     	 movs r3,#1
 2602 005c 30E0     	 b .L162
 2603              	.L167:
 696:../Libraries/libscpi/src/utils.c **** 
 697:../Libraries/libscpi/src/utils.c ****     /* Find last occurence of ':' */
 698:../Libraries/libscpi/src/utils.c ****     for (i = prev->len; i > 0; i--) {
 2604              	 .loc 1 698 0
 2605 005e 7B68     	 ldr r3,[r7,#4]
 2606 0060 9B68     	 ldr r3,[r3,#8]
 2607 0062 FB60     	 str r3,[r7,#12]
 2608 0064 0BE0     	 b .L168
 2609              	.L171:
 699:../Libraries/libscpi/src/utils.c ****         if (prev->ptr[i - 1] == ':') {
 2610              	 .loc 1 699 0
 2611 0066 7B68     	 ldr r3,[r7,#4]
 2612 0068 5A68     	 ldr r2,[r3,#4]
 2613 006a FB68     	 ldr r3,[r7,#12]
 2614 006c 013B     	 subs r3,r3,#1
 2615 006e 1344     	 add r3,r3,r2
 2616 0070 1B78     	 ldrb r3,[r3]
 2617 0072 3A2B     	 cmp r3,#58
 2618 0074 00D1     	 bne .L169
 700:../Libraries/libscpi/src/utils.c ****             break;
 2619              	 .loc 1 700 0
 2620 0076 05E0     	 b .L170
 2621              	.L169:
 698:../Libraries/libscpi/src/utils.c ****         if (prev->ptr[i - 1] == ':') {
 2622              	 .loc 1 698 0 discriminator 2
 2623 0078 FB68     	 ldr r3,[r7,#12]
 2624 007a 013B     	 subs r3,r3,#1
 2625 007c FB60     	 str r3,[r7,#12]
 2626              	.L168:
 698:../Libraries/libscpi/src/utils.c ****         if (prev->ptr[i - 1] == ':') {
 2627              	 .loc 1 698 0 is_stmt 0 discriminator 1
 2628 007e FB68     	 ldr r3,[r7,#12]
 2629 0080 002B     	 cmp r3,#0
 2630 0082 F0D1     	 bne .L171
 2631              	.L170:
 701:../Libraries/libscpi/src/utils.c ****         }
 702:../Libraries/libscpi/src/utils.c ****     }
 703:../Libraries/libscpi/src/utils.c **** 
 704:../Libraries/libscpi/src/utils.c ****     /* Previous command was simple command - nothing to do*/
 705:../Libraries/libscpi/src/utils.c ****     if (i == 0)
 2632              	 .loc 1 705 0 is_stmt 1
 2633 0084 FB68     	 ldr r3,[r7,#12]
 2634 0086 002B     	 cmp r3,#0
 2635 0088 01D1     	 bne .L172
 706:../Libraries/libscpi/src/utils.c ****         return TRUE;
 2636              	 .loc 1 706 0
 2637 008a 0123     	 movs r3,#1
 2638 008c 18E0     	 b .L162
 2639              	.L172:
 707:../Libraries/libscpi/src/utils.c **** 
 708:../Libraries/libscpi/src/utils.c ****     current->ptr -= i;
 2640              	 .loc 1 708 0
 2641 008e 3B68     	 ldr r3,[r7]
 2642 0090 5A68     	 ldr r2,[r3,#4]
 2643 0092 FB68     	 ldr r3,[r7,#12]
 2644 0094 5B42     	 negs r3,r3
 2645 0096 1A44     	 add r2,r2,r3
 2646 0098 3B68     	 ldr r3,[r7]
 2647 009a 5A60     	 str r2,[r3,#4]
 709:../Libraries/libscpi/src/utils.c ****     current->len += i;
 2648              	 .loc 1 709 0
 2649 009c 3B68     	 ldr r3,[r7]
 2650 009e 9B68     	 ldr r3,[r3,#8]
 2651 00a0 1A46     	 mov r2,r3
 2652 00a2 FB68     	 ldr r3,[r7,#12]
 2653 00a4 1344     	 add r3,r3,r2
 2654 00a6 1A46     	 mov r2,r3
 2655 00a8 3B68     	 ldr r3,[r7]
 2656 00aa 9A60     	 str r2,[r3,#8]
 710:../Libraries/libscpi/src/utils.c ****     memmove(current->ptr, prev->ptr, i);
 2657              	 .loc 1 710 0
 2658 00ac 3B68     	 ldr r3,[r7]
 2659 00ae 5A68     	 ldr r2,[r3,#4]
 2660 00b0 7B68     	 ldr r3,[r7,#4]
 2661 00b2 5B68     	 ldr r3,[r3,#4]
 2662 00b4 1046     	 mov r0,r2
 2663 00b6 1946     	 mov r1,r3
 2664 00b8 FA68     	 ldr r2,[r7,#12]
 2665 00ba FFF7FEFF 	 bl memmove
 711:../Libraries/libscpi/src/utils.c ****     return TRUE;
 2666              	 .loc 1 711 0
 2667 00be 0123     	 movs r3,#1
 2668              	.L162:
 712:../Libraries/libscpi/src/utils.c **** }
 2669              	 .loc 1 712 0
 2670 00c0 1846     	 mov r0,r3
 2671 00c2 1037     	 adds r7,r7,#16
 2672              	.LCFI122:
 2673              	 .cfi_def_cfa_offset 8
 2674 00c4 BD46     	 mov sp,r7
 2675              	.LCFI123:
 2676              	 .cfi_def_cfa_register 13
 2677              	 
 2678 00c6 80BD     	 pop {r7,pc}
 2679              	 .cfi_endproc
 2680              	.LFE23:
 2682              	 .section .text.BSD_strnlen,"ax",%progbits
 2683              	 .align 2
 2684              	 .global BSD_strnlen
 2685              	 .hidden BSD_strnlen
 2686              	 .thumb
 2687              	 .thumb_func
 2689              	BSD_strnlen:
 2690              	.LFB24:
 713:../Libraries/libscpi/src/utils.c **** 
 714:../Libraries/libscpi/src/utils.c **** 
 715:../Libraries/libscpi/src/utils.c **** 
 716:../Libraries/libscpi/src/utils.c **** #if !HAVE_STRNLEN
 717:../Libraries/libscpi/src/utils.c **** /* use FreeBSD strnlen */
 718:../Libraries/libscpi/src/utils.c **** 
 719:../Libraries/libscpi/src/utils.c **** /*-
 720:../Libraries/libscpi/src/utils.c ****  * Copyright (c) 2009 David Schultz <das@FreeBSD.org>
 721:../Libraries/libscpi/src/utils.c ****  * All rights reserved.
 722:../Libraries/libscpi/src/utils.c ****  */
 723:../Libraries/libscpi/src/utils.c **** size_t
 724:../Libraries/libscpi/src/utils.c **** BSD_strnlen(const char *s, size_t maxlen) {
 2691              	 .loc 1 724 0
 2692              	 .cfi_startproc
 2693              	 
 2694              	 
 2695              	 
 2696 0000 80B4     	 push {r7}
 2697              	.LCFI124:
 2698              	 .cfi_def_cfa_offset 4
 2699              	 .cfi_offset 7,-4
 2700 0002 85B0     	 sub sp,sp,#20
 2701              	.LCFI125:
 2702              	 .cfi_def_cfa_offset 24
 2703 0004 00AF     	 add r7,sp,#0
 2704              	.LCFI126:
 2705              	 .cfi_def_cfa_register 7
 2706 0006 7860     	 str r0,[r7,#4]
 2707 0008 3960     	 str r1,[r7]
 725:../Libraries/libscpi/src/utils.c ****     size_t len;
 726:../Libraries/libscpi/src/utils.c **** 
 727:../Libraries/libscpi/src/utils.c ****     for (len = 0; len < maxlen; len++, s++) {
 2708              	 .loc 1 727 0
 2709 000a 0023     	 movs r3,#0
 2710 000c FB60     	 str r3,[r7,#12]
 2711 000e 0AE0     	 b .L174
 2712              	.L177:
 728:../Libraries/libscpi/src/utils.c ****         if (!*s)
 2713              	 .loc 1 728 0
 2714 0010 7B68     	 ldr r3,[r7,#4]
 2715 0012 1B78     	 ldrb r3,[r3]
 2716 0014 002B     	 cmp r3,#0
 2717 0016 00D1     	 bne .L175
 729:../Libraries/libscpi/src/utils.c ****             break;
 2718              	 .loc 1 729 0
 2719 0018 09E0     	 b .L176
 2720              	.L175:
 727:../Libraries/libscpi/src/utils.c ****         if (!*s)
 2721              	 .loc 1 727 0 discriminator 2
 2722 001a FB68     	 ldr r3,[r7,#12]
 2723 001c 0133     	 adds r3,r3,#1
 2724 001e FB60     	 str r3,[r7,#12]
 2725 0020 7B68     	 ldr r3,[r7,#4]
 2726 0022 0133     	 adds r3,r3,#1
 2727 0024 7B60     	 str r3,[r7,#4]
 2728              	.L174:
 727:../Libraries/libscpi/src/utils.c ****         if (!*s)
 2729              	 .loc 1 727 0 is_stmt 0 discriminator 1
 2730 0026 FA68     	 ldr r2,[r7,#12]
 2731 0028 3B68     	 ldr r3,[r7]
 2732 002a 9A42     	 cmp r2,r3
 2733 002c F0D3     	 bcc .L177
 2734              	.L176:
 730:../Libraries/libscpi/src/utils.c ****     }
 731:../Libraries/libscpi/src/utils.c ****     return (len);
 2735              	 .loc 1 731 0 is_stmt 1
 2736 002e FB68     	 ldr r3,[r7,#12]
 732:../Libraries/libscpi/src/utils.c **** }
 2737              	 .loc 1 732 0
 2738 0030 1846     	 mov r0,r3
 2739 0032 1437     	 adds r7,r7,#20
 2740              	.LCFI127:
 2741              	 .cfi_def_cfa_offset 4
 2742 0034 BD46     	 mov sp,r7
 2743              	.LCFI128:
 2744              	 .cfi_def_cfa_register 13
 2745              	 
 2746 0036 5DF8047B 	 ldr r7,[sp],#4
 2747              	.LCFI129:
 2748              	 .cfi_restore 7
 2749              	 .cfi_def_cfa_offset 0
 2750 003a 7047     	 bx lr
 2751              	 .cfi_endproc
 2752              	.LFE24:
 2754              	 .section .text.OUR_strncasecmp,"ax",%progbits
 2755              	 .align 2
 2756              	 .global OUR_strncasecmp
 2757              	 .hidden OUR_strncasecmp
 2758              	 .thumb
 2759              	 .thumb_func
 2761              	OUR_strncasecmp:
 2762              	.LFB25:
 733:../Libraries/libscpi/src/utils.c **** #endif
 734:../Libraries/libscpi/src/utils.c **** 
 735:../Libraries/libscpi/src/utils.c **** #if !HAVE_STRNCASECMP && !HAVE_STRNICMP
 736:../Libraries/libscpi/src/utils.c **** 
 737:../Libraries/libscpi/src/utils.c **** int OUR_strncasecmp(const char *s1, const char *s2, size_t n) {
 2763              	 .loc 1 737 0
 2764              	 .cfi_startproc
 2765              	 
 2766              	 
 2767              	 
 2768 0000 80B4     	 push {r7}
 2769              	.LCFI130:
 2770              	 .cfi_def_cfa_offset 4
 2771              	 .cfi_offset 7,-4
 2772 0002 87B0     	 sub sp,sp,#28
 2773              	.LCFI131:
 2774              	 .cfi_def_cfa_offset 32
 2775 0004 00AF     	 add r7,sp,#0
 2776              	.LCFI132:
 2777              	 .cfi_def_cfa_register 7
 2778 0006 F860     	 str r0,[r7,#12]
 2779 0008 B960     	 str r1,[r7,#8]
 2780 000a 7A60     	 str r2,[r7,#4]
 738:../Libraries/libscpi/src/utils.c ****     unsigned char c1, c2;
 739:../Libraries/libscpi/src/utils.c **** 
 740:../Libraries/libscpi/src/utils.c ****     for (; n != 0; n--) {
 2781              	 .loc 1 740 0
 2782 000c 37E0     	 b .L180
 2783              	.L188:
 2784              	.LBB5:
 741:../Libraries/libscpi/src/utils.c ****         c1 = tolower((unsigned char) *s1++);
 2785              	 .loc 1 741 0
 2786 000e FB68     	 ldr r3,[r7,#12]
 2787 0010 5A1C     	 adds r2,r3,#1
 2788 0012 FA60     	 str r2,[r7,#12]
 2789 0014 1B78     	 ldrb r3,[r3]
 2790 0016 FB75     	 strb r3,[r7,#23]
 2791 0018 1E4B     	 ldr r3,.L189
 2792 001a 1A68     	 ldr r2,[r3]
 2793 001c FB7D     	 ldrb r3,[r7,#23]
 2794 001e 0133     	 adds r3,r3,#1
 2795 0020 1344     	 add r3,r3,r2
 2796 0022 1B78     	 ldrb r3,[r3]
 2797 0024 03F00303 	 and r3,r3,#3
 2798 0028 012B     	 cmp r3,#1
 2799 002a 02D1     	 bne .L181
 2800              	 .loc 1 741 0 is_stmt 0 discriminator 1
 2801 002c FB7D     	 ldrb r3,[r7,#23]
 2802 002e 2033     	 adds r3,r3,#32
 2803 0030 00E0     	 b .L182
 2804              	.L181:
 2805              	 .loc 1 741 0 discriminator 2
 2806 0032 FB7D     	 ldrb r3,[r7,#23]
 2807              	.L182:
 2808              	.LBE5:
 2809              	 .loc 1 741 0 discriminator 4
 2810 0034 BB75     	 strb r3,[r7,#22]
 2811              	.LBB6:
 742:../Libraries/libscpi/src/utils.c ****         c2 = tolower((unsigned char) *s2++);
 2812              	 .loc 1 742 0 is_stmt 1 discriminator 4
 2813 0036 BB68     	 ldr r3,[r7,#8]
 2814 0038 5A1C     	 adds r2,r3,#1
 2815 003a BA60     	 str r2,[r7,#8]
 2816 003c 1B78     	 ldrb r3,[r3]
 2817 003e 7B75     	 strb r3,[r7,#21]
 2818 0040 144B     	 ldr r3,.L189
 2819 0042 1A68     	 ldr r2,[r3]
 2820 0044 7B7D     	 ldrb r3,[r7,#21]
 2821 0046 0133     	 adds r3,r3,#1
 2822 0048 1344     	 add r3,r3,r2
 2823 004a 1B78     	 ldrb r3,[r3]
 2824 004c 03F00303 	 and r3,r3,#3
 2825 0050 012B     	 cmp r3,#1
 2826 0052 02D1     	 bne .L183
 2827              	 .loc 1 742 0 is_stmt 0 discriminator 1
 2828 0054 7B7D     	 ldrb r3,[r7,#21]
 2829 0056 2033     	 adds r3,r3,#32
 2830 0058 00E0     	 b .L184
 2831              	.L183:
 2832              	 .loc 1 742 0 discriminator 2
 2833 005a 7B7D     	 ldrb r3,[r7,#21]
 2834              	.L184:
 2835              	.LBE6:
 2836              	 .loc 1 742 0 discriminator 4
 2837 005c 3B75     	 strb r3,[r7,#20]
 743:../Libraries/libscpi/src/utils.c ****         if (c1 != c2) {
 2838              	 .loc 1 743 0 is_stmt 1 discriminator 4
 2839 005e BA7D     	 ldrb r2,[r7,#22]
 2840 0060 3B7D     	 ldrb r3,[r7,#20]
 2841 0062 9A42     	 cmp r2,r3
 2842 0064 03D0     	 beq .L185
 744:../Libraries/libscpi/src/utils.c ****             return c1 - c2;
 2843              	 .loc 1 744 0
 2844 0066 BA7D     	 ldrb r2,[r7,#22]
 2845 0068 3B7D     	 ldrb r3,[r7,#20]
 2846 006a D31A     	 subs r3,r2,r3
 2847 006c 0BE0     	 b .L186
 2848              	.L185:
 745:../Libraries/libscpi/src/utils.c ****         }
 746:../Libraries/libscpi/src/utils.c ****         if (c1 == '\0') {
 2849              	 .loc 1 746 0
 2850 006e BB7D     	 ldrb r3,[r7,#22]
 2851 0070 002B     	 cmp r3,#0
 2852 0072 01D1     	 bne .L187
 747:../Libraries/libscpi/src/utils.c ****             return 0;
 2853              	 .loc 1 747 0
 2854 0074 0023     	 movs r3,#0
 2855 0076 06E0     	 b .L186
 2856              	.L187:
 740:../Libraries/libscpi/src/utils.c ****         c1 = tolower((unsigned char) *s1++);
 2857              	 .loc 1 740 0
 2858 0078 7B68     	 ldr r3,[r7,#4]
 2859 007a 013B     	 subs r3,r3,#1
 2860 007c 7B60     	 str r3,[r7,#4]
 2861              	.L180:
 740:../Libraries/libscpi/src/utils.c ****         c1 = tolower((unsigned char) *s1++);
 2862              	 .loc 1 740 0 is_stmt 0 discriminator 1
 2863 007e 7B68     	 ldr r3,[r7,#4]
 2864 0080 002B     	 cmp r3,#0
 2865 0082 C4D1     	 bne .L188
 748:../Libraries/libscpi/src/utils.c ****         }
 749:../Libraries/libscpi/src/utils.c ****     }
 750:../Libraries/libscpi/src/utils.c ****     return 0;
 2866              	 .loc 1 750 0 is_stmt 1
 2867 0084 0023     	 movs r3,#0
 2868              	.L186:
 751:../Libraries/libscpi/src/utils.c **** }
 2869              	 .loc 1 751 0
 2870 0086 1846     	 mov r0,r3
 2871 0088 1C37     	 adds r7,r7,#28
 2872              	.LCFI133:
 2873              	 .cfi_def_cfa_offset 4
 2874 008a BD46     	 mov sp,r7
 2875              	.LCFI134:
 2876              	 .cfi_def_cfa_register 13
 2877              	 
 2878 008c 5DF8047B 	 ldr r7,[sp],#4
 2879              	.LCFI135:
 2880              	 .cfi_restore 7
 2881              	 .cfi_def_cfa_offset 0
 2882 0090 7047     	 bx lr
 2883              	.L190:
 2884 0092 00BF     	 .align 2
 2885              	.L189:
 2886 0094 00000000 	 .word __ctype_ptr__
 2887              	 .cfi_endproc
 2888              	.LFE25:
 2890              	 .global __aeabi_dcmplt
 2891              	 .global __aeabi_dcmpeq
 2892              	 .global __aeabi_ddiv
 2893              	 .global __aeabi_dadd
 2894              	 .global __aeabi_dmul
 2895              	 .global __aeabi_d2iz
 2896              	 .global __aeabi_dcmpgt
 2897              	 .section .text.scpi_ecvt,"ax",%progbits
 2898              	 .align 2
 2899              	 .thumb
 2900              	 .thumb_func
 2902              	scpi_ecvt:
 2903              	.LFB26:
 752:../Libraries/libscpi/src/utils.c **** #endif
 753:../Libraries/libscpi/src/utils.c **** 
 754:../Libraries/libscpi/src/utils.c **** #if USE_MEMORY_ALLOCATION_FREE && !HAVE_STRNDUP
 755:../Libraries/libscpi/src/utils.c **** char *OUR_strndup(const char *s, size_t n) {
 756:../Libraries/libscpi/src/utils.c ****     size_t len = SCPIDEFINE_strnlen(s, n);
 757:../Libraries/libscpi/src/utils.c ****     char * result = malloc(len + 1);
 758:../Libraries/libscpi/src/utils.c ****     if (!result) {
 759:../Libraries/libscpi/src/utils.c ****         return NULL;
 760:../Libraries/libscpi/src/utils.c ****     }
 761:../Libraries/libscpi/src/utils.c ****     memcpy(result, s, len);
 762:../Libraries/libscpi/src/utils.c ****     result[len] = '\0';
 763:../Libraries/libscpi/src/utils.c ****     return result;
 764:../Libraries/libscpi/src/utils.c **** }
 765:../Libraries/libscpi/src/utils.c **** #endif
 766:../Libraries/libscpi/src/utils.c **** 
 767:../Libraries/libscpi/src/utils.c **** #if USE_DEVICE_DEPENDENT_ERROR_INFORMATION && !USE_MEMORY_ALLOCATION_FREE
 768:../Libraries/libscpi/src/utils.c **** 
 769:../Libraries/libscpi/src/utils.c **** /**
 770:../Libraries/libscpi/src/utils.c ****  * Initialize heap structure
 771:../Libraries/libscpi/src/utils.c ****  * @param heap - pointer to manual allocated heap buffer
 772:../Libraries/libscpi/src/utils.c ****  * @param error_info_heap - buffer for the heap
 773:../Libraries/libscpi/src/utils.c ****  * @param error_info_heap_length - length of the heap
 774:../Libraries/libscpi/src/utils.c ****  */
 775:../Libraries/libscpi/src/utils.c **** void scpiheap_init(scpi_error_info_heap_t * heap, char * error_info_heap, size_t error_info_heap_le
 776:../Libraries/libscpi/src/utils.c **** {
 777:../Libraries/libscpi/src/utils.c ****     heap->data = error_info_heap;
 778:../Libraries/libscpi/src/utils.c ****     heap->wr = 0;
 779:../Libraries/libscpi/src/utils.c ****     heap->size = error_info_heap_length;
 780:../Libraries/libscpi/src/utils.c ****     heap->count = heap->size;
 781:../Libraries/libscpi/src/utils.c ****     memset(heap->data, 0, heap->size);
 782:../Libraries/libscpi/src/utils.c **** }
 783:../Libraries/libscpi/src/utils.c **** 
 784:../Libraries/libscpi/src/utils.c **** /**
 785:../Libraries/libscpi/src/utils.c ****  * Duplicate string if "strdup" ("malloc/free") not supported on system.
 786:../Libraries/libscpi/src/utils.c ****  * Allocate space in heap if it possible
 787:../Libraries/libscpi/src/utils.c ****  *
 788:../Libraries/libscpi/src/utils.c ****  * @param heap - pointer to manual allocated heap buffer
 789:../Libraries/libscpi/src/utils.c ****  * @param s - current pointer of duplication string
 790:../Libraries/libscpi/src/utils.c ****  * @return - pointer of duplicated string or NULL, if duplicate is not possible.
 791:../Libraries/libscpi/src/utils.c ****  */
 792:../Libraries/libscpi/src/utils.c **** char * scpiheap_strndup(scpi_error_info_heap_t * heap, const char *s, size_t n) {
 793:../Libraries/libscpi/src/utils.c ****     if (!s || !heap || !heap->size) {
 794:../Libraries/libscpi/src/utils.c ****         return NULL;
 795:../Libraries/libscpi/src/utils.c ****     }
 796:../Libraries/libscpi/src/utils.c **** 
 797:../Libraries/libscpi/src/utils.c ****     if (heap->data[heap->wr] != '\0') {
 798:../Libraries/libscpi/src/utils.c ****         return NULL;
 799:../Libraries/libscpi/src/utils.c ****     }
 800:../Libraries/libscpi/src/utils.c **** 
 801:../Libraries/libscpi/src/utils.c ****     if (*s == '\0') {
 802:../Libraries/libscpi/src/utils.c ****         return NULL;
 803:../Libraries/libscpi/src/utils.c ****     }
 804:../Libraries/libscpi/src/utils.c **** 
 805:../Libraries/libscpi/src/utils.c ****     size_t len = SCPIDEFINE_strnlen(s, n) + 1; /* additional '\0' at end */
 806:../Libraries/libscpi/src/utils.c ****     if (len > heap->count) {
 807:../Libraries/libscpi/src/utils.c ****         return NULL;
 808:../Libraries/libscpi/src/utils.c ****     }
 809:../Libraries/libscpi/src/utils.c ****     const char * ptrs = s;
 810:../Libraries/libscpi/src/utils.c ****     char * head = &heap->data[heap->wr];
 811:../Libraries/libscpi/src/utils.c ****     size_t rem = heap->size - (&heap->data[heap->wr] - heap->data);
 812:../Libraries/libscpi/src/utils.c **** 
 813:../Libraries/libscpi/src/utils.c ****     if (len >= rem) {
 814:../Libraries/libscpi/src/utils.c ****         memcpy(&heap->data[heap->wr], s, rem);
 815:../Libraries/libscpi/src/utils.c ****         len = len - rem;
 816:../Libraries/libscpi/src/utils.c ****         ptrs += rem;
 817:../Libraries/libscpi/src/utils.c ****         heap->wr = 0;
 818:../Libraries/libscpi/src/utils.c ****         heap->count -= rem;
 819:../Libraries/libscpi/src/utils.c ****     }
 820:../Libraries/libscpi/src/utils.c **** 
 821:../Libraries/libscpi/src/utils.c ****     memcpy(&heap->data[heap->wr], ptrs, len);
 822:../Libraries/libscpi/src/utils.c ****     heap->wr += len;
 823:../Libraries/libscpi/src/utils.c ****     heap->count -= len;
 824:../Libraries/libscpi/src/utils.c **** 
 825:../Libraries/libscpi/src/utils.c ****     /* ensure '\0' a the end */
 826:../Libraries/libscpi/src/utils.c ****     if (heap->wr > 0) {
 827:../Libraries/libscpi/src/utils.c ****         heap->data[heap->wr - 1] = '\0';
 828:../Libraries/libscpi/src/utils.c ****     } else {
 829:../Libraries/libscpi/src/utils.c ****         heap->data[heap->size - 1] = '\0';
 830:../Libraries/libscpi/src/utils.c ****     }
 831:../Libraries/libscpi/src/utils.c ****     return head;
 832:../Libraries/libscpi/src/utils.c **** }
 833:../Libraries/libscpi/src/utils.c **** 
 834:../Libraries/libscpi/src/utils.c **** /**
 835:../Libraries/libscpi/src/utils.c ****  * Return pointers and lengths two parts of string in the circular buffer from heap
 836:../Libraries/libscpi/src/utils.c ****  *
 837:../Libraries/libscpi/src/utils.c ****  * @param heap - pointer to manual allocated heap buffer
 838:../Libraries/libscpi/src/utils.c ****  * @param s - pointer of duplicate string.
 839:../Libraries/libscpi/src/utils.c ****  * @return len1 - lenght of first part of string.
 840:../Libraries/libscpi/src/utils.c ****  * @return s2 - pointer of second part of string, if string splited .
 841:../Libraries/libscpi/src/utils.c ****  * @return len2 - lenght of second part of string.
 842:../Libraries/libscpi/src/utils.c ****  */
 843:../Libraries/libscpi/src/utils.c **** scpi_bool_t scpiheap_get_parts(scpi_error_info_heap_t * heap, const char * s, size_t * len1, const 
 844:../Libraries/libscpi/src/utils.c ****     if (!heap || !s || !len1 || !s2 || !len2) {
 845:../Libraries/libscpi/src/utils.c ****         return FALSE;
 846:../Libraries/libscpi/src/utils.c ****     }
 847:../Libraries/libscpi/src/utils.c **** 
 848:../Libraries/libscpi/src/utils.c ****     if (*s == '\0') {
 849:../Libraries/libscpi/src/utils.c ****         return FALSE;
 850:../Libraries/libscpi/src/utils.c ****     }
 851:../Libraries/libscpi/src/utils.c **** 
 852:../Libraries/libscpi/src/utils.c ****     *len1 = 0;
 853:../Libraries/libscpi/src/utils.c ****     size_t rem = heap->size - (s - heap->data);
 854:../Libraries/libscpi/src/utils.c ****     *len1 = strnlen(s, rem);
 855:../Libraries/libscpi/src/utils.c **** 
 856:../Libraries/libscpi/src/utils.c ****     if (&s[*len1 - 1] == &heap->data[heap->size - 1]) {
 857:../Libraries/libscpi/src/utils.c ****         *s2 = heap->data;
 858:../Libraries/libscpi/src/utils.c ****         *len2 = strnlen(*s2, heap->size);
 859:../Libraries/libscpi/src/utils.c ****     } else {
 860:../Libraries/libscpi/src/utils.c ****         *s2 = NULL;
 861:../Libraries/libscpi/src/utils.c ****         *len2 = 0;
 862:../Libraries/libscpi/src/utils.c ****     }
 863:../Libraries/libscpi/src/utils.c ****     return TRUE;
 864:../Libraries/libscpi/src/utils.c **** }
 865:../Libraries/libscpi/src/utils.c **** 
 866:../Libraries/libscpi/src/utils.c **** /**
 867:../Libraries/libscpi/src/utils.c ****  * Frees space in heap, if "malloc/free" not supported on system, or nothing.
 868:../Libraries/libscpi/src/utils.c ****  *
 869:../Libraries/libscpi/src/utils.c ****  * @param heap - pointer to manual allocated heap buffer
 870:../Libraries/libscpi/src/utils.c ****  * @param s - pointer of duplicate string
 871:../Libraries/libscpi/src/utils.c ****  * @param rollback - backward write pointer in heap
 872:../Libraries/libscpi/src/utils.c ****  */
 873:../Libraries/libscpi/src/utils.c **** void scpiheap_free(scpi_error_info_heap_t * heap, char * s, scpi_bool_t rollback) {
 874:../Libraries/libscpi/src/utils.c **** 
 875:../Libraries/libscpi/src/utils.c ****     if (!s) return;
 876:../Libraries/libscpi/src/utils.c **** 
 877:../Libraries/libscpi/src/utils.c ****     char * data_add;
 878:../Libraries/libscpi/src/utils.c ****     size_t len[2];
 879:../Libraries/libscpi/src/utils.c **** 
 880:../Libraries/libscpi/src/utils.c ****     if (!scpiheap_get_parts(heap, s, &len[0], (const char **)&data_add, &len[1])) return;
 881:../Libraries/libscpi/src/utils.c **** 
 882:../Libraries/libscpi/src/utils.c ****     if (data_add) {
 883:../Libraries/libscpi/src/utils.c ****         len[1]++;
 884:../Libraries/libscpi/src/utils.c ****         memset(data_add, 0, len[1]);
 885:../Libraries/libscpi/src/utils.c ****         heap->count += len[1];
 886:../Libraries/libscpi/src/utils.c ****     } else {
 887:../Libraries/libscpi/src/utils.c ****         len[0]++;
 888:../Libraries/libscpi/src/utils.c ****     }
 889:../Libraries/libscpi/src/utils.c ****     memset(s, 0, len[0]);
 890:../Libraries/libscpi/src/utils.c ****     heap->count += len[0];
 891:../Libraries/libscpi/src/utils.c ****     if (heap->count == heap->size) {
 892:../Libraries/libscpi/src/utils.c ****         heap->wr = 0;
 893:../Libraries/libscpi/src/utils.c ****         return;
 894:../Libraries/libscpi/src/utils.c ****     }
 895:../Libraries/libscpi/src/utils.c ****     if (rollback) {
 896:../Libraries/libscpi/src/utils.c ****         size_t rb = len[0] + len[1];
 897:../Libraries/libscpi/src/utils.c ****         if (rb > heap->wr) {
 898:../Libraries/libscpi/src/utils.c ****             heap->wr += heap->size;
 899:../Libraries/libscpi/src/utils.c ****         }
 900:../Libraries/libscpi/src/utils.c ****         heap->wr -= rb;
 901:../Libraries/libscpi/src/utils.c ****     }
 902:../Libraries/libscpi/src/utils.c **** }
 903:../Libraries/libscpi/src/utils.c **** 
 904:../Libraries/libscpi/src/utils.c **** #endif
 905:../Libraries/libscpi/src/utils.c **** 
 906:../Libraries/libscpi/src/utils.c **** /*
 907:../Libraries/libscpi/src/utils.c ****  * Floating point to string conversion routines
 908:../Libraries/libscpi/src/utils.c ****  *
 909:../Libraries/libscpi/src/utils.c ****  * Copyright (C) 2002 Michael Ringgaard. All rights reserved.
 910:../Libraries/libscpi/src/utils.c ****  *
 911:../Libraries/libscpi/src/utils.c ****  * Redistribution and use in source and binary forms, with or without
 912:../Libraries/libscpi/src/utils.c ****  * modification, are permitted provided that the following conditions
 913:../Libraries/libscpi/src/utils.c ****  * are met:
 914:../Libraries/libscpi/src/utils.c ****  *
 915:../Libraries/libscpi/src/utils.c ****  * 1. Redistributions of source code must retain the above copyright
 916:../Libraries/libscpi/src/utils.c ****  *    notice, this list of conditions and the following disclaimer.
 917:../Libraries/libscpi/src/utils.c ****  * 2. Redistributions in binary form must reproduce the above copyright
 918:../Libraries/libscpi/src/utils.c ****  *    notice, this list of conditions and the following disclaimer in the
 919:../Libraries/libscpi/src/utils.c ****  *    documentation and/or other materials provided with the distribution.
 920:../Libraries/libscpi/src/utils.c ****  * 3. Neither the name of the project nor the names of its contributors
 921:../Libraries/libscpi/src/utils.c ****  *    may be used to endorse or promote products derived from this software
 922:../Libraries/libscpi/src/utils.c ****  *    without specific prior written permission.
 923:../Libraries/libscpi/src/utils.c ****  *
 924:../Libraries/libscpi/src/utils.c ****  * THIS SOFTWARE IS PROVIDED BY THE COPYRIGHT HOLDERS AND CONTRIBUTORS "AS IS" AND
 925:../Libraries/libscpi/src/utils.c ****  * ANY EXPRESS OR IMPLIED WARRANTIES, INCLUDING, BUT NOT LIMITED TO, THE
 926:../Libraries/libscpi/src/utils.c ****  * IMPLIED WARRANTIES OF MERCHANTABILITY AND FITNESS FOR A PARTICULAR PURPOSE
 927:../Libraries/libscpi/src/utils.c ****  * ARE DISCLAIMED.  IN NO EVENT SHALL THE COPYRIGHT OWNER OR CONTRIBUTORS BE LIABLE
 928:../Libraries/libscpi/src/utils.c ****  * FOR ANY DIRECT, INDIRECT, INCIDENTAL, SPECIAL, EXEMPLARY, OR CONSEQUENTIAL
 929:../Libraries/libscpi/src/utils.c ****  * DAMAGES (INCLUDING, BUT NOT LIMITED TO, PROCUREMENT OF SUBSTITUTE GOODS
 930:../Libraries/libscpi/src/utils.c ****  * OR SERVICES; LOSS OF USE, DATA, OR PROFITS; OR BUSINESS INTERRUPTION)
 931:../Libraries/libscpi/src/utils.c ****  * HOWEVER CAUSED AND ON ANY THEORY OF LIABILITY, WHETHER IN CONTRACT, STRICT
 932:../Libraries/libscpi/src/utils.c ****  * LIABILITY, OR TORT (INCLUDING NEGLIGENCE OR OTHERWISE) ARISING IN ANY WAY
 933:../Libraries/libscpi/src/utils.c ****  * OUT OF THE USE OF THIS SOFTWARE, EVEN IF ADVISED OF THE POSSIBILITY OF
 934:../Libraries/libscpi/src/utils.c ****  * SUCH DAMAGE.
 935:../Libraries/libscpi/src/utils.c ****  */
 936:../Libraries/libscpi/src/utils.c **** 
 937:../Libraries/libscpi/src/utils.c **** static char *scpi_ecvt(double arg, int ndigits, int *decpt, int *sign, char *buf, size_t bufsize) {
 2904              	 .loc 1 937 0
 2905              	 .cfi_startproc
 2906              	 
 2907              	 
 2908 0000 90B5     	 push {r4,r7,lr}
 2909              	.LCFI136:
 2910              	 .cfi_def_cfa_offset 12
 2911              	 .cfi_offset 4,-12
 2912              	 .cfi_offset 7,-8
 2913              	 .cfi_offset 14,-4
 2914 0002 8DB0     	 sub sp,sp,#52
 2915              	.LCFI137:
 2916              	 .cfi_def_cfa_offset 64
 2917 0004 00AF     	 add r7,sp,#0
 2918              	.LCFI138:
 2919              	 .cfi_def_cfa_register 7
 2920 0006 C7E90201 	 strd r0,[r7,#8]
 2921 000a 7A60     	 str r2,[r7,#4]
 2922 000c 3B60     	 str r3,[r7]
 938:../Libraries/libscpi/src/utils.c ****     int r1, r2;
 939:../Libraries/libscpi/src/utils.c ****     double fi, fj;
 940:../Libraries/libscpi/src/utils.c ****     int w1, w2;
 941:../Libraries/libscpi/src/utils.c **** 
 942:../Libraries/libscpi/src/utils.c ****     if (ndigits < 0) ndigits = 0;
 2923              	 .loc 1 942 0
 2924 000e 7B68     	 ldr r3,[r7,#4]
 2925 0010 002B     	 cmp r3,#0
 2926 0012 01DA     	 bge .L192
 2927              	 .loc 1 942 0 is_stmt 0 discriminator 1
 2928 0014 0023     	 movs r3,#0
 2929 0016 7B60     	 str r3,[r7,#4]
 2930              	.L192:
 943:../Libraries/libscpi/src/utils.c ****     if (ndigits >= (int) (bufsize - 1)) ndigits = bufsize - 2;
 2931              	 .loc 1 943 0 is_stmt 1
 2932 0018 BB6C     	 ldr r3,[r7,#72]
 2933 001a 013B     	 subs r3,r3,#1
 2934 001c 1A46     	 mov r2,r3
 2935 001e 7B68     	 ldr r3,[r7,#4]
 2936 0020 9A42     	 cmp r2,r3
 2937 0022 02DC     	 bgt .L193
 2938              	 .loc 1 943 0 is_stmt 0 discriminator 1
 2939 0024 BB6C     	 ldr r3,[r7,#72]
 2940 0026 023B     	 subs r3,r3,#2
 2941 0028 7B60     	 str r3,[r7,#4]
 2942              	.L193:
 944:../Libraries/libscpi/src/utils.c **** 
 945:../Libraries/libscpi/src/utils.c ****     r2 = 0;
 2943              	 .loc 1 945 0 is_stmt 1
 2944 002a 0023     	 movs r3,#0
 2945 002c FB62     	 str r3,[r7,#44]
 946:../Libraries/libscpi/src/utils.c ****     *sign = 0;
 2946              	 .loc 1 946 0
 2947 002e 3B6C     	 ldr r3,[r7,#64]
 2948 0030 0022     	 movs r2,#0
 2949 0032 1A60     	 str r2,[r3]
 947:../Libraries/libscpi/src/utils.c ****     w1 = 0;
 2950              	 .loc 1 947 0
 2951 0034 0023     	 movs r3,#0
 2952 0036 BB62     	 str r3,[r7,#40]
 948:../Libraries/libscpi/src/utils.c ****     if (arg < 0) {
 2953              	 .loc 1 948 0
 2954 0038 D7E90201 	 ldrd r0,[r7,#8]
 2955 003c 4FF00002 	 mov r2,#0
 2956 0040 4FF00003 	 mov r3,#0
 2957 0044 FFF7FEFF 	 bl __aeabi_dcmplt
 2958 0048 0346     	 mov r3,r0
 2959 004a 002B     	 cmp r3,#0
 2960 004c 08D0     	 beq .L194
 949:../Libraries/libscpi/src/utils.c ****         *sign = 1;
 2961              	 .loc 1 949 0
 2962 004e 3B6C     	 ldr r3,[r7,#64]
 2963 0050 0122     	 movs r2,#1
 2964 0052 1A60     	 str r2,[r3]
 950:../Libraries/libscpi/src/utils.c ****         arg = -arg;
 2965              	 .loc 1 950 0
 2966 0054 BB68     	 ldr r3,[r7,#8]
 2967 0056 BB60     	 str r3,[r7,#8]
 2968 0058 FB68     	 ldr r3,[r7,#12]
 2969 005a 83F00043 	 eor r3,r3,#-2147483648
 2970 005e FB60     	 str r3,[r7,#12]
 2971              	.L194:
 951:../Libraries/libscpi/src/utils.c ****     }
 952:../Libraries/libscpi/src/utils.c ****     frexp(arg, &r1);
 2972              	 .loc 1 952 0
 2973 0060 07F12003 	 add r3,r7,#32
 2974 0064 D7E90201 	 ldrd r0,[r7,#8]
 2975 0068 1A46     	 mov r2,r3
 2976 006a FFF7FEFF 	 bl frexp
 953:../Libraries/libscpi/src/utils.c ****     arg = modf(arg, &fi);
 2977              	 .loc 1 953 0
 2978 006e 07F11803 	 add r3,r7,#24
 2979 0072 D7E90201 	 ldrd r0,[r7,#8]
 2980 0076 1A46     	 mov r2,r3
 2981 0078 FFF7FEFF 	 bl modf
 2982 007c C7E90201 	 strd r0,[r7,#8]
 954:../Libraries/libscpi/src/utils.c **** 
 955:../Libraries/libscpi/src/utils.c ****     if (fi != 0) {
 2983              	 .loc 1 955 0
 2984 0080 D7E90623 	 ldrd r2,[r7,#24]
 2985 0084 1046     	 mov r0,r2
 2986 0086 1946     	 mov r1,r3
 2987 0088 4FF00002 	 mov r2,#0
 2988 008c 4FF00003 	 mov r3,#0
 2989 0090 FFF7FEFF 	 bl __aeabi_dcmpeq
 2990 0094 0346     	 mov r3,r0
 2991 0096 002B     	 cmp r3,#0
 2992 0098 40F08E80 	 bne .L222
 956:../Libraries/libscpi/src/utils.c ****         r1 = r1 * 308 / 1024 - ndigits;
 2993              	 .loc 1 956 0
 2994 009c 3B6A     	 ldr r3,[r7,#32]
 2995 009e 4FF49A72 	 mov r2,#308
 2996 00a2 02FB03F3 	 mul r3,r2,r3
 2997 00a6 002B     	 cmp r3,#0
 2998 00a8 01DA     	 bge .L198
 2999 00aa 03F2FF33 	 addw r3,r3,#1023
 3000              	.L198:
 3001 00ae 9B12     	 asrs r3,r3,#10
 3002 00b0 1A46     	 mov r2,r3
 3003 00b2 7B68     	 ldr r3,[r7,#4]
 3004 00b4 D31A     	 subs r3,r2,r3
 3005 00b6 3B62     	 str r3,[r7,#32]
 957:../Libraries/libscpi/src/utils.c ****         w2 = bufsize;
 3006              	 .loc 1 957 0
 3007 00b8 BB6C     	 ldr r3,[r7,#72]
 3008 00ba 7B62     	 str r3,[r7,#36]
 958:../Libraries/libscpi/src/utils.c ****         while (r1 > 0) {
 3009              	 .loc 1 958 0
 3010 00bc 1BE0     	 b .L199
 3011              	.L200:
 959:../Libraries/libscpi/src/utils.c ****             fj = modf(fi / 10, &fi);
 3012              	 .loc 1 959 0
 3013 00be D7E90623 	 ldrd r2,[r7,#24]
 3014 00c2 1046     	 mov r0,r2
 3015 00c4 1946     	 mov r1,r3
 3016 00c6 4FF00002 	 mov r2,#0
 3017 00ca 934B     	 ldr r3,.L223+8
 3018 00cc FFF7FEFF 	 bl __aeabi_ddiv
 3019 00d0 0246     	 mov r2,r0
 3020 00d2 0B46     	 mov r3,r1
 3021 00d4 1046     	 mov r0,r2
 3022 00d6 1946     	 mov r1,r3
 3023 00d8 07F11803 	 add r3,r7,#24
 3024 00dc 1A46     	 mov r2,r3
 3025 00de FFF7FEFF 	 bl modf
 3026 00e2 0246     	 mov r2,r0
 3027 00e4 0B46     	 mov r3,r1
 3028 00e6 C7E90423 	 strd r2,[r7,#16]
 960:../Libraries/libscpi/src/utils.c ****             r2++;
 3029              	 .loc 1 960 0
 3030 00ea FB6A     	 ldr r3,[r7,#44]
 3031 00ec 0133     	 adds r3,r3,#1
 3032 00ee FB62     	 str r3,[r7,#44]
 961:../Libraries/libscpi/src/utils.c ****             r1--;
 3033              	 .loc 1 961 0
 3034 00f0 3B6A     	 ldr r3,[r7,#32]
 3035 00f2 013B     	 subs r3,r3,#1
 3036 00f4 3B62     	 str r3,[r7,#32]
 3037              	.L199:
 958:../Libraries/libscpi/src/utils.c ****             fj = modf(fi / 10, &fi);
 3038              	 .loc 1 958 0
 3039 00f6 3B6A     	 ldr r3,[r7,#32]
 3040 00f8 002B     	 cmp r3,#0
 3041 00fa E0DC     	 bgt .L200
 962:../Libraries/libscpi/src/utils.c ****         }
 963:../Libraries/libscpi/src/utils.c ****         while (fi != 0) {
 3042              	 .loc 1 963 0
 3043 00fc 3BE0     	 b .L201
 3044              	.L202:
 964:../Libraries/libscpi/src/utils.c ****             fj = modf(fi / 10, &fi);
 3045              	 .loc 1 964 0
 3046 00fe D7E90623 	 ldrd r2,[r7,#24]
 3047 0102 1046     	 mov r0,r2
 3048 0104 1946     	 mov r1,r3
 3049 0106 4FF00002 	 mov r2,#0
 3050 010a 834B     	 ldr r3,.L223+8
 3051 010c FFF7FEFF 	 bl __aeabi_ddiv
 3052 0110 0246     	 mov r2,r0
 3053 0112 0B46     	 mov r3,r1
 3054 0114 1046     	 mov r0,r2
 3055 0116 1946     	 mov r1,r3
 3056 0118 07F11803 	 add r3,r7,#24
 3057 011c 1A46     	 mov r2,r3
 3058 011e FFF7FEFF 	 bl modf
 3059 0122 0246     	 mov r2,r0
 3060 0124 0B46     	 mov r3,r1
 3061 0126 C7E90423 	 strd r2,[r7,#16]
 965:../Libraries/libscpi/src/utils.c ****             buf[--w2] = (int) ((fj + .03) * 10) + '0';
 3062              	 .loc 1 965 0
 3063 012a 7B6A     	 ldr r3,[r7,#36]
 3064 012c 013B     	 subs r3,r3,#1
 3065 012e 7B62     	 str r3,[r7,#36]
 3066 0130 7B6A     	 ldr r3,[r7,#36]
 3067 0132 7A6C     	 ldr r2,[r7,#68]
 3068 0134 D418     	 adds r4,r2,r3
 3069 0136 D7E90423 	 ldrd r2,[r7,#16]
 3070 013a 1046     	 mov r0,r2
 3071 013c 1946     	 mov r1,r3
 3072 013e 74A3     	 adr r3,.L223
 3073 0140 D3E90023 	 ldrd r2,[r3]
 3074 0144 FFF7FEFF 	 bl __aeabi_dadd
 3075 0148 0246     	 mov r2,r0
 3076 014a 0B46     	 mov r3,r1
 3077 014c 1046     	 mov r0,r2
 3078 014e 1946     	 mov r1,r3
 3079 0150 4FF00002 	 mov r2,#0
 3080 0154 704B     	 ldr r3,.L223+8
 3081 0156 FFF7FEFF 	 bl __aeabi_dmul
 3082 015a 0246     	 mov r2,r0
 3083 015c 0B46     	 mov r3,r1
 3084 015e 1046     	 mov r0,r2
 3085 0160 1946     	 mov r1,r3
 3086 0162 FFF7FEFF 	 bl __aeabi_d2iz
 3087 0166 0346     	 mov r3,r0
 3088 0168 DBB2     	 uxtb r3,r3
 3089 016a 3033     	 adds r3,r3,#48
 3090 016c DBB2     	 uxtb r3,r3
 3091 016e 2370     	 strb r3,[r4]
 966:../Libraries/libscpi/src/utils.c ****             r2++;
 3092              	 .loc 1 966 0
 3093 0170 FB6A     	 ldr r3,[r7,#44]
 3094 0172 0133     	 adds r3,r3,#1
 3095 0174 FB62     	 str r3,[r7,#44]
 3096              	.L201:
 963:../Libraries/libscpi/src/utils.c ****             fj = modf(fi / 10, &fi);
 3097              	 .loc 1 963 0
 3098 0176 D7E90623 	 ldrd r2,[r7,#24]
 3099 017a 1046     	 mov r0,r2
 3100 017c 1946     	 mov r1,r3
 3101 017e 4FF00002 	 mov r2,#0
 3102 0182 4FF00003 	 mov r3,#0
 3103 0186 FFF7FEFF 	 bl __aeabi_dcmpeq
 3104 018a 0346     	 mov r3,r0
 3105 018c 002B     	 cmp r3,#0
 3106 018e B6D0     	 beq .L202
 967:../Libraries/libscpi/src/utils.c ****         }
 968:../Libraries/libscpi/src/utils.c ****         while (w2 < (int) bufsize) buf[w1++] = buf[w2++];
 3107              	 .loc 1 968 0
 3108 0190 0DE0     	 b .L203
 3109              	.L204:
 3110              	 .loc 1 968 0 is_stmt 0 discriminator 2
 3111 0192 BB6A     	 ldr r3,[r7,#40]
 3112 0194 5A1C     	 adds r2,r3,#1
 3113 0196 BA62     	 str r2,[r7,#40]
 3114 0198 1A46     	 mov r2,r3
 3115 019a 7B6C     	 ldr r3,[r7,#68]
 3116 019c 1A44     	 add r2,r2,r3
 3117 019e 7B6A     	 ldr r3,[r7,#36]
 3118 01a0 591C     	 adds r1,r3,#1
 3119 01a2 7962     	 str r1,[r7,#36]
 3120 01a4 1946     	 mov r1,r3
 3121 01a6 7B6C     	 ldr r3,[r7,#68]
 3122 01a8 0B44     	 add r3,r3,r1
 3123 01aa 1B78     	 ldrb r3,[r3]
 3124 01ac 1370     	 strb r3,[r2]
 3125              	.L203:
 3126              	 .loc 1 968 0 discriminator 1
 3127 01ae BA6C     	 ldr r2,[r7,#72]
 3128 01b0 7B6A     	 ldr r3,[r7,#36]
 3129 01b2 9A42     	 cmp r2,r3
 3130 01b4 EDDC     	 bgt .L204
 3131 01b6 29E0     	 b .L205
 3132              	.L222:
 969:../Libraries/libscpi/src/utils.c ****     } else if (arg > 0) {
 3133              	 .loc 1 969 0 is_stmt 1
 3134 01b8 D7E90201 	 ldrd r0,[r7,#8]
 3135 01bc 4FF00002 	 mov r2,#0
 3136 01c0 4FF00003 	 mov r3,#0
 3137 01c4 FFF7FEFF 	 bl __aeabi_dcmpgt
 3138 01c8 0346     	 mov r3,r0
 3139 01ca 002B     	 cmp r3,#0
 3140 01cc 1ED0     	 beq .L205
 970:../Libraries/libscpi/src/utils.c ****         while ((fj = arg * 10) < 1) {
 3141              	 .loc 1 970 0
 3142 01ce 06E0     	 b .L207
 3143              	.L208:
 971:../Libraries/libscpi/src/utils.c ****             arg = fj;
 3144              	 .loc 1 971 0
 3145 01d0 D7E90423 	 ldrd r2,[r7,#16]
 3146 01d4 C7E90223 	 strd r2,[r7,#8]
 972:../Libraries/libscpi/src/utils.c ****             r2--;
 3147              	 .loc 1 972 0
 3148 01d8 FB6A     	 ldr r3,[r7,#44]
 3149 01da 013B     	 subs r3,r3,#1
 3150 01dc FB62     	 str r3,[r7,#44]
 3151              	.L207:
 970:../Libraries/libscpi/src/utils.c ****         while ((fj = arg * 10) < 1) {
 3152              	 .loc 1 970 0
 3153 01de D7E90201 	 ldrd r0,[r7,#8]
 3154 01e2 4FF00002 	 mov r2,#0
 3155 01e6 4C4B     	 ldr r3,.L223+8
 3156 01e8 FFF7FEFF 	 bl __aeabi_dmul
 3157 01ec 0246     	 mov r2,r0
 3158 01ee 0B46     	 mov r3,r1
 3159 01f0 C7E90423 	 strd r2,[r7,#16]
 3160 01f4 D7E90423 	 ldrd r2,[r7,#16]
 3161 01f8 1046     	 mov r0,r2
 3162 01fa 1946     	 mov r1,r3
 3163 01fc 4FF00002 	 mov r2,#0
 3164 0200 464B     	 ldr r3,.L223+12
 3165 0202 FFF7FEFF 	 bl __aeabi_dcmplt
 3166 0206 0346     	 mov r3,r0
 3167 0208 002B     	 cmp r3,#0
 3168 020a E1D1     	 bne .L208
 3169              	.L205:
 973:../Libraries/libscpi/src/utils.c ****         }
 974:../Libraries/libscpi/src/utils.c ****     }
 975:../Libraries/libscpi/src/utils.c ****     w2 = ndigits;
 3170              	 .loc 1 975 0
 3171 020c 7B68     	 ldr r3,[r7,#4]
 3172 020e 7B62     	 str r3,[r7,#36]
 976:../Libraries/libscpi/src/utils.c ****     *decpt = r2;
 3173              	 .loc 1 976 0
 3174 0210 3B68     	 ldr r3,[r7]
 3175 0212 FA6A     	 ldr r2,[r7,#44]
 3176 0214 1A60     	 str r2,[r3]
 977:../Libraries/libscpi/src/utils.c ****     if (w2 < 0) {
 3177              	 .loc 1 977 0
 3178 0216 7B6A     	 ldr r3,[r7,#36]
 3179 0218 002B     	 cmp r3,#0
 3180 021a 04DA     	 bge .L209
 978:../Libraries/libscpi/src/utils.c ****         buf[0] = '\0';
 3181              	 .loc 1 978 0
 3182 021c 7B6C     	 ldr r3,[r7,#68]
 3183 021e 0022     	 movs r2,#0
 3184 0220 1A70     	 strb r2,[r3]
 979:../Libraries/libscpi/src/utils.c ****         return buf;
 3185              	 .loc 1 979 0
 3186 0222 7B6C     	 ldr r3,[r7,#68]
 3187 0224 6FE0     	 b .L218
 3188              	.L209:
 980:../Libraries/libscpi/src/utils.c ****     }
 981:../Libraries/libscpi/src/utils.c ****     while (w1 <= w2 && w1 < (int) bufsize) {
 3189              	 .loc 1 981 0
 3190 0226 24E0     	 b .L211
 3191              	.L213:
 982:../Libraries/libscpi/src/utils.c ****         arg *= 10;
 3192              	 .loc 1 982 0
 3193 0228 D7E90201 	 ldrd r0,[r7,#8]
 3194 022c 4FF00002 	 mov r2,#0
 3195 0230 394B     	 ldr r3,.L223+8
 3196 0232 FFF7FEFF 	 bl __aeabi_dmul
 3197 0236 0246     	 mov r2,r0
 3198 0238 0B46     	 mov r3,r1
 3199 023a C7E90223 	 strd r2,[r7,#8]
 983:../Libraries/libscpi/src/utils.c ****         arg = modf(arg, &fj);
 3200              	 .loc 1 983 0
 3201 023e 07F11003 	 add r3,r7,#16
 3202 0242 D7E90201 	 ldrd r0,[r7,#8]
 3203 0246 1A46     	 mov r2,r3
 3204 0248 FFF7FEFF 	 bl modf
 3205 024c C7E90201 	 strd r0,[r7,#8]
 984:../Libraries/libscpi/src/utils.c ****         buf[w1++] = (int) fj + '0';
 3206              	 .loc 1 984 0
 3207 0250 BB6A     	 ldr r3,[r7,#40]
 3208 0252 5A1C     	 adds r2,r3,#1
 3209 0254 BA62     	 str r2,[r7,#40]
 3210 0256 1A46     	 mov r2,r3
 3211 0258 7B6C     	 ldr r3,[r7,#68]
 3212 025a 9C18     	 adds r4,r3,r2
 3213 025c D7E90423 	 ldrd r2,[r7,#16]
 3214 0260 1046     	 mov r0,r2
 3215 0262 1946     	 mov r1,r3
 3216 0264 FFF7FEFF 	 bl __aeabi_d2iz
 3217 0268 0346     	 mov r3,r0
 3218 026a DBB2     	 uxtb r3,r3
 3219 026c 3033     	 adds r3,r3,#48
 3220 026e DBB2     	 uxtb r3,r3
 3221 0270 2370     	 strb r3,[r4]
 3222              	.L211:
 981:../Libraries/libscpi/src/utils.c ****         arg *= 10;
 3223              	 .loc 1 981 0
 3224 0272 BA6A     	 ldr r2,[r7,#40]
 3225 0274 7B6A     	 ldr r3,[r7,#36]
 3226 0276 9A42     	 cmp r2,r3
 3227 0278 03DC     	 bgt .L212
 981:../Libraries/libscpi/src/utils.c ****         arg *= 10;
 3228              	 .loc 1 981 0 is_stmt 0 discriminator 1
 3229 027a BA6C     	 ldr r2,[r7,#72]
 3230 027c BB6A     	 ldr r3,[r7,#40]
 3231 027e 9A42     	 cmp r2,r3
 3232 0280 D2DC     	 bgt .L213
 3233              	.L212:
 985:../Libraries/libscpi/src/utils.c ****     }
 986:../Libraries/libscpi/src/utils.c ****     if (w2 >= (int) bufsize) {
 3234              	 .loc 1 986 0 is_stmt 1
 3235 0282 BA6C     	 ldr r2,[r7,#72]
 3236 0284 7B6A     	 ldr r3,[r7,#36]
 3237 0286 9A42     	 cmp r2,r3
 3238 0288 07DC     	 bgt .L214
 987:../Libraries/libscpi/src/utils.c ****         buf[bufsize - 1] = '\0';
 3239              	 .loc 1 987 0
 3240 028a BB6C     	 ldr r3,[r7,#72]
 3241 028c 013B     	 subs r3,r3,#1
 3242 028e 7A6C     	 ldr r2,[r7,#68]
 3243 0290 1344     	 add r3,r3,r2
 3244 0292 0022     	 movs r2,#0
 3245 0294 1A70     	 strb r2,[r3]
 988:../Libraries/libscpi/src/utils.c ****         return buf;
 3246              	 .loc 1 988 0
 3247 0296 7B6C     	 ldr r3,[r7,#68]
 3248 0298 35E0     	 b .L218
 3249              	.L214:
 989:../Libraries/libscpi/src/utils.c ****     }
 990:../Libraries/libscpi/src/utils.c ****     w1 = w2;
 3250              	 .loc 1 990 0
 3251 029a 7B6A     	 ldr r3,[r7,#36]
 3252 029c BB62     	 str r3,[r7,#40]
 991:../Libraries/libscpi/src/utils.c ****     buf[w2] += 5;
 3253              	 .loc 1 991 0
 3254 029e 7B6A     	 ldr r3,[r7,#36]
 3255 02a0 7A6C     	 ldr r2,[r7,#68]
 3256 02a2 1344     	 add r3,r3,r2
 3257 02a4 7A6A     	 ldr r2,[r7,#36]
 3258 02a6 796C     	 ldr r1,[r7,#68]
 3259 02a8 0A44     	 add r2,r2,r1
 3260 02aa 1278     	 ldrb r2,[r2]
 3261 02ac 0532     	 adds r2,r2,#5
 3262 02ae D2B2     	 uxtb r2,r2
 3263 02b0 1A70     	 strb r2,[r3]
 992:../Libraries/libscpi/src/utils.c ****     while (buf[w2] > '9') {
 3264              	 .loc 1 992 0
 3265 02b2 1CE0     	 b .L215
 3266              	.L217:
 993:../Libraries/libscpi/src/utils.c ****         buf[w2] = '0';
 3267              	 .loc 1 993 0
 3268 02b4 7B6A     	 ldr r3,[r7,#36]
 3269 02b6 7A6C     	 ldr r2,[r7,#68]
 3270 02b8 1344     	 add r3,r3,r2
 3271 02ba 3022     	 movs r2,#48
 3272 02bc 1A70     	 strb r2,[r3]
 994:../Libraries/libscpi/src/utils.c ****         if (w2 > 0) {
 3273              	 .loc 1 994 0
 3274 02be 7B6A     	 ldr r3,[r7,#36]
 3275 02c0 002B     	 cmp r3,#0
 3276 02c2 0ADD     	 ble .L216
 995:../Libraries/libscpi/src/utils.c ****             ++buf[--w2];
 3277              	 .loc 1 995 0
 3278 02c4 7B6A     	 ldr r3,[r7,#36]
 3279 02c6 013B     	 subs r3,r3,#1
 3280 02c8 7B62     	 str r3,[r7,#36]
 3281 02ca 7B6A     	 ldr r3,[r7,#36]
 3282 02cc 7A6C     	 ldr r2,[r7,#68]
 3283 02ce 1344     	 add r3,r3,r2
 3284 02d0 1A78     	 ldrb r2,[r3]
 3285 02d2 0132     	 adds r2,r2,#1
 3286 02d4 D2B2     	 uxtb r2,r2
 3287 02d6 1A70     	 strb r2,[r3]
 3288 02d8 09E0     	 b .L215
 3289              	.L216:
 996:../Libraries/libscpi/src/utils.c ****         } else {
 997:../Libraries/libscpi/src/utils.c ****             buf[w2] = '1';
 3290              	 .loc 1 997 0
 3291 02da 7B6A     	 ldr r3,[r7,#36]
 3292 02dc 7A6C     	 ldr r2,[r7,#68]
 3293 02de 1344     	 add r3,r3,r2
 3294 02e0 3122     	 movs r2,#49
 3295 02e2 1A70     	 strb r2,[r3]
 998:../Libraries/libscpi/src/utils.c ****             (*decpt)++;
 3296              	 .loc 1 998 0
 3297 02e4 3B68     	 ldr r3,[r7]
 3298 02e6 1B68     	 ldr r3,[r3]
 3299 02e8 5A1C     	 adds r2,r3,#1
 3300 02ea 3B68     	 ldr r3,[r7]
 3301 02ec 1A60     	 str r2,[r3]
 3302              	.L215:
 992:../Libraries/libscpi/src/utils.c ****         buf[w2] = '0';
 3303              	 .loc 1 992 0
 3304 02ee 7B6A     	 ldr r3,[r7,#36]
 3305 02f0 7A6C     	 ldr r2,[r7,#68]
 3306 02f2 1344     	 add r3,r3,r2
 3307 02f4 1B78     	 ldrb r3,[r3]
 3308 02f6 392B     	 cmp r3,#57
 3309 02f8 DCD8     	 bhi .L217
 999:../Libraries/libscpi/src/utils.c ****         }
1000:../Libraries/libscpi/src/utils.c ****     }
1001:../Libraries/libscpi/src/utils.c ****     buf[w1] = '\0';
 3310              	 .loc 1 1001 0
 3311 02fa BB6A     	 ldr r3,[r7,#40]
 3312 02fc 7A6C     	 ldr r2,[r7,#68]
 3313 02fe 1344     	 add r3,r3,r2
 3314 0300 0022     	 movs r2,#0
 3315 0302 1A70     	 strb r2,[r3]
1002:../Libraries/libscpi/src/utils.c ****     return buf;
 3316              	 .loc 1 1002 0
 3317 0304 7B6C     	 ldr r3,[r7,#68]
 3318              	.L218:
1003:../Libraries/libscpi/src/utils.c **** }
 3319              	 .loc 1 1003 0 discriminator 1
 3320 0306 1846     	 mov r0,r3
 3321 0308 3437     	 adds r7,r7,#52
 3322              	.LCFI139:
 3323              	 .cfi_def_cfa_offset 12
 3324 030a BD46     	 mov sp,r7
 3325              	.LCFI140:
 3326              	 .cfi_def_cfa_register 13
 3327              	 
 3328 030c 90BD     	 pop {r4,r7,pc}
 3329              	.L224:
 3330 030e 00BF     	 .align 3
 3331              	.L223:
 3332 0310 B81E85EB 	 .word -343597384
 3333 0314 51B89E3F 	 .word 1067366481
 3334 0318 00002440 	 .word 1076101120
 3335 031c 0000F03F 	 .word 1072693248
 3336              	 .cfi_endproc
 3337              	.LFE26:
 3339              	 .section .rodata
 3340 002b 00       	 .align 2
 3341              	.LC5:
 3342 002c 4E414E00 	 .ascii "NAN\000"
 3343              	 .align 2
 3344              	.LC6:
 3345 0030 6E616E00 	 .ascii "nan\000"
 3346              	 .align 2
 3347              	.LC7:
 3348 0034 494E4600 	 .ascii "INF\000"
 3349              	 .align 2
 3350              	.LC8:
 3351 0038 696E6600 	 .ascii "inf\000"
 3352              	 .section .text.SCPI_dtostre,"ax",%progbits
 3353              	 .align 2
 3354              	 .global SCPI_dtostre
 3355              	 .thumb
 3356              	 .thumb_func
 3358              	SCPI_dtostre:
 3359              	.LFB27:
1004:../Libraries/libscpi/src/utils.c **** 
1005:../Libraries/libscpi/src/utils.c **** #define SCPI_DTOSTRE_BUFFER_SIZE 32
1006:../Libraries/libscpi/src/utils.c **** 
1007:../Libraries/libscpi/src/utils.c **** char * SCPI_dtostre(double __val, char * __s, size_t __ssize, unsigned char __prec, unsigned char _
 3360              	 .loc 1 1007 0
 3361              	 .cfi_startproc
 3362              	 
 3363              	 
 3364 0000 90B5     	 push {r4,r7,lr}
 3365              	.LCFI141:
 3366              	 .cfi_def_cfa_offset 12
 3367              	 .cfi_offset 4,-12
 3368              	 .cfi_offset 7,-8
 3369              	 .cfi_offset 14,-4
 3370 0002 95B0     	 sub sp,sp,#84
 3371              	.LCFI142:
 3372              	 .cfi_def_cfa_offset 96
 3373 0004 04AF     	 add r7,sp,#16
 3374              	.LCFI143:
 3375              	 .cfi_def_cfa 7,80
 3376 0006 C7E90201 	 strd r0,[r7,#8]
 3377 000a 7A60     	 str r2,[r7,#4]
 3378 000c 3B60     	 str r3,[r7]
1008:../Libraries/libscpi/src/utils.c ****     char buffer[SCPI_DTOSTRE_BUFFER_SIZE];
1009:../Libraries/libscpi/src/utils.c **** 
1010:../Libraries/libscpi/src/utils.c ****     int sign = SCPIDEFINE_signbit(__val);
 3379              	 .loc 1 1010 0
 3380 000e D7E90201 	 ldrd r0,[r7,#8]
 3381 0012 FFF7FEFF 	 bl __signbitd
 3382 0016 0346     	 mov r3,r0
 3383 0018 7B61     	 str r3,[r7,#20]
1011:../Libraries/libscpi/src/utils.c ****     char * s = buffer;
 3384              	 .loc 1 1011 0
 3385 001a 07F11803 	 add r3,r7,#24
 3386 001e FB63     	 str r3,[r7,#60]
1012:../Libraries/libscpi/src/utils.c ****     int decpt;
1013:../Libraries/libscpi/src/utils.c ****     if (sign) {
 3387              	 .loc 1 1013 0
 3388 0020 7B69     	 ldr r3,[r7,#20]
 3389 0022 002B     	 cmp r3,#0
 3390 0024 0CD0     	 beq .L226
1014:../Libraries/libscpi/src/utils.c ****         __val = -__val;
 3391              	 .loc 1 1014 0
 3392 0026 BB68     	 ldr r3,[r7,#8]
 3393 0028 BB60     	 str r3,[r7,#8]
 3394 002a FB68     	 ldr r3,[r7,#12]
 3395 002c 83F00043 	 eor r3,r3,#-2147483648
 3396 0030 FB60     	 str r3,[r7,#12]
1015:../Libraries/libscpi/src/utils.c ****         s[0] = '-';
 3397              	 .loc 1 1015 0
 3398 0032 FB6B     	 ldr r3,[r7,#60]
 3399 0034 2D22     	 movs r2,#45
 3400 0036 1A70     	 strb r2,[r3]
1016:../Libraries/libscpi/src/utils.c ****         s++;
 3401              	 .loc 1 1016 0
 3402 0038 FB6B     	 ldr r3,[r7,#60]
 3403 003a 0133     	 adds r3,r3,#1
 3404 003c FB63     	 str r3,[r7,#60]
 3405 003e 21E0     	 b .L227
 3406              	.L226:
1017:../Libraries/libscpi/src/utils.c ****     } else if (!SCPIDEFINE_isnan(__val)) {
 3407              	 .loc 1 1017 0
 3408 0040 D7E90201 	 ldrd r0,[r7,#8]
 3409 0044 FFF7FEFF 	 bl __fpclassifyd
 3410 0048 0346     	 mov r3,r0
 3411 004a 002B     	 cmp r3,#0
 3412 004c 1AD0     	 beq .L227
1018:../Libraries/libscpi/src/utils.c ****         if (SCPI_DTOSTRE_PLUS_SIGN & __flags) {
 3413              	 .loc 1 1018 0
 3414 004e 97F85430 	 ldrb r3,[r7,#84]
 3415 0052 03F00403 	 and r3,r3,#4
 3416 0056 DBB2     	 uxtb r3,r3
 3417 0058 002B     	 cmp r3,#0
 3418 005a 06D0     	 beq .L228
1019:../Libraries/libscpi/src/utils.c ****             s[0] = '+';
 3419              	 .loc 1 1019 0
 3420 005c FB6B     	 ldr r3,[r7,#60]
 3421 005e 2B22     	 movs r2,#43
 3422 0060 1A70     	 strb r2,[r3]
1020:../Libraries/libscpi/src/utils.c ****             s++;
 3423              	 .loc 1 1020 0
 3424 0062 FB6B     	 ldr r3,[r7,#60]
 3425 0064 0133     	 adds r3,r3,#1
 3426 0066 FB63     	 str r3,[r7,#60]
 3427 0068 0CE0     	 b .L227
 3428              	.L228:
1021:../Libraries/libscpi/src/utils.c ****         } else if (SCPI_DTOSTRE_ALWAYS_SIGN & __flags) {
 3429              	 .loc 1 1021 0
 3430 006a 97F85430 	 ldrb r3,[r7,#84]
 3431 006e 03F00203 	 and r3,r3,#2
 3432 0072 DBB2     	 uxtb r3,r3
 3433 0074 002B     	 cmp r3,#0
 3434 0076 05D0     	 beq .L227
1022:../Libraries/libscpi/src/utils.c ****             s[0] = ' ';
 3435              	 .loc 1 1022 0
 3436 0078 FB6B     	 ldr r3,[r7,#60]
 3437 007a 2022     	 movs r2,#32
 3438 007c 1A70     	 strb r2,[r3]
1023:../Libraries/libscpi/src/utils.c ****             s++;
 3439              	 .loc 1 1023 0
 3440 007e FB6B     	 ldr r3,[r7,#60]
 3441 0080 0133     	 adds r3,r3,#1
 3442 0082 FB63     	 str r3,[r7,#60]
 3443              	.L227:
 3444              	.LBB7:
1024:../Libraries/libscpi/src/utils.c ****         }
1025:../Libraries/libscpi/src/utils.c ****     }
1026:../Libraries/libscpi/src/utils.c **** 
1027:../Libraries/libscpi/src/utils.c ****     if (!SCPIDEFINE_isfinite(__val)) {
 3445              	 .loc 1 1027 0
 3446 0084 D7E90201 	 ldrd r0,[r7,#8]
 3447 0088 FFF7FEFF 	 bl __fpclassifyd
 3448 008c B863     	 str r0,[r7,#56]
 3449 008e BB6B     	 ldr r3,[r7,#56]
 3450 0090 012B     	 cmp r3,#1
 3451 0092 04D0     	 beq .L229
 3452              	 .loc 1 1027 0 is_stmt 0 discriminator 1
 3453 0094 BB6B     	 ldr r3,[r7,#56]
 3454 0096 002B     	 cmp r3,#0
 3455 0098 01D0     	 beq .L229
 3456              	 .loc 1 1027 0 discriminator 3
 3457 009a 0123     	 movs r3,#1
 3458 009c 00E0     	 b .L230
 3459              	.L229:
 3460              	 .loc 1 1027 0 discriminator 4
 3461 009e 0023     	 movs r3,#0
 3462              	.L230:
 3463              	.LBE7:
 3464              	 .loc 1 1027 0 discriminator 6
 3465 00a0 002B     	 cmp r3,#0
 3466 00a2 2ED1     	 bne .L231
1028:../Libraries/libscpi/src/utils.c ****         if (SCPIDEFINE_isnan(__val)) {
 3467              	 .loc 1 1028 0 is_stmt 1
 3468 00a4 D7E90201 	 ldrd r0,[r7,#8]
 3469 00a8 FFF7FEFF 	 bl __fpclassifyd
 3470 00ac 0346     	 mov r3,r0
 3471 00ae 002B     	 cmp r3,#0
 3472 00b0 0CD1     	 bne .L232
1029:../Libraries/libscpi/src/utils.c ****             strcpy(s, (__flags & SCPI_DTOSTRE_UPPERCASE) ? "NAN" : "nan");
 3473              	 .loc 1 1029 0
 3474 00b2 97F85430 	 ldrb r3,[r7,#84]
 3475 00b6 03F00103 	 and r3,r3,#1
 3476 00ba 002B     	 cmp r3,#0
 3477 00bc 01D0     	 beq .L233
 3478              	 .loc 1 1029 0 is_stmt 0 discriminator 1
 3479 00be 7A4B     	 ldr r3,.L250
 3480 00c0 00E0     	 b .L234
 3481              	.L233:
 3482              	 .loc 1 1029 0 discriminator 2
 3483 00c2 7A4B     	 ldr r3,.L250+4
 3484              	.L234:
 3485              	 .loc 1 1029 0 discriminator 4
 3486 00c4 FA6B     	 ldr r2,[r7,#60]
 3487 00c6 1B68     	 ldr r3,[r3]
 3488 00c8 1360     	 str r3,[r2]
 3489 00ca 0BE0     	 b .L235
 3490              	.L232:
1030:../Libraries/libscpi/src/utils.c ****         } else {
1031:../Libraries/libscpi/src/utils.c ****             strcpy(s, (__flags & SCPI_DTOSTRE_UPPERCASE) ? "INF" : "inf");
 3491              	 .loc 1 1031 0 is_stmt 1
 3492 00cc 97F85430 	 ldrb r3,[r7,#84]
 3493 00d0 03F00103 	 and r3,r3,#1
 3494 00d4 002B     	 cmp r3,#0
 3495 00d6 01D0     	 beq .L236
 3496              	 .loc 1 1031 0 is_stmt 0 discriminator 1
 3497 00d8 754B     	 ldr r3,.L250+8
 3498 00da 00E0     	 b .L237
 3499              	.L236:
 3500              	 .loc 1 1031 0 discriminator 2
 3501 00dc 754B     	 ldr r3,.L250+12
 3502              	.L237:
 3503              	 .loc 1 1031 0 discriminator 4
 3504 00de FA6B     	 ldr r2,[r7,#60]
 3505 00e0 1B68     	 ldr r3,[r3]
 3506 00e2 1360     	 str r3,[r2]
 3507              	.L235:
1032:../Libraries/libscpi/src/utils.c ****         }
1033:../Libraries/libscpi/src/utils.c ****         strncpy(__s, buffer, __ssize);
 3508              	 .loc 1 1033 0 is_stmt 1
 3509 00e4 07F11803 	 add r3,r7,#24
 3510 00e8 7868     	 ldr r0,[r7,#4]
 3511 00ea 1946     	 mov r1,r3
 3512 00ec 3A68     	 ldr r2,[r7]
 3513 00ee FFF7FEFF 	 bl strncpy
1034:../Libraries/libscpi/src/utils.c ****         __s[__ssize - 1] = '\0';
 3514              	 .loc 1 1034 0
 3515 00f2 3B68     	 ldr r3,[r7]
 3516 00f4 013B     	 subs r3,r3,#1
 3517 00f6 7A68     	 ldr r2,[r7,#4]
 3518 00f8 1344     	 add r3,r3,r2
 3519 00fa 0022     	 movs r2,#0
 3520 00fc 1A70     	 strb r2,[r3]
1035:../Libraries/libscpi/src/utils.c ****         return __s;
 3521              	 .loc 1 1035 0
 3522 00fe 7B68     	 ldr r3,[r7,#4]
 3523 0100 CDE0     	 b .L249
 3524              	.L231:
1036:../Libraries/libscpi/src/utils.c ****     }
1037:../Libraries/libscpi/src/utils.c **** 
1038:../Libraries/libscpi/src/utils.c ****     scpi_ecvt(__val, __prec, &decpt, &sign, s, SCPI_DTOSTRE_BUFFER_SIZE - 1);
 3525              	 .loc 1 1038 0
 3526 0102 97F85020 	 ldrb r2,[r7,#80]
 3527 0106 07F11004 	 add r4,r7,#16
 3528 010a 07F11403 	 add r3,r7,#20
 3529 010e 0093     	 str r3,[sp]
 3530 0110 FB6B     	 ldr r3,[r7,#60]
 3531 0112 0193     	 str r3,[sp,#4]
 3532 0114 1F23     	 movs r3,#31
 3533 0116 0293     	 str r3,[sp,#8]
 3534 0118 D7E90201 	 ldrd r0,[r7,#8]
 3535 011c 2346     	 mov r3,r4
 3536 011e FFF7FEFF 	 bl scpi_ecvt
1039:../Libraries/libscpi/src/utils.c ****     if (decpt > 1 && decpt <= __prec) {
 3537              	 .loc 1 1039 0
 3538 0122 3B69     	 ldr r3,[r7,#16]
 3539 0124 012B     	 cmp r3,#1
 3540 0126 1DDD     	 ble .L239
 3541              	 .loc 1 1039 0 is_stmt 0 discriminator 1
 3542 0128 97F85020 	 ldrb r2,[r7,#80]
 3543 012c 3B69     	 ldr r3,[r7,#16]
 3544 012e 9A42     	 cmp r2,r3
 3545 0130 18DB     	 blt .L239
1040:../Libraries/libscpi/src/utils.c ****         memmove(s + decpt + 1, s + decpt, __prec + 1 - decpt);
 3546              	 .loc 1 1040 0 is_stmt 1
 3547 0132 3B69     	 ldr r3,[r7,#16]
 3548 0134 0133     	 adds r3,r3,#1
 3549 0136 FA6B     	 ldr r2,[r7,#60]
 3550 0138 D018     	 adds r0,r2,r3
 3551 013a 3B69     	 ldr r3,[r7,#16]
 3552 013c 1A46     	 mov r2,r3
 3553 013e FB6B     	 ldr r3,[r7,#60]
 3554 0140 9918     	 adds r1,r3,r2
 3555 0142 97F85030 	 ldrb r3,[r7,#80]
 3556 0146 5A1C     	 adds r2,r3,#1
 3557 0148 3B69     	 ldr r3,[r7,#16]
 3558 014a D31A     	 subs r3,r2,r3
 3559 014c 1A46     	 mov r2,r3
 3560 014e FFF7FEFF 	 bl memmove
1041:../Libraries/libscpi/src/utils.c ****         s[decpt] = '.';
 3561              	 .loc 1 1041 0
 3562 0152 3B69     	 ldr r3,[r7,#16]
 3563 0154 1A46     	 mov r2,r3
 3564 0156 FB6B     	 ldr r3,[r7,#60]
 3565 0158 1344     	 add r3,r3,r2
 3566 015a 2E22     	 movs r2,#46
 3567 015c 1A70     	 strb r2,[r3]
1042:../Libraries/libscpi/src/utils.c ****         decpt = 0;
 3568              	 .loc 1 1042 0
 3569 015e 0023     	 movs r3,#0
 3570 0160 3B61     	 str r3,[r7,#16]
 3571 0162 37E0     	 b .L240
 3572              	.L239:
1043:../Libraries/libscpi/src/utils.c ****     } else if (decpt > -4 && decpt <= 0) {
 3573              	 .loc 1 1043 0
 3574 0164 3B69     	 ldr r3,[r7,#16]
 3575 0166 13F1030F 	 cmn r3,#3
 3576 016a 20DB     	 blt .L241
 3577              	 .loc 1 1043 0 is_stmt 0 discriminator 1
 3578 016c 3B69     	 ldr r3,[r7,#16]
 3579 016e 002B     	 cmp r3,#0
 3580 0170 1DDC     	 bgt .L241
1044:../Libraries/libscpi/src/utils.c ****         decpt = -decpt + 1;
 3581              	 .loc 1 1044 0 is_stmt 1
 3582 0172 3B69     	 ldr r3,[r7,#16]
 3583 0174 C3F10103 	 rsb r3,r3,#1
 3584 0178 3B61     	 str r3,[r7,#16]
1045:../Libraries/libscpi/src/utils.c ****         memmove(s + decpt + 1, s, __prec + 1);
 3585              	 .loc 1 1045 0
 3586 017a 3B69     	 ldr r3,[r7,#16]
 3587 017c 0133     	 adds r3,r3,#1
 3588 017e FA6B     	 ldr r2,[r7,#60]
 3589 0180 1A44     	 add r2,r2,r3
 3590 0182 97F85030 	 ldrb r3,[r7,#80]
 3591 0186 0133     	 adds r3,r3,#1
 3592 0188 1046     	 mov r0,r2
 3593 018a F96B     	 ldr r1,[r7,#60]
 3594 018c 1A46     	 mov r2,r3
 3595 018e FFF7FEFF 	 bl memmove
1046:../Libraries/libscpi/src/utils.c ****         memset(s, '0', decpt + 1);
 3596              	 .loc 1 1046 0
 3597 0192 3B69     	 ldr r3,[r7,#16]
 3598 0194 0133     	 adds r3,r3,#1
 3599 0196 F86B     	 ldr r0,[r7,#60]
 3600 0198 3021     	 movs r1,#48
 3601 019a 1A46     	 mov r2,r3
 3602 019c FFF7FEFF 	 bl memset
1047:../Libraries/libscpi/src/utils.c ****         s[1] = '.';
 3603              	 .loc 1 1047 0
 3604 01a0 FB6B     	 ldr r3,[r7,#60]
 3605 01a2 0133     	 adds r3,r3,#1
 3606 01a4 2E22     	 movs r2,#46
 3607 01a6 1A70     	 strb r2,[r3]
1048:../Libraries/libscpi/src/utils.c ****         decpt = 0;
 3608              	 .loc 1 1048 0
 3609 01a8 0023     	 movs r3,#0
 3610 01aa 3B61     	 str r3,[r7,#16]
 3611 01ac 12E0     	 b .L240
 3612              	.L241:
1049:../Libraries/libscpi/src/utils.c ****     } else {
1050:../Libraries/libscpi/src/utils.c ****         memmove(s + 2, s + 1, __prec + 1);
 3613              	 .loc 1 1050 0
 3614 01ae FB6B     	 ldr r3,[r7,#60]
 3615 01b0 991C     	 adds r1,r3,#2
 3616 01b2 FB6B     	 ldr r3,[r7,#60]
 3617 01b4 5A1C     	 adds r2,r3,#1
 3618 01b6 97F85030 	 ldrb r3,[r7,#80]
 3619 01ba 0133     	 adds r3,r3,#1
 3620 01bc 0846     	 mov r0,r1
 3621 01be 1146     	 mov r1,r2
 3622 01c0 1A46     	 mov r2,r3
 3623 01c2 FFF7FEFF 	 bl memmove
1051:../Libraries/libscpi/src/utils.c ****         s[1] = '.';
 3624              	 .loc 1 1051 0
 3625 01c6 FB6B     	 ldr r3,[r7,#60]
 3626 01c8 0133     	 adds r3,r3,#1
 3627 01ca 2E22     	 movs r2,#46
 3628 01cc 1A70     	 strb r2,[r3]
1052:../Libraries/libscpi/src/utils.c ****         decpt--;
 3629              	 .loc 1 1052 0
 3630 01ce 3B69     	 ldr r3,[r7,#16]
 3631 01d0 013B     	 subs r3,r3,#1
 3632 01d2 3B61     	 str r3,[r7,#16]
 3633              	.L240:
1053:../Libraries/libscpi/src/utils.c ****     }
1054:../Libraries/libscpi/src/utils.c **** 
1055:../Libraries/libscpi/src/utils.c ****     s = &s[__prec];
 3634              	 .loc 1 1055 0
 3635 01d4 97F85030 	 ldrb r3,[r7,#80]
 3636 01d8 FA6B     	 ldr r2,[r7,#60]
 3637 01da 1344     	 add r3,r3,r2
 3638 01dc FB63     	 str r3,[r7,#60]
1056:../Libraries/libscpi/src/utils.c ****     while (s[0] == '0') {
 3639              	 .loc 1 1056 0
 3640 01de 05E0     	 b .L242
 3641              	.L243:
1057:../Libraries/libscpi/src/utils.c ****         s[0] = 0;
 3642              	 .loc 1 1057 0
 3643 01e0 FB6B     	 ldr r3,[r7,#60]
 3644 01e2 0022     	 movs r2,#0
 3645 01e4 1A70     	 strb r2,[r3]
1058:../Libraries/libscpi/src/utils.c ****         s--;
 3646              	 .loc 1 1058 0
 3647 01e6 FB6B     	 ldr r3,[r7,#60]
 3648 01e8 013B     	 subs r3,r3,#1
 3649 01ea FB63     	 str r3,[r7,#60]
 3650              	.L242:
1056:../Libraries/libscpi/src/utils.c ****     while (s[0] == '0') {
 3651              	 .loc 1 1056 0
 3652 01ec FB6B     	 ldr r3,[r7,#60]
 3653 01ee 1B78     	 ldrb r3,[r3]
 3654 01f0 302B     	 cmp r3,#48
 3655 01f2 F5D0     	 beq .L243
1059:../Libraries/libscpi/src/utils.c ****     }
1060:../Libraries/libscpi/src/utils.c ****     if (s[0] == '.') {
 3656              	 .loc 1 1060 0
 3657 01f4 FB6B     	 ldr r3,[r7,#60]
 3658 01f6 1B78     	 ldrb r3,[r3]
 3659 01f8 2E2B     	 cmp r3,#46
 3660 01fa 05D1     	 bne .L244
1061:../Libraries/libscpi/src/utils.c ****         s[0] = 0;
 3661              	 .loc 1 1061 0
 3662 01fc FB6B     	 ldr r3,[r7,#60]
 3663 01fe 0022     	 movs r2,#0
 3664 0200 1A70     	 strb r2,[r3]
1062:../Libraries/libscpi/src/utils.c ****         s--;
 3665              	 .loc 1 1062 0
 3666 0202 FB6B     	 ldr r3,[r7,#60]
 3667 0204 013B     	 subs r3,r3,#1
 3668 0206 FB63     	 str r3,[r7,#60]
 3669              	.L244:
1063:../Libraries/libscpi/src/utils.c ****     }
1064:../Libraries/libscpi/src/utils.c **** 
1065:../Libraries/libscpi/src/utils.c ****     if (decpt != 0) {
 3670              	 .loc 1 1065 0
 3671 0208 3B69     	 ldr r3,[r7,#16]
 3672 020a 002B     	 cmp r3,#0
 3673 020c 39D0     	 beq .L245
1066:../Libraries/libscpi/src/utils.c ****         s++;
 3674              	 .loc 1 1066 0
 3675 020e FB6B     	 ldr r3,[r7,#60]
 3676 0210 0133     	 adds r3,r3,#1
 3677 0212 FB63     	 str r3,[r7,#60]
1067:../Libraries/libscpi/src/utils.c ****         s[0] = 'e';
 3678              	 .loc 1 1067 0
 3679 0214 FB6B     	 ldr r3,[r7,#60]
 3680 0216 6522     	 movs r2,#101
 3681 0218 1A70     	 strb r2,[r3]
1068:../Libraries/libscpi/src/utils.c ****         s++;
 3682              	 .loc 1 1068 0
 3683 021a FB6B     	 ldr r3,[r7,#60]
 3684 021c 0133     	 adds r3,r3,#1
 3685 021e FB63     	 str r3,[r7,#60]
1069:../Libraries/libscpi/src/utils.c ****         if (decpt != 0) {
 3686              	 .loc 1 1069 0
 3687 0220 3B69     	 ldr r3,[r7,#16]
 3688 0222 002B     	 cmp r3,#0
 3689 0224 11D0     	 beq .L246
1070:../Libraries/libscpi/src/utils.c ****             if (decpt > 0) {
 3690              	 .loc 1 1070 0
 3691 0226 3B69     	 ldr r3,[r7,#16]
 3692 0228 002B     	 cmp r3,#0
 3693 022a 02DD     	 ble .L247
1071:../Libraries/libscpi/src/utils.c ****                 s[0] = '+';
 3694              	 .loc 1 1071 0
 3695 022c FB6B     	 ldr r3,[r7,#60]
 3696 022e 2B22     	 movs r2,#43
 3697 0230 1A70     	 strb r2,[r3]
 3698              	.L247:
1072:../Libraries/libscpi/src/utils.c ****             }
1073:../Libraries/libscpi/src/utils.c ****             if (decpt < 0) {
 3699              	 .loc 1 1073 0
 3700 0232 3B69     	 ldr r3,[r7,#16]
 3701 0234 002B     	 cmp r3,#0
 3702 0236 05DA     	 bge .L248
1074:../Libraries/libscpi/src/utils.c ****                 s[0] = '-';
 3703              	 .loc 1 1074 0
 3704 0238 FB6B     	 ldr r3,[r7,#60]
 3705 023a 2D22     	 movs r2,#45
 3706 023c 1A70     	 strb r2,[r3]
1075:../Libraries/libscpi/src/utils.c ****                 decpt = -decpt;
 3707              	 .loc 1 1075 0
 3708 023e 3B69     	 ldr r3,[r7,#16]
 3709 0240 5B42     	 negs r3,r3
 3710 0242 3B61     	 str r3,[r7,#16]
 3711              	.L248:
1076:../Libraries/libscpi/src/utils.c ****             }
1077:../Libraries/libscpi/src/utils.c ****             s++;
 3712              	 .loc 1 1077 0
 3713 0244 FB6B     	 ldr r3,[r7,#60]
 3714 0246 0133     	 adds r3,r3,#1
 3715 0248 FB63     	 str r3,[r7,#60]
 3716              	.L246:
1078:../Libraries/libscpi/src/utils.c ****         }
1079:../Libraries/libscpi/src/utils.c ****         UInt32ToStrBaseSign(decpt, s, 5, 10, 0);
 3717              	 .loc 1 1079 0
 3718 024a 3B69     	 ldr r3,[r7,#16]
 3719 024c 1A46     	 mov r2,r3
 3720 024e 0023     	 movs r3,#0
 3721 0250 0093     	 str r3,[sp]
 3722 0252 1046     	 mov r0,r2
 3723 0254 F96B     	 ldr r1,[r7,#60]
 3724 0256 0522     	 movs r2,#5
 3725 0258 0A23     	 movs r3,#10
 3726 025a FFF7FEFF 	 bl UInt32ToStrBaseSign
1080:../Libraries/libscpi/src/utils.c ****         if (s[1] == 0) {
 3727              	 .loc 1 1080 0
 3728 025e FB6B     	 ldr r3,[r7,#60]
 3729 0260 0133     	 adds r3,r3,#1
 3730 0262 1B78     	 ldrb r3,[r3]
 3731 0264 002B     	 cmp r3,#0
 3732 0266 0CD1     	 bne .L245
1081:../Libraries/libscpi/src/utils.c ****             s[2] = s[1];
 3733              	 .loc 1 1081 0
 3734 0268 FB6B     	 ldr r3,[r7,#60]
 3735 026a 0233     	 adds r3,r3,#2
 3736 026c FA6B     	 ldr r2,[r7,#60]
 3737 026e 5278     	 ldrb r2,[r2,#1]
 3738 0270 1A70     	 strb r2,[r3]
1082:../Libraries/libscpi/src/utils.c ****             s[1] = s[0];
 3739              	 .loc 1 1082 0
 3740 0272 FB6B     	 ldr r3,[r7,#60]
 3741 0274 0133     	 adds r3,r3,#1
 3742 0276 FA6B     	 ldr r2,[r7,#60]
 3743 0278 1278     	 ldrb r2,[r2]
 3744 027a 1A70     	 strb r2,[r3]
1083:../Libraries/libscpi/src/utils.c ****             s[0] = '0';
 3745              	 .loc 1 1083 0
 3746 027c FB6B     	 ldr r3,[r7,#60]
 3747 027e 3022     	 movs r2,#48
 3748 0280 1A70     	 strb r2,[r3]
 3749              	.L245:
1084:../Libraries/libscpi/src/utils.c ****         }
1085:../Libraries/libscpi/src/utils.c ****     }
1086:../Libraries/libscpi/src/utils.c **** 
1087:../Libraries/libscpi/src/utils.c ****     strncpy(__s, buffer, __ssize);
 3750              	 .loc 1 1087 0
 3751 0282 07F11803 	 add r3,r7,#24
 3752 0286 7868     	 ldr r0,[r7,#4]
 3753 0288 1946     	 mov r1,r3
 3754 028a 3A68     	 ldr r2,[r7]
 3755 028c FFF7FEFF 	 bl strncpy
1088:../Libraries/libscpi/src/utils.c ****     __s[__ssize - 1] = '\0';
 3756              	 .loc 1 1088 0
 3757 0290 3B68     	 ldr r3,[r7]
 3758 0292 013B     	 subs r3,r3,#1
 3759 0294 7A68     	 ldr r2,[r7,#4]
 3760 0296 1344     	 add r3,r3,r2
 3761 0298 0022     	 movs r2,#0
 3762 029a 1A70     	 strb r2,[r3]
1089:../Libraries/libscpi/src/utils.c ****     return __s;
 3763              	 .loc 1 1089 0
 3764 029c 7B68     	 ldr r3,[r7,#4]
 3765              	.L249:
1090:../Libraries/libscpi/src/utils.c **** }
 3766              	 .loc 1 1090 0 discriminator 1
 3767 029e 1846     	 mov r0,r3
 3768 02a0 4437     	 adds r7,r7,#68
 3769              	.LCFI144:
 3770              	 .cfi_def_cfa_offset 12
 3771 02a2 BD46     	 mov sp,r7
 3772              	.LCFI145:
 3773              	 .cfi_def_cfa_register 13
 3774              	 
 3775 02a4 90BD     	 pop {r4,r7,pc}
 3776              	.L251:
 3777 02a6 00BF     	 .align 2
 3778              	.L250:
 3779 02a8 2C000000 	 .word .LC5
 3780 02ac 30000000 	 .word .LC6
 3781 02b0 34000000 	 .word .LC7
 3782 02b4 38000000 	 .word .LC8
 3783              	 .cfi_endproc
 3784              	.LFE27:
 3786              	 .section .text.SCPI_GetNativeFormat,"ax",%progbits
 3787              	 .align 2
 3788              	 .global SCPI_GetNativeFormat
 3789              	 .thumb
 3790              	 .thumb_func
 3792              	SCPI_GetNativeFormat:
 3793              	.LFB28:
1091:../Libraries/libscpi/src/utils.c **** 
1092:../Libraries/libscpi/src/utils.c **** /**
1093:../Libraries/libscpi/src/utils.c ****  * Get native CPU endiannes
1094:../Libraries/libscpi/src/utils.c ****  * @return
1095:../Libraries/libscpi/src/utils.c ****  */
1096:../Libraries/libscpi/src/utils.c **** scpi_array_format_t SCPI_GetNativeFormat(void) {
 3794              	 .loc 1 1096 0
 3795              	 .cfi_startproc
 3796              	 
 3797              	 
 3798              	 
 3799 0000 80B4     	 push {r7}
 3800              	.LCFI146:
 3801              	 .cfi_def_cfa_offset 4
 3802              	 .cfi_offset 7,-4
 3803 0002 83B0     	 sub sp,sp,#12
 3804              	.LCFI147:
 3805              	 .cfi_def_cfa_offset 16
 3806 0004 00AF     	 add r7,sp,#0
 3807              	.LCFI148:
 3808              	 .cfi_def_cfa_register 7
1097:../Libraries/libscpi/src/utils.c **** 
1098:../Libraries/libscpi/src/utils.c ****     union {
1099:../Libraries/libscpi/src/utils.c ****         uint32_t i;
1100:../Libraries/libscpi/src/utils.c ****         char c[4];
1101:../Libraries/libscpi/src/utils.c ****     } bint = {0x01020304};
 3809              	 .loc 1 1101 0
 3810 0006 074B     	 ldr r3,.L256
 3811 0008 7B60     	 str r3,[r7,#4]
1102:../Libraries/libscpi/src/utils.c **** 
1103:../Libraries/libscpi/src/utils.c ****     return bint.c[0] == 1 ? SCPI_FORMAT_BIGENDIAN : SCPI_FORMAT_LITTLEENDIAN;
 3812              	 .loc 1 1103 0
 3813 000a 3B79     	 ldrb r3,[r7,#4]
 3814 000c 012B     	 cmp r3,#1
 3815 000e 01D1     	 bne .L253
 3816              	 .loc 1 1103 0 is_stmt 0 discriminator 1
 3817 0010 0123     	 movs r3,#1
 3818 0012 00E0     	 b .L254
 3819              	.L253:
 3820              	 .loc 1 1103 0 discriminator 2
 3821 0014 0223     	 movs r3,#2
 3822              	.L254:
1104:../Libraries/libscpi/src/utils.c **** }
 3823              	 .loc 1 1104 0 is_stmt 1 discriminator 4
 3824 0016 1846     	 mov r0,r3
 3825 0018 0C37     	 adds r7,r7,#12
 3826              	.LCFI149:
 3827              	 .cfi_def_cfa_offset 4
 3828 001a BD46     	 mov sp,r7
 3829              	.LCFI150:
 3830              	 .cfi_def_cfa_register 13
 3831              	 
 3832 001c 5DF8047B 	 ldr r7,[sp],#4
 3833              	.LCFI151:
 3834              	 .cfi_restore 7
 3835              	 .cfi_def_cfa_offset 0
 3836 0020 7047     	 bx lr
 3837              	.L257:
 3838 0022 00BF     	 .align 2
 3839              	.L256:
 3840 0024 04030201 	 .word 16909060
 3841              	 .cfi_endproc
 3842              	.LFE28:
 3844              	 .section .text.SCPI_Swap16,"ax",%progbits
 3845              	 .align 2
 3846              	 .global SCPI_Swap16
 3847              	 .thumb
 3848              	 .thumb_func
 3850              	SCPI_Swap16:
 3851              	.LFB29:
1105:../Libraries/libscpi/src/utils.c **** 
1106:../Libraries/libscpi/src/utils.c **** /**
1107:../Libraries/libscpi/src/utils.c ****  * Swap 16bit number
1108:../Libraries/libscpi/src/utils.c ****  * @param val
1109:../Libraries/libscpi/src/utils.c ****  * @return
1110:../Libraries/libscpi/src/utils.c ****  */
1111:../Libraries/libscpi/src/utils.c **** uint16_t SCPI_Swap16(uint16_t val) {
 3852              	 .loc 1 1111 0
 3853              	 .cfi_startproc
 3854              	 
 3855              	 
 3856              	 
 3857 0000 80B4     	 push {r7}
 3858              	.LCFI152:
 3859              	 .cfi_def_cfa_offset 4
 3860              	 .cfi_offset 7,-4
 3861 0002 83B0     	 sub sp,sp,#12
 3862              	.LCFI153:
 3863              	 .cfi_def_cfa_offset 16
 3864 0004 00AF     	 add r7,sp,#0
 3865              	.LCFI154:
 3866              	 .cfi_def_cfa_register 7
 3867 0006 0346     	 mov r3,r0
 3868 0008 FB80     	 strh r3,[r7,#6]
1112:../Libraries/libscpi/src/utils.c ****     return ((val & 0x00FF) << 8) |
 3869              	 .loc 1 1112 0
 3870 000a FB88     	 ldrh r3,[r7,#6]
 3871 000c 1B02     	 lsls r3,r3,#8
 3872 000e 9AB2     	 uxth r2,r3
1113:../Libraries/libscpi/src/utils.c ****             ((val & 0xFF00) >> 8);
 3873              	 .loc 1 1113 0
 3874 0010 FB88     	 ldrh r3,[r7,#6]
 3875 0012 1B0A     	 lsrs r3,r3,#8
 3876 0014 9BB2     	 uxth r3,r3
1112:../Libraries/libscpi/src/utils.c ****     return ((val & 0x00FF) << 8) |
 3877              	 .loc 1 1112 0
 3878 0016 9BB2     	 uxth r3,r3
 3879 0018 1343     	 orrs r3,r3,r2
 3880 001a 9BB2     	 uxth r3,r3
 3881 001c 9BB2     	 uxth r3,r3
1114:../Libraries/libscpi/src/utils.c **** }
 3882              	 .loc 1 1114 0
 3883 001e 1846     	 mov r0,r3
 3884 0020 0C37     	 adds r7,r7,#12
 3885              	.LCFI155:
 3886              	 .cfi_def_cfa_offset 4
 3887 0022 BD46     	 mov sp,r7
 3888              	.LCFI156:
 3889              	 .cfi_def_cfa_register 13
 3890              	 
 3891 0024 5DF8047B 	 ldr r7,[sp],#4
 3892              	.LCFI157:
 3893              	 .cfi_restore 7
 3894              	 .cfi_def_cfa_offset 0
 3895 0028 7047     	 bx lr
 3896              	 .cfi_endproc
 3897              	.LFE29:
 3899 002a 00BF     	 .section .text.SCPI_Swap32,"ax",%progbits
 3900              	 .align 2
 3901              	 .global SCPI_Swap32
 3902              	 .thumb
 3903              	 .thumb_func
 3905              	SCPI_Swap32:
 3906              	.LFB30:
1115:../Libraries/libscpi/src/utils.c **** 
1116:../Libraries/libscpi/src/utils.c **** /**
1117:../Libraries/libscpi/src/utils.c ****  * Swap 32bit number
1118:../Libraries/libscpi/src/utils.c ****  * @param val
1119:../Libraries/libscpi/src/utils.c ****  * @return
1120:../Libraries/libscpi/src/utils.c ****  */
1121:../Libraries/libscpi/src/utils.c **** uint32_t SCPI_Swap32(uint32_t val) {
 3907              	 .loc 1 1121 0
 3908              	 .cfi_startproc
 3909              	 
 3910              	 
 3911              	 
 3912 0000 80B4     	 push {r7}
 3913              	.LCFI158:
 3914              	 .cfi_def_cfa_offset 4
 3915              	 .cfi_offset 7,-4
 3916 0002 83B0     	 sub sp,sp,#12
 3917              	.LCFI159:
 3918              	 .cfi_def_cfa_offset 16
 3919 0004 00AF     	 add r7,sp,#0
 3920              	.LCFI160:
 3921              	 .cfi_def_cfa_register 7
 3922 0006 7860     	 str r0,[r7,#4]
1122:../Libraries/libscpi/src/utils.c ****     return ((val & 0x000000FFul) << 24) |
 3923              	 .loc 1 1122 0
 3924 0008 7B68     	 ldr r3,[r7,#4]
 3925 000a 1A06     	 lsls r2,r3,#24
1123:../Libraries/libscpi/src/utils.c ****             ((val & 0x0000FF00ul) << 8) |
 3926              	 .loc 1 1123 0
 3927 000c 7B68     	 ldr r3,[r7,#4]
 3928 000e 03F47F43 	 and r3,r3,#65280
 3929 0012 1B02     	 lsls r3,r3,#8
1122:../Libraries/libscpi/src/utils.c ****     return ((val & 0x000000FFul) << 24) |
 3930              	 .loc 1 1122 0
 3931 0014 1A43     	 orrs r2,r2,r3
1124:../Libraries/libscpi/src/utils.c ****             ((val & 0x00FF0000ul) >> 8) |
 3932              	 .loc 1 1124 0
 3933 0016 7B68     	 ldr r3,[r7,#4]
 3934 0018 03F47F03 	 and r3,r3,#16711680
 3935 001c 1B0A     	 lsrs r3,r3,#8
1123:../Libraries/libscpi/src/utils.c ****             ((val & 0x0000FF00ul) << 8) |
 3936              	 .loc 1 1123 0
 3937 001e 1A43     	 orrs r2,r2,r3
1125:../Libraries/libscpi/src/utils.c ****             ((val & 0xFF000000ul) >> 24);
 3938              	 .loc 1 1125 0
 3939 0020 7B68     	 ldr r3,[r7,#4]
 3940 0022 1B0E     	 lsrs r3,r3,#24
1122:../Libraries/libscpi/src/utils.c ****             ((val & 0x0000FF00ul) << 8) |
 3941              	 .loc 1 1122 0
 3942 0024 1343     	 orrs r3,r3,r2
1126:../Libraries/libscpi/src/utils.c **** }
 3943              	 .loc 1 1126 0
 3944 0026 1846     	 mov r0,r3
 3945 0028 0C37     	 adds r7,r7,#12
 3946              	.LCFI161:
 3947              	 .cfi_def_cfa_offset 4
 3948 002a BD46     	 mov sp,r7
 3949              	.LCFI162:
 3950              	 .cfi_def_cfa_register 13
 3951              	 
 3952 002c 5DF8047B 	 ldr r7,[sp],#4
 3953              	.LCFI163:
 3954              	 .cfi_restore 7
 3955              	 .cfi_def_cfa_offset 0
 3956 0030 7047     	 bx lr
 3957              	 .cfi_endproc
 3958              	.LFE30:
 3960 0032 00BF     	 .section .text.SCPI_Swap64,"ax",%progbits
 3961              	 .align 2
 3962              	 .global SCPI_Swap64
 3963              	 .thumb
 3964              	 .thumb_func
 3966              	SCPI_Swap64:
 3967              	.LFB31:
1127:../Libraries/libscpi/src/utils.c **** 
1128:../Libraries/libscpi/src/utils.c **** /**
1129:../Libraries/libscpi/src/utils.c ****  * Swap 64bit number
1130:../Libraries/libscpi/src/utils.c ****  * @param val
1131:../Libraries/libscpi/src/utils.c ****  * @return
1132:../Libraries/libscpi/src/utils.c ****  */
1133:../Libraries/libscpi/src/utils.c **** uint64_t SCPI_Swap64(uint64_t val) {
 3968              	 .loc 1 1133 0
 3969              	 .cfi_startproc
 3970              	 
 3971              	 
 3972              	 
 3973 0000 2DE9B00F 	 push {r4,r5,r7,r8,r9,r10,fp}
 3974              	.LCFI164:
 3975              	 .cfi_def_cfa_offset 28
 3976              	 .cfi_offset 4,-28
 3977              	 .cfi_offset 5,-24
 3978              	 .cfi_offset 7,-20
 3979              	 .cfi_offset 8,-16
 3980              	 .cfi_offset 9,-12
 3981              	 .cfi_offset 10,-8
 3982              	 .cfi_offset 11,-4
 3983 0004 8DB0     	 sub sp,sp,#52
 3984              	.LCFI165:
 3985              	 .cfi_def_cfa_offset 80
 3986 0006 00AF     	 add r7,sp,#0
 3987              	.LCFI166:
 3988              	 .cfi_def_cfa_register 7
 3989 0008 C7E90A01 	 strd r0,[r7,#40]
1134:../Libraries/libscpi/src/utils.c ****     return ((val & 0x00000000000000FFull) << 56) |
 3990              	 .loc 1 1134 0
 3991 000c D7E90A23 	 ldrd r2,[r7,#40]
 3992 0010 1306     	 lsls r3,r2,#24
 3993 0012 FB61     	 str r3,[r7,#28]
 3994 0014 0023     	 movs r3,#0
 3995 0016 BB61     	 str r3,[r7,#24]
1135:../Libraries/libscpi/src/utils.c ****             ((val & 0x000000000000FF00ull) << 40) |
 3996              	 .loc 1 1135 0
 3997 0018 D7E90A01 	 ldrd r0,[r7,#40]
 3998 001c 4FF47F42 	 mov r2,#65280
 3999 0020 4FF00003 	 mov r3,#0
 4000 0024 02EA0002 	 and r2,r2,r0
 4001 0028 03EA0103 	 and r3,r3,r1
 4002 002c 1302     	 lsls r3,r2,#8
 4003 002e 7B61     	 str r3,[r7,#20]
 4004 0030 0023     	 movs r3,#0
 4005 0032 3B61     	 str r3,[r7,#16]
1134:../Libraries/libscpi/src/utils.c ****     return ((val & 0x00000000000000FFull) << 56) |
 4006              	 .loc 1 1134 0
 4007 0034 D7E90623 	 ldrd r2,[r7,#24]
 4008 0038 D7E90401 	 ldrd r0,[r7,#16]
 4009 003c 42EA0002 	 orr r2,r2,r0
 4010 0040 43EA0103 	 orr r3,r3,r1
 4011 0044 C7E90623 	 strd r2,[r7,#24]
1136:../Libraries/libscpi/src/utils.c ****             ((val & 0x0000000000FF0000ull) << 24) |
 4012              	 .loc 1 1136 0
 4013 0048 D7E90A01 	 ldrd r0,[r7,#40]
 4014 004c 4FF47F02 	 mov r2,#16711680
 4015 0050 4FF00003 	 mov r3,#0
 4016 0054 02EA0002 	 and r2,r2,r0
 4017 0058 03EA0103 	 and r3,r3,r1
 4018 005c 1D06     	 lsls r5,r3,#24
 4019 005e 45EA1225 	 orr r5,r5,r2,lsr#8
 4020 0062 1406     	 lsls r4,r2,#24
1135:../Libraries/libscpi/src/utils.c ****             ((val & 0x000000000000FF00ull) << 40) |
 4021              	 .loc 1 1135 0
 4022 0064 D7E90623 	 ldrd r2,[r7,#24]
 4023 0068 42EA0402 	 orr r2,r2,r4
 4024 006c 43EA0503 	 orr r3,r3,r5
 4025 0070 1446     	 mov r4,r2
 4026 0072 1D46     	 mov r5,r3
1137:../Libraries/libscpi/src/utils.c ****             ((val & 0x00000000FF000000ull) << 8) |
 4027              	 .loc 1 1137 0
 4028 0074 D7E90A01 	 ldrd r0,[r7,#40]
 4029 0078 4FF07F42 	 mov r2,#-16777216
 4030 007c 4FF00003 	 mov r3,#0
 4031 0080 02EA0002 	 and r2,r2,r0
 4032 0084 03EA0103 	 and r3,r3,r1
 4033 0088 4FEA0329 	 lsl r9,r3,#8
 4034 008c 49EA1269 	 orr r9,r9,r2,lsr#24
 4035 0090 4FEA0228 	 lsl r8,r2,#8
1136:../Libraries/libscpi/src/utils.c ****             ((val & 0x0000000000FF0000ull) << 24) |
 4036              	 .loc 1 1136 0
 4037 0094 44EA0800 	 orr r0,r4,r8
 4038 0098 45EA0901 	 orr r1,r5,r9
1138:../Libraries/libscpi/src/utils.c ****             ((val & 0x000000FF00000000ull) >> 8) |
 4039              	 .loc 1 1138 0
 4040 009c D7E90A23 	 ldrd r2,[r7,#40]
 4041 00a0 4FF00004 	 mov r4,#0
 4042 00a4 4FF0FF05 	 mov r5,#255
 4043 00a8 02EA0402 	 and r2,r2,r4
 4044 00ac 03EA0503 	 and r3,r3,r5
 4045 00b0 140A     	 lsrs r4,r2,#8
 4046 00b2 3C62     	 str r4,[r7,#32]
 4047 00b4 3C6A     	 ldr r4,[r7,#32]
 4048 00b6 44EA0364 	 orr r4,r4,r3,lsl#24
 4049 00ba 3C62     	 str r4,[r7,#32]
 4050 00bc 1B0A     	 lsrs r3,r3,#8
 4051 00be 7B62     	 str r3,[r7,#36]
1137:../Libraries/libscpi/src/utils.c ****             ((val & 0x00000000FF000000ull) << 8) |
 4052              	 .loc 1 1137 0
 4053 00c0 D7E90823 	 ldrd r2,[r7,#32]
 4054 00c4 42EA0002 	 orr r2,r2,r0
 4055 00c8 43EA0103 	 orr r3,r3,r1
 4056 00cc 1046     	 mov r0,r2
 4057 00ce 1946     	 mov r1,r3
1139:../Libraries/libscpi/src/utils.c ****             ((val & 0x0000FF0000000000ull) >> 24) |
 4058              	 .loc 1 1139 0
 4059 00d0 D7E90A23 	 ldrd r2,[r7,#40]
 4060 00d4 4FF00004 	 mov r4,#0
 4061 00d8 4FF47F45 	 mov r5,#65280
 4062 00dc 02EA0402 	 and r2,r2,r4
 4063 00e0 03EA0503 	 and r3,r3,r5
 4064 00e4 4FEA126A 	 lsr r10,r2,#24
 4065 00e8 4AEA032A 	 orr r10,r10,r3,lsl#8
 4066 00ec 4FEA136B 	 lsr fp,r3,#24
1138:../Libraries/libscpi/src/utils.c ****             ((val & 0x000000FF00000000ull) >> 8) |
 4067              	 .loc 1 1138 0
 4068 00f0 40EA0A02 	 orr r2,r0,r10
 4069 00f4 41EA0B03 	 orr r3,r1,fp
1140:../Libraries/libscpi/src/utils.c ****             ((val & 0x00FF000000000000ull) >> 40) |
 4070              	 .loc 1 1140 0
 4071 00f8 D7E90A01 	 ldrd r0,[r7,#40]
 4072 00fc 4FF00004 	 mov r4,#0
 4073 0100 4FF47F05 	 mov r5,#16711680
 4074 0104 00EA0400 	 and r0,r0,r4
 4075 0108 01EA0501 	 and r1,r1,r5
 4076 010c 090A     	 lsrs r1,r1,#8
 4077 010e B960     	 str r1,[r7,#8]
 4078 0110 0021     	 movs r1,#0
 4079 0112 F960     	 str r1,[r7,#12]
1139:../Libraries/libscpi/src/utils.c ****             ((val & 0x0000FF0000000000ull) >> 24) |
 4080              	 .loc 1 1139 0
 4081 0114 D7E90201 	 ldrd r0,[r7,#8]
 4082 0118 40EA0200 	 orr r0,r0,r2
 4083 011c 41EA0301 	 orr r1,r1,r3
 4084 0120 0246     	 mov r2,r0
 4085 0122 0B46     	 mov r3,r1
1141:../Libraries/libscpi/src/utils.c ****             ((val & 0xFF00000000000000ull) >> 56);
 4086              	 .loc 1 1141 0
 4087 0124 D7E90A01 	 ldrd r0,[r7,#40]
 4088 0128 090E     	 lsrs r1,r1,#24
 4089 012a 3960     	 str r1,[r7]
 4090 012c 0021     	 movs r1,#0
 4091 012e 7960     	 str r1,[r7,#4]
1134:../Libraries/libscpi/src/utils.c ****             ((val & 0x000000000000FF00ull) << 40) |
 4092              	 .loc 1 1134 0
 4093 0130 D7E90001 	 ldrd r0,[r7]
 4094 0134 40EA0200 	 orr r0,r0,r2
 4095 0138 41EA0301 	 orr r1,r1,r3
 4096 013c 0246     	 mov r2,r0
 4097 013e 0B46     	 mov r3,r1
1142:../Libraries/libscpi/src/utils.c **** }
 4098              	 .loc 1 1142 0
 4099 0140 1046     	 mov r0,r2
 4100 0142 1946     	 mov r1,r3
 4101 0144 3437     	 adds r7,r7,#52
 4102              	.LCFI167:
 4103              	 .cfi_def_cfa_offset 28
 4104 0146 BD46     	 mov sp,r7
 4105              	.LCFI168:
 4106              	 .cfi_def_cfa_register 13
 4107              	 
 4108 0148 BDE8B00F 	 pop {r4,r5,r7,r8,r9,r10,fp}
 4109              	.LCFI169:
 4110              	 .cfi_restore 11
 4111              	 .cfi_restore 10
 4112              	 .cfi_restore 9
 4113              	 .cfi_restore 8
 4114              	 .cfi_restore 7
 4115              	 .cfi_restore 5
 4116              	 .cfi_restore 4
 4117              	 .cfi_def_cfa_offset 0
 4118 014c 7047     	 bx lr
 4119              	 .cfi_endproc
 4120              	.LFE31:
 4122 014e 00BF     	 .text
 4123              	.Letext0:
 4124              	 .file 2 "c:\\infineon\\tools\\dave ide\\4.5.0.202105191637\\eclipse\\arm-gcc-49\\arm-none-eabi\\include\\machine\\_default_types.h"
 4125              	 .file 3 "c:\\infineon\\tools\\dave ide\\4.5.0.202105191637\\eclipse\\arm-gcc-49\\lib\\gcc\\arm-none-eabi\\4.9.3\\include\\stddef.h"
 4126              	 .file 4 "c:\\infineon\\tools\\dave ide\\4.5.0.202105191637\\eclipse\\arm-gcc-49\\arm-none-eabi\\include\\stdint.h"
 4127              	 .file 5 "C:/Infineon/Tools/DAVE IDE/4.5.0.202105191637/eclipse/workspace/ScpiRelax/Libraries/libscpi/inc/scpi/types.h"
 4128              	 .file 6 "c:\\infineon\\tools\\dave ide\\4.5.0.202105191637\\eclipse\\arm-gcc-49\\arm-none-eabi\\include\\ctype.h"