   1              	 .syntax unified
   2              	 .cpu cortex-m4
   3              	 .eabi_attribute 27,3
   4              	 .fpu fpv4-sp-d16
   5              	 .eabi_attribute 20,1
   6              	 .eabi_attribute 21,1
   7              	 .eabi_attribute 23,3
   8              	 .eabi_attribute 24,1
   9              	 .eabi_attribute 25,1
  10              	 .eabi_attribute 26,1
  11              	 .eabi_attribute 30,6
  12              	 .eabi_attribute 34,1
  13              	 .eabi_attribute 18,4
  14              	 .thumb
  15              	 .file "memp.c"
  16              	 .text
  17              	.Ltext0:
  18              	 .cfi_sections .debug_frame
  19              	 .comm memp_memory_RAW_PCB_base,115,4
  20              	 .section .bss.memp_tab_RAW_PCB,"aw",%nobits
  21              	 .align 2
  24              	memp_tab_RAW_PCB:
  25 0000 00000000 	 .space 4
  26              	 .global memp_RAW_PCB
  27              	 .section .rodata.memp_RAW_PCB,"a",%progbits
  28              	 .align 2
  31              	memp_RAW_PCB:
  32 0000 1C00     	 .short 28
  33 0002 0400     	 .short 4
  34 0004 00000000 	 .word memp_memory_RAW_PCB_base
  35 0008 00000000 	 .word memp_tab_RAW_PCB
  36              	 .comm memp_memory_TCP_PCB_base,783,4
  37              	 .section .bss.memp_tab_TCP_PCB,"aw",%nobits
  38              	 .align 2
  41              	memp_tab_TCP_PCB:
  42 0000 00000000 	 .space 4
  43              	 .global memp_TCP_PCB
  44              	 .section .rodata.memp_TCP_PCB,"a",%progbits
  45              	 .align 2
  48              	memp_TCP_PCB:
  49 0000 9C00     	 .short 156
  50 0002 0500     	 .short 5
  51 0004 00000000 	 .word memp_memory_TCP_PCB_base
  52 0008 00000000 	 .word memp_tab_TCP_PCB
  53              	 .comm memp_memory_TCP_PCB_LISTEN_base,163,4
  54              	 .section .bss.memp_tab_TCP_PCB_LISTEN,"aw",%nobits
  55              	 .align 2
  58              	memp_tab_TCP_PCB_LISTEN:
  59 0000 00000000 	 .space 4
  60              	 .global memp_TCP_PCB_LISTEN
  61              	 .section .rodata.memp_TCP_PCB_LISTEN,"a",%progbits
  62              	 .align 2
  65              	memp_TCP_PCB_LISTEN:
  66 0000 2000     	 .short 32
  67 0002 0500     	 .short 5
  68 0004 00000000 	 .word memp_memory_TCP_PCB_LISTEN_base
  69 0008 00000000 	 .word memp_tab_TCP_PCB_LISTEN
  70              	 .comm memp_memory_TCP_SEG_base,131,4
  71              	 .section .bss.memp_tab_TCP_SEG,"aw",%nobits
  72              	 .align 2
  75              	memp_tab_TCP_SEG:
  76 0000 00000000 	 .space 4
  77              	 .global memp_TCP_SEG
  78              	 .section .rodata.memp_TCP_SEG,"a",%progbits
  79              	 .align 2
  82              	memp_TCP_SEG:
  83 0000 1000     	 .short 16
  84 0002 0800     	 .short 8
  85 0004 00000000 	 .word memp_memory_TCP_SEG_base
  86 0008 00000000 	 .word memp_tab_TCP_SEG
  87              	 .comm memp_memory_SYS_TIMEOUT_base,163,4
  88              	 .section .bss.memp_tab_SYS_TIMEOUT,"aw",%nobits
  89              	 .align 2
  92              	memp_tab_SYS_TIMEOUT:
  93 0000 00000000 	 .space 4
  94              	 .global memp_SYS_TIMEOUT
  95              	 .section .rodata.memp_SYS_TIMEOUT,"a",%progbits
  96              	 .align 2
  99              	memp_SYS_TIMEOUT:
 100 0000 1000     	 .short 16
 101 0002 0A00     	 .short 10
 102 0004 00000000 	 .word memp_memory_SYS_TIMEOUT_base
 103 0008 00000000 	 .word memp_tab_SYS_TIMEOUT
 104              	 .comm memp_memory_PBUF_base,259,4
 105              	 .section .bss.memp_tab_PBUF,"aw",%nobits
 106              	 .align 2
 109              	memp_tab_PBUF:
 110 0000 00000000 	 .space 4
 111              	 .global memp_PBUF
 112              	 .section .rodata.memp_PBUF,"a",%progbits
 113              	 .align 2
 116              	memp_PBUF:
 117 0000 1000     	 .short 16
 118 0002 1000     	 .short 16
 119 0004 00000000 	 .word memp_memory_PBUF_base
 120 0008 00000000 	 .word memp_tab_PBUF
 121              	 .comm memp_memory_PBUF_POOL_base,24835,4
 122              	 .section .bss.memp_tab_PBUF_POOL,"aw",%nobits
 123              	 .align 2
 126              	memp_tab_PBUF_POOL:
 127 0000 00000000 	 .space 4
 128              	 .global memp_PBUF_POOL
 129              	 .section .rodata.memp_PBUF_POOL,"a",%progbits
 130              	 .align 2
 133              	memp_PBUF_POOL:
 134 0000 1006     	 .short 1552
 135 0002 1000     	 .short 16
 136 0004 00000000 	 .word memp_memory_PBUF_POOL_base
 137 0008 00000000 	 .word memp_tab_PBUF_POOL
 138              	 .global memp_pools
 139              	 .section .rodata.memp_pools,"a",%progbits
 140              	 .align 2
 143              	memp_pools:
 144 0000 00000000 	 .word memp_RAW_PCB
 145 0004 00000000 	 .word memp_TCP_PCB
 146 0008 00000000 	 .word memp_TCP_PCB_LISTEN
 147 000c 00000000 	 .word memp_TCP_SEG
 148 0010 00000000 	 .word memp_SYS_TIMEOUT
 149 0014 00000000 	 .word memp_PBUF
 150 0018 00000000 	 .word memp_PBUF_POOL
 151              	 .section .text.memp_init_pool,"ax",%progbits
 152              	 .align 2
 153              	 .global memp_init_pool
 154              	 .thumb
 155              	 .thumb_func
 157              	memp_init_pool:
 158              	.LFB133:
 159              	 .file 1 "../Dave/Generated/ETH_LWIP/lwip/core/memp.c"
   1:../Dave/Generated/ETH_LWIP/lwip/core/memp.c **** /**
   2:../Dave/Generated/ETH_LWIP/lwip/core/memp.c ****  * @file
   3:../Dave/Generated/ETH_LWIP/lwip/core/memp.c ****  * Dynamic pool memory manager
   4:../Dave/Generated/ETH_LWIP/lwip/core/memp.c ****  *
   5:../Dave/Generated/ETH_LWIP/lwip/core/memp.c ****  * lwIP has dedicated pools for many structures (netconn, protocol control blocks,
   6:../Dave/Generated/ETH_LWIP/lwip/core/memp.c ****  * packet buffers, ...). All these pools are managed here.
   7:../Dave/Generated/ETH_LWIP/lwip/core/memp.c ****  *
   8:../Dave/Generated/ETH_LWIP/lwip/core/memp.c ****  * @defgroup mempool Memory pools
   9:../Dave/Generated/ETH_LWIP/lwip/core/memp.c ****  * @ingroup infrastructure
  10:../Dave/Generated/ETH_LWIP/lwip/core/memp.c ****  * Custom memory pools
  11:../Dave/Generated/ETH_LWIP/lwip/core/memp.c **** 
  12:../Dave/Generated/ETH_LWIP/lwip/core/memp.c ****  */
  13:../Dave/Generated/ETH_LWIP/lwip/core/memp.c **** 
  14:../Dave/Generated/ETH_LWIP/lwip/core/memp.c **** /*
  15:../Dave/Generated/ETH_LWIP/lwip/core/memp.c ****  * Copyright (c) 2001-2004 Swedish Institute of Computer Science.
  16:../Dave/Generated/ETH_LWIP/lwip/core/memp.c ****  * All rights reserved.
  17:../Dave/Generated/ETH_LWIP/lwip/core/memp.c ****  *
  18:../Dave/Generated/ETH_LWIP/lwip/core/memp.c ****  * Redistribution and use in source and binary forms, with or without modification,
  19:../Dave/Generated/ETH_LWIP/lwip/core/memp.c ****  * are permitted provided that the following conditions are met:
  20:../Dave/Generated/ETH_LWIP/lwip/core/memp.c ****  *
  21:../Dave/Generated/ETH_LWIP/lwip/core/memp.c ****  * 1. Redistributions of source code must retain the above copyright notice,
  22:../Dave/Generated/ETH_LWIP/lwip/core/memp.c ****  *    this list of conditions and the following disclaimer.
  23:../Dave/Generated/ETH_LWIP/lwip/core/memp.c ****  * 2. Redistributions in binary form must reproduce the above copyright notice,
  24:../Dave/Generated/ETH_LWIP/lwip/core/memp.c ****  *    this list of conditions and the following disclaimer in the documentation
  25:../Dave/Generated/ETH_LWIP/lwip/core/memp.c ****  *    and/or other materials provided with the distribution.
  26:../Dave/Generated/ETH_LWIP/lwip/core/memp.c ****  * 3. The name of the author may not be used to endorse or promote products
  27:../Dave/Generated/ETH_LWIP/lwip/core/memp.c ****  *    derived from this software without specific prior written permission.
  28:../Dave/Generated/ETH_LWIP/lwip/core/memp.c ****  *
  29:../Dave/Generated/ETH_LWIP/lwip/core/memp.c ****  * THIS SOFTWARE IS PROVIDED BY THE AUTHOR ``AS IS'' AND ANY EXPRESS OR IMPLIED
  30:../Dave/Generated/ETH_LWIP/lwip/core/memp.c ****  * WARRANTIES, INCLUDING, BUT NOT LIMITED TO, THE IMPLIED WARRANTIES OF
  31:../Dave/Generated/ETH_LWIP/lwip/core/memp.c ****  * MERCHANTABILITY AND FITNESS FOR A PARTICULAR PURPOSE ARE DISCLAIMED. IN NO EVENT
  32:../Dave/Generated/ETH_LWIP/lwip/core/memp.c ****  * SHALL THE AUTHOR BE LIABLE FOR ANY DIRECT, INDIRECT, INCIDENTAL, SPECIAL,
  33:../Dave/Generated/ETH_LWIP/lwip/core/memp.c ****  * EXEMPLARY, OR CONSEQUENTIAL DAMAGES (INCLUDING, BUT NOT LIMITED TO, PROCUREMENT
  34:../Dave/Generated/ETH_LWIP/lwip/core/memp.c ****  * OF SUBSTITUTE GOODS OR SERVICES; LOSS OF USE, DATA, OR PROFITS; OR BUSINESS
  35:../Dave/Generated/ETH_LWIP/lwip/core/memp.c ****  * INTERRUPTION) HOWEVER CAUSED AND ON ANY THEORY OF LIABILITY, WHETHER IN
  36:../Dave/Generated/ETH_LWIP/lwip/core/memp.c ****  * CONTRACT, STRICT LIABILITY, OR TORT (INCLUDING NEGLIGENCE OR OTHERWISE) ARISING
  37:../Dave/Generated/ETH_LWIP/lwip/core/memp.c ****  * IN ANY WAY OUT OF THE USE OF THIS SOFTWARE, EVEN IF ADVISED OF THE POSSIBILITY
  38:../Dave/Generated/ETH_LWIP/lwip/core/memp.c ****  * OF SUCH DAMAGE.
  39:../Dave/Generated/ETH_LWIP/lwip/core/memp.c ****  *
  40:../Dave/Generated/ETH_LWIP/lwip/core/memp.c ****  * This file is part of the lwIP TCP/IP stack.
  41:../Dave/Generated/ETH_LWIP/lwip/core/memp.c ****  *
  42:../Dave/Generated/ETH_LWIP/lwip/core/memp.c ****  * Author: Adam Dunkels <adam@sics.se>
  43:../Dave/Generated/ETH_LWIP/lwip/core/memp.c ****  *
  44:../Dave/Generated/ETH_LWIP/lwip/core/memp.c ****  */
  45:../Dave/Generated/ETH_LWIP/lwip/core/memp.c **** 
  46:../Dave/Generated/ETH_LWIP/lwip/core/memp.c **** #include "ETH_LWIP/lwip/include/lwip/opt.h"
  47:../Dave/Generated/ETH_LWIP/lwip/core/memp.c **** 
  48:../Dave/Generated/ETH_LWIP/lwip/core/memp.c **** #include "ETH_LWIP/lwip/include/lwip/memp.h"
  49:../Dave/Generated/ETH_LWIP/lwip/core/memp.c **** #include "ETH_LWIP/lwip/include/lwip/sys.h"
  50:../Dave/Generated/ETH_LWIP/lwip/core/memp.c **** #include "ETH_LWIP/lwip/include/lwip/stats.h"
  51:../Dave/Generated/ETH_LWIP/lwip/core/memp.c **** 
  52:../Dave/Generated/ETH_LWIP/lwip/core/memp.c **** #include <string.h>
  53:../Dave/Generated/ETH_LWIP/lwip/core/memp.c **** 
  54:../Dave/Generated/ETH_LWIP/lwip/core/memp.c **** /* Make sure we include everything we need for size calculation required by memp_std.h */
  55:../Dave/Generated/ETH_LWIP/lwip/core/memp.c **** #include "ETH_LWIP/lwip/include/lwip/pbuf.h"
  56:../Dave/Generated/ETH_LWIP/lwip/core/memp.c **** #include "ETH_LWIP/lwip/include/lwip/raw.h"
  57:../Dave/Generated/ETH_LWIP/lwip/core/memp.c **** #include "ETH_LWIP/lwip/include/lwip/udp.h"
  58:../Dave/Generated/ETH_LWIP/lwip/core/memp.c **** #include "ETH_LWIP/lwip/include/lwip/tcp.h"
  59:../Dave/Generated/ETH_LWIP/lwip/core/memp.c **** #include "ETH_LWIP/lwip/include/lwip/priv/tcp_priv.h"
  60:../Dave/Generated/ETH_LWIP/lwip/core/memp.c **** #include "ETH_LWIP/lwip/include/lwip/altcp.h"
  61:../Dave/Generated/ETH_LWIP/lwip/core/memp.c **** #include "ETH_LWIP/lwip/include/lwip/ip4_frag.h"
  62:../Dave/Generated/ETH_LWIP/lwip/core/memp.c **** #include "ETH_LWIP/lwip/include/lwip/netbuf.h"
  63:../Dave/Generated/ETH_LWIP/lwip/core/memp.c **** #include "ETH_LWIP/lwip/include/lwip/api.h"
  64:../Dave/Generated/ETH_LWIP/lwip/core/memp.c **** #include "ETH_LWIP/lwip/include/lwip/priv/tcpip_priv.h"
  65:../Dave/Generated/ETH_LWIP/lwip/core/memp.c **** #include "ETH_LWIP/lwip/include/lwip/priv/api_msg.h"
  66:../Dave/Generated/ETH_LWIP/lwip/core/memp.c **** #include "ETH_LWIP/lwip/include/lwip/priv/sockets_priv.h"
  67:../Dave/Generated/ETH_LWIP/lwip/core/memp.c **** #include "ETH_LWIP/lwip/include/lwip/etharp.h"
  68:../Dave/Generated/ETH_LWIP/lwip/core/memp.c **** #include "ETH_LWIP/lwip/include/lwip/igmp.h"
  69:../Dave/Generated/ETH_LWIP/lwip/core/memp.c **** #include "ETH_LWIP/lwip/include/lwip/timeouts.h"
  70:../Dave/Generated/ETH_LWIP/lwip/core/memp.c **** /* needed by default MEMP_NUM_SYS_TIMEOUT */
  71:../Dave/Generated/ETH_LWIP/lwip/core/memp.c **** #include "ETH_LWIP/lwip/include/netif/ppp/ppp_opts.h"
  72:../Dave/Generated/ETH_LWIP/lwip/core/memp.c **** #include "ETH_LWIP/lwip/include/lwip/netdb.h"
  73:../Dave/Generated/ETH_LWIP/lwip/core/memp.c **** #include "ETH_LWIP/lwip/include/lwip/dns.h"
  74:../Dave/Generated/ETH_LWIP/lwip/core/memp.c **** #include "ETH_LWIP/lwip/include/lwip/priv/nd6_priv.h"
  75:../Dave/Generated/ETH_LWIP/lwip/core/memp.c **** #include "ETH_LWIP/lwip/include/lwip/ip6_frag.h"
  76:../Dave/Generated/ETH_LWIP/lwip/core/memp.c **** #include "ETH_LWIP/lwip/include/lwip/mld6.h"
  77:../Dave/Generated/ETH_LWIP/lwip/core/memp.c **** 
  78:../Dave/Generated/ETH_LWIP/lwip/core/memp.c **** #define LWIP_MEMPOOL(name,num,size,desc) LWIP_MEMPOOL_DECLARE(name,num,size,desc)
  79:../Dave/Generated/ETH_LWIP/lwip/core/memp.c **** #include "ETH_LWIP/lwip/include/lwip/priv/memp_std.h"
  80:../Dave/Generated/ETH_LWIP/lwip/core/memp.c **** 
  81:../Dave/Generated/ETH_LWIP/lwip/core/memp.c **** const struct memp_desc *const memp_pools[MEMP_MAX] = {
  82:../Dave/Generated/ETH_LWIP/lwip/core/memp.c **** #define LWIP_MEMPOOL(name,num,size,desc) &memp_ ## name,
  83:../Dave/Generated/ETH_LWIP/lwip/core/memp.c **** #include "ETH_LWIP/lwip/include/lwip/priv/memp_std.h"
  84:../Dave/Generated/ETH_LWIP/lwip/core/memp.c **** };
  85:../Dave/Generated/ETH_LWIP/lwip/core/memp.c **** 
  86:../Dave/Generated/ETH_LWIP/lwip/core/memp.c **** #ifdef LWIP_HOOK_FILENAME
  87:../Dave/Generated/ETH_LWIP/lwip/core/memp.c **** #include LWIP_HOOK_FILENAME
  88:../Dave/Generated/ETH_LWIP/lwip/core/memp.c **** #endif
  89:../Dave/Generated/ETH_LWIP/lwip/core/memp.c **** 
  90:../Dave/Generated/ETH_LWIP/lwip/core/memp.c **** #if MEMP_MEM_MALLOC && MEMP_OVERFLOW_CHECK >= 2
  91:../Dave/Generated/ETH_LWIP/lwip/core/memp.c **** #undef MEMP_OVERFLOW_CHECK
  92:../Dave/Generated/ETH_LWIP/lwip/core/memp.c **** /* MEMP_OVERFLOW_CHECK >= 2 does not work with MEMP_MEM_MALLOC, use 1 instead */
  93:../Dave/Generated/ETH_LWIP/lwip/core/memp.c **** #define MEMP_OVERFLOW_CHECK 1
  94:../Dave/Generated/ETH_LWIP/lwip/core/memp.c **** #endif
  95:../Dave/Generated/ETH_LWIP/lwip/core/memp.c **** 
  96:../Dave/Generated/ETH_LWIP/lwip/core/memp.c **** #if MEMP_SANITY_CHECK && !MEMP_MEM_MALLOC
  97:../Dave/Generated/ETH_LWIP/lwip/core/memp.c **** /**
  98:../Dave/Generated/ETH_LWIP/lwip/core/memp.c ****  * Check that memp-lists don't form a circle, using "Floyd's cycle-finding algorithm".
  99:../Dave/Generated/ETH_LWIP/lwip/core/memp.c ****  */
 100:../Dave/Generated/ETH_LWIP/lwip/core/memp.c **** static int
 101:../Dave/Generated/ETH_LWIP/lwip/core/memp.c **** memp_sanity(const struct memp_desc *desc)
 102:../Dave/Generated/ETH_LWIP/lwip/core/memp.c **** {
 103:../Dave/Generated/ETH_LWIP/lwip/core/memp.c ****   struct memp *t, *h;
 104:../Dave/Generated/ETH_LWIP/lwip/core/memp.c **** 
 105:../Dave/Generated/ETH_LWIP/lwip/core/memp.c ****   t = *desc->tab;
 106:../Dave/Generated/ETH_LWIP/lwip/core/memp.c ****   if (t != NULL) {
 107:../Dave/Generated/ETH_LWIP/lwip/core/memp.c ****     for (h = t->next; (t != NULL) && (h != NULL); t = t->next,
 108:../Dave/Generated/ETH_LWIP/lwip/core/memp.c ****          h = ((h->next != NULL) ? h->next->next : NULL)) {
 109:../Dave/Generated/ETH_LWIP/lwip/core/memp.c ****       if (t == h) {
 110:../Dave/Generated/ETH_LWIP/lwip/core/memp.c ****         return 0;
 111:../Dave/Generated/ETH_LWIP/lwip/core/memp.c ****       }
 112:../Dave/Generated/ETH_LWIP/lwip/core/memp.c ****     }
 113:../Dave/Generated/ETH_LWIP/lwip/core/memp.c ****   }
 114:../Dave/Generated/ETH_LWIP/lwip/core/memp.c **** 
 115:../Dave/Generated/ETH_LWIP/lwip/core/memp.c ****   return 1;
 116:../Dave/Generated/ETH_LWIP/lwip/core/memp.c **** }
 117:../Dave/Generated/ETH_LWIP/lwip/core/memp.c **** #endif /* MEMP_SANITY_CHECK && !MEMP_MEM_MALLOC */
 118:../Dave/Generated/ETH_LWIP/lwip/core/memp.c **** 
 119:../Dave/Generated/ETH_LWIP/lwip/core/memp.c **** #if MEMP_OVERFLOW_CHECK
 120:../Dave/Generated/ETH_LWIP/lwip/core/memp.c **** /**
 121:../Dave/Generated/ETH_LWIP/lwip/core/memp.c ****  * Check if a memp element was victim of an overflow or underflow
 122:../Dave/Generated/ETH_LWIP/lwip/core/memp.c ****  * (e.g. the restricted area after/before it has been altered)
 123:../Dave/Generated/ETH_LWIP/lwip/core/memp.c ****  *
 124:../Dave/Generated/ETH_LWIP/lwip/core/memp.c ****  * @param p the memp element to check
 125:../Dave/Generated/ETH_LWIP/lwip/core/memp.c ****  * @param desc the pool p comes from
 126:../Dave/Generated/ETH_LWIP/lwip/core/memp.c ****  */
 127:../Dave/Generated/ETH_LWIP/lwip/core/memp.c **** static void
 128:../Dave/Generated/ETH_LWIP/lwip/core/memp.c **** memp_overflow_check_element(struct memp *p, const struct memp_desc *desc)
 129:../Dave/Generated/ETH_LWIP/lwip/core/memp.c **** {
 130:../Dave/Generated/ETH_LWIP/lwip/core/memp.c ****   mem_overflow_check_raw((u8_t *)p + MEMP_SIZE, desc->size, "pool ", desc->desc);
 131:../Dave/Generated/ETH_LWIP/lwip/core/memp.c **** }
 132:../Dave/Generated/ETH_LWIP/lwip/core/memp.c **** 
 133:../Dave/Generated/ETH_LWIP/lwip/core/memp.c **** /**
 134:../Dave/Generated/ETH_LWIP/lwip/core/memp.c ****  * Initialize the restricted area of on memp element.
 135:../Dave/Generated/ETH_LWIP/lwip/core/memp.c ****  */
 136:../Dave/Generated/ETH_LWIP/lwip/core/memp.c **** static void
 137:../Dave/Generated/ETH_LWIP/lwip/core/memp.c **** memp_overflow_init_element(struct memp *p, const struct memp_desc *desc)
 138:../Dave/Generated/ETH_LWIP/lwip/core/memp.c **** {
 139:../Dave/Generated/ETH_LWIP/lwip/core/memp.c ****   mem_overflow_init_raw((u8_t *)p + MEMP_SIZE, desc->size);
 140:../Dave/Generated/ETH_LWIP/lwip/core/memp.c **** }
 141:../Dave/Generated/ETH_LWIP/lwip/core/memp.c **** 
 142:../Dave/Generated/ETH_LWIP/lwip/core/memp.c **** #if MEMP_OVERFLOW_CHECK >= 2
 143:../Dave/Generated/ETH_LWIP/lwip/core/memp.c **** /**
 144:../Dave/Generated/ETH_LWIP/lwip/core/memp.c ****  * Do an overflow check for all elements in every pool.
 145:../Dave/Generated/ETH_LWIP/lwip/core/memp.c ****  *
 146:../Dave/Generated/ETH_LWIP/lwip/core/memp.c ****  * @see memp_overflow_check_element for a description of the check
 147:../Dave/Generated/ETH_LWIP/lwip/core/memp.c ****  */
 148:../Dave/Generated/ETH_LWIP/lwip/core/memp.c **** static void
 149:../Dave/Generated/ETH_LWIP/lwip/core/memp.c **** memp_overflow_check_all(void)
 150:../Dave/Generated/ETH_LWIP/lwip/core/memp.c **** {
 151:../Dave/Generated/ETH_LWIP/lwip/core/memp.c ****   u16_t i, j;
 152:../Dave/Generated/ETH_LWIP/lwip/core/memp.c ****   struct memp *p;
 153:../Dave/Generated/ETH_LWIP/lwip/core/memp.c ****   SYS_ARCH_DECL_PROTECT(old_level);
 154:../Dave/Generated/ETH_LWIP/lwip/core/memp.c ****   SYS_ARCH_PROTECT(old_level);
 155:../Dave/Generated/ETH_LWIP/lwip/core/memp.c **** 
 156:../Dave/Generated/ETH_LWIP/lwip/core/memp.c ****   for (i = 0; i < MEMP_MAX; ++i) {
 157:../Dave/Generated/ETH_LWIP/lwip/core/memp.c ****     p = (struct memp *)LWIP_MEM_ALIGN(memp_pools[i]->base);
 158:../Dave/Generated/ETH_LWIP/lwip/core/memp.c ****     for (j = 0; j < memp_pools[i]->num; ++j) {
 159:../Dave/Generated/ETH_LWIP/lwip/core/memp.c ****       memp_overflow_check_element(p, memp_pools[i]);
 160:../Dave/Generated/ETH_LWIP/lwip/core/memp.c ****       p = LWIP_ALIGNMENT_CAST(struct memp *, ((u8_t *)p + MEMP_SIZE + memp_pools[i]->size + MEM_SAN
 161:../Dave/Generated/ETH_LWIP/lwip/core/memp.c ****     }
 162:../Dave/Generated/ETH_LWIP/lwip/core/memp.c ****   }
 163:../Dave/Generated/ETH_LWIP/lwip/core/memp.c ****   SYS_ARCH_UNPROTECT(old_level);
 164:../Dave/Generated/ETH_LWIP/lwip/core/memp.c **** }
 165:../Dave/Generated/ETH_LWIP/lwip/core/memp.c **** #endif /* MEMP_OVERFLOW_CHECK >= 2 */
 166:../Dave/Generated/ETH_LWIP/lwip/core/memp.c **** #endif /* MEMP_OVERFLOW_CHECK */
 167:../Dave/Generated/ETH_LWIP/lwip/core/memp.c **** 
 168:../Dave/Generated/ETH_LWIP/lwip/core/memp.c **** /**
 169:../Dave/Generated/ETH_LWIP/lwip/core/memp.c ****  * Initialize custom memory pool.
 170:../Dave/Generated/ETH_LWIP/lwip/core/memp.c ****  * Related functions: memp_malloc_pool, memp_free_pool
 171:../Dave/Generated/ETH_LWIP/lwip/core/memp.c ****  *
 172:../Dave/Generated/ETH_LWIP/lwip/core/memp.c ****  * @param desc pool to initialize
 173:../Dave/Generated/ETH_LWIP/lwip/core/memp.c ****  */
 174:../Dave/Generated/ETH_LWIP/lwip/core/memp.c **** void
 175:../Dave/Generated/ETH_LWIP/lwip/core/memp.c **** memp_init_pool(const struct memp_desc *desc)
 176:../Dave/Generated/ETH_LWIP/lwip/core/memp.c **** {
 160              	 .loc 1 176 0
 161              	 .cfi_startproc
 162              	 
 163              	 
 164              	 
 165 0000 80B4     	 push {r7}
 166              	.LCFI0:
 167              	 .cfi_def_cfa_offset 4
 168              	 .cfi_offset 7,-4
 169 0002 85B0     	 sub sp,sp,#20
 170              	.LCFI1:
 171              	 .cfi_def_cfa_offset 24
 172 0004 00AF     	 add r7,sp,#0
 173              	.LCFI2:
 174              	 .cfi_def_cfa_register 7
 175 0006 7860     	 str r0,[r7,#4]
 177:../Dave/Generated/ETH_LWIP/lwip/core/memp.c **** #if MEMP_MEM_MALLOC
 178:../Dave/Generated/ETH_LWIP/lwip/core/memp.c ****   LWIP_UNUSED_ARG(desc);
 179:../Dave/Generated/ETH_LWIP/lwip/core/memp.c **** #else
 180:../Dave/Generated/ETH_LWIP/lwip/core/memp.c ****   int i;
 181:../Dave/Generated/ETH_LWIP/lwip/core/memp.c ****   struct memp *memp;
 182:../Dave/Generated/ETH_LWIP/lwip/core/memp.c **** 
 183:../Dave/Generated/ETH_LWIP/lwip/core/memp.c ****   *desc->tab = NULL;
 176              	 .loc 1 183 0
 177 0008 7B68     	 ldr r3,[r7,#4]
 178 000a 9B68     	 ldr r3,[r3,#8]
 179 000c 0022     	 movs r2,#0
 180 000e 1A60     	 str r2,[r3]
 184:../Dave/Generated/ETH_LWIP/lwip/core/memp.c ****   memp = (struct memp *)LWIP_MEM_ALIGN(desc->base);
 181              	 .loc 1 184 0
 182 0010 7B68     	 ldr r3,[r7,#4]
 183 0012 5B68     	 ldr r3,[r3,#4]
 184 0014 0333     	 adds r3,r3,#3
 185 0016 23F00303 	 bic r3,r3,#3
 186 001a BB60     	 str r3,[r7,#8]
 185:../Dave/Generated/ETH_LWIP/lwip/core/memp.c **** #if MEMP_MEM_INIT
 186:../Dave/Generated/ETH_LWIP/lwip/core/memp.c ****   /* force memset on pool memory */
 187:../Dave/Generated/ETH_LWIP/lwip/core/memp.c ****   memset(memp, 0, (size_t)desc->num * (MEMP_SIZE + desc->size
 188:../Dave/Generated/ETH_LWIP/lwip/core/memp.c **** #if MEMP_OVERFLOW_CHECK
 189:../Dave/Generated/ETH_LWIP/lwip/core/memp.c ****                                        + MEM_SANITY_REGION_AFTER_ALIGNED
 190:../Dave/Generated/ETH_LWIP/lwip/core/memp.c **** #endif
 191:../Dave/Generated/ETH_LWIP/lwip/core/memp.c ****                                       ));
 192:../Dave/Generated/ETH_LWIP/lwip/core/memp.c **** #endif
 193:../Dave/Generated/ETH_LWIP/lwip/core/memp.c ****   /* create a linked list of memp elements */
 194:../Dave/Generated/ETH_LWIP/lwip/core/memp.c ****   for (i = 0; i < desc->num; ++i) {
 187              	 .loc 1 194 0
 188 001c 0023     	 movs r3,#0
 189 001e FB60     	 str r3,[r7,#12]
 190 0020 11E0     	 b .L2
 191              	.L3:
 195:../Dave/Generated/ETH_LWIP/lwip/core/memp.c ****     memp->next = *desc->tab;
 192              	 .loc 1 195 0 discriminator 3
 193 0022 7B68     	 ldr r3,[r7,#4]
 194 0024 9B68     	 ldr r3,[r3,#8]
 195 0026 1A68     	 ldr r2,[r3]
 196 0028 BB68     	 ldr r3,[r7,#8]
 197 002a 1A60     	 str r2,[r3]
 196:../Dave/Generated/ETH_LWIP/lwip/core/memp.c ****     *desc->tab = memp;
 198              	 .loc 1 196 0 discriminator 3
 199 002c 7B68     	 ldr r3,[r7,#4]
 200 002e 9B68     	 ldr r3,[r3,#8]
 201 0030 BA68     	 ldr r2,[r7,#8]
 202 0032 1A60     	 str r2,[r3]
 197:../Dave/Generated/ETH_LWIP/lwip/core/memp.c **** #if MEMP_OVERFLOW_CHECK
 198:../Dave/Generated/ETH_LWIP/lwip/core/memp.c ****     memp_overflow_init_element(memp, desc);
 199:../Dave/Generated/ETH_LWIP/lwip/core/memp.c **** #endif /* MEMP_OVERFLOW_CHECK */
 200:../Dave/Generated/ETH_LWIP/lwip/core/memp.c ****     /* cast through void* to get rid of alignment warnings */
 201:../Dave/Generated/ETH_LWIP/lwip/core/memp.c ****     memp = (struct memp *)(void *)((u8_t *)memp + MEMP_SIZE + desc->size
 203              	 .loc 1 201 0 discriminator 3
 204 0034 7B68     	 ldr r3,[r7,#4]
 205 0036 1B88     	 ldrh r3,[r3]
 206 0038 1A46     	 mov r2,r3
 207 003a BB68     	 ldr r3,[r7,#8]
 208 003c 1344     	 add r3,r3,r2
 209 003e BB60     	 str r3,[r7,#8]
 194:../Dave/Generated/ETH_LWIP/lwip/core/memp.c ****     memp->next = *desc->tab;
 210              	 .loc 1 194 0 discriminator 3
 211 0040 FB68     	 ldr r3,[r7,#12]
 212 0042 0133     	 adds r3,r3,#1
 213 0044 FB60     	 str r3,[r7,#12]
 214              	.L2:
 194:../Dave/Generated/ETH_LWIP/lwip/core/memp.c ****     memp->next = *desc->tab;
 215              	 .loc 1 194 0 is_stmt 0 discriminator 1
 216 0046 7B68     	 ldr r3,[r7,#4]
 217 0048 5B88     	 ldrh r3,[r3,#2]
 218 004a 1A46     	 mov r2,r3
 219 004c FB68     	 ldr r3,[r7,#12]
 220 004e 9A42     	 cmp r2,r3
 221 0050 E7DC     	 bgt .L3
 202:../Dave/Generated/ETH_LWIP/lwip/core/memp.c **** #if MEMP_OVERFLOW_CHECK
 203:../Dave/Generated/ETH_LWIP/lwip/core/memp.c ****                                    + MEM_SANITY_REGION_AFTER_ALIGNED
 204:../Dave/Generated/ETH_LWIP/lwip/core/memp.c **** #endif
 205:../Dave/Generated/ETH_LWIP/lwip/core/memp.c ****                                   );
 206:../Dave/Generated/ETH_LWIP/lwip/core/memp.c ****   }
 207:../Dave/Generated/ETH_LWIP/lwip/core/memp.c **** #if MEMP_STATS
 208:../Dave/Generated/ETH_LWIP/lwip/core/memp.c ****   desc->stats->avail = desc->num;
 209:../Dave/Generated/ETH_LWIP/lwip/core/memp.c **** #endif /* MEMP_STATS */
 210:../Dave/Generated/ETH_LWIP/lwip/core/memp.c **** #endif /* !MEMP_MEM_MALLOC */
 211:../Dave/Generated/ETH_LWIP/lwip/core/memp.c **** 
 212:../Dave/Generated/ETH_LWIP/lwip/core/memp.c **** #if MEMP_STATS && (defined(LWIP_DEBUG) || LWIP_STATS_DISPLAY)
 213:../Dave/Generated/ETH_LWIP/lwip/core/memp.c ****   desc->stats->name  = desc->desc;
 214:../Dave/Generated/ETH_LWIP/lwip/core/memp.c **** #endif /* MEMP_STATS && (defined(LWIP_DEBUG) || LWIP_STATS_DISPLAY) */
 215:../Dave/Generated/ETH_LWIP/lwip/core/memp.c **** }
 222              	 .loc 1 215 0 is_stmt 1
 223 0052 1437     	 adds r7,r7,#20
 224              	.LCFI3:
 225              	 .cfi_def_cfa_offset 4
 226 0054 BD46     	 mov sp,r7
 227              	.LCFI4:
 228              	 .cfi_def_cfa_register 13
 229              	 
 230 0056 5DF8047B 	 ldr r7,[sp],#4
 231              	.LCFI5:
 232              	 .cfi_restore 7
 233              	 .cfi_def_cfa_offset 0
 234 005a 7047     	 bx lr
 235              	 .cfi_endproc
 236              	.LFE133:
 238              	 .section .text.memp_init,"ax",%progbits
 239              	 .align 2
 240              	 .global memp_init
 241              	 .thumb
 242              	 .thumb_func
 244              	memp_init:
 245              	.LFB134:
 216:../Dave/Generated/ETH_LWIP/lwip/core/memp.c **** 
 217:../Dave/Generated/ETH_LWIP/lwip/core/memp.c **** /**
 218:../Dave/Generated/ETH_LWIP/lwip/core/memp.c ****  * Initializes lwIP built-in pools.
 219:../Dave/Generated/ETH_LWIP/lwip/core/memp.c ****  * Related functions: memp_malloc, memp_free
 220:../Dave/Generated/ETH_LWIP/lwip/core/memp.c ****  *
 221:../Dave/Generated/ETH_LWIP/lwip/core/memp.c ****  * Carves out memp_memory into linked lists for each pool-type.
 222:../Dave/Generated/ETH_LWIP/lwip/core/memp.c ****  */
 223:../Dave/Generated/ETH_LWIP/lwip/core/memp.c **** void
 224:../Dave/Generated/ETH_LWIP/lwip/core/memp.c **** memp_init(void)
 225:../Dave/Generated/ETH_LWIP/lwip/core/memp.c **** {
 246              	 .loc 1 225 0
 247              	 .cfi_startproc
 248              	 
 249              	 
 250 0000 80B5     	 push {r7,lr}
 251              	.LCFI6:
 252              	 .cfi_def_cfa_offset 8
 253              	 .cfi_offset 7,-8
 254              	 .cfi_offset 14,-4
 255 0002 82B0     	 sub sp,sp,#8
 256              	.LCFI7:
 257              	 .cfi_def_cfa_offset 16
 258 0004 00AF     	 add r7,sp,#0
 259              	.LCFI8:
 260              	 .cfi_def_cfa_register 7
 226:../Dave/Generated/ETH_LWIP/lwip/core/memp.c ****   u16_t i;
 227:../Dave/Generated/ETH_LWIP/lwip/core/memp.c **** 
 228:../Dave/Generated/ETH_LWIP/lwip/core/memp.c ****   /* for every pool: */
 229:../Dave/Generated/ETH_LWIP/lwip/core/memp.c ****   for (i = 0; i < LWIP_ARRAYSIZE(memp_pools); i++) {
 261              	 .loc 1 229 0
 262 0006 0023     	 movs r3,#0
 263 0008 FB80     	 strh r3,[r7,#6]
 264 000a 09E0     	 b .L5
 265              	.L6:
 230:../Dave/Generated/ETH_LWIP/lwip/core/memp.c ****     memp_init_pool(memp_pools[i]);
 266              	 .loc 1 230 0 discriminator 3
 267 000c FB88     	 ldrh r3,[r7,#6]
 268 000e 074A     	 ldr r2,.L7
 269 0010 52F82330 	 ldr r3,[r2,r3,lsl#2]
 270 0014 1846     	 mov r0,r3
 271 0016 FFF7FEFF 	 bl memp_init_pool
 229:../Dave/Generated/ETH_LWIP/lwip/core/memp.c ****     memp_init_pool(memp_pools[i]);
 272              	 .loc 1 229 0 discriminator 3
 273 001a FB88     	 ldrh r3,[r7,#6]
 274 001c 0133     	 adds r3,r3,#1
 275 001e FB80     	 strh r3,[r7,#6]
 276              	.L5:
 229:../Dave/Generated/ETH_LWIP/lwip/core/memp.c ****     memp_init_pool(memp_pools[i]);
 277              	 .loc 1 229 0 is_stmt 0 discriminator 1
 278 0020 FB88     	 ldrh r3,[r7,#6]
 279 0022 062B     	 cmp r3,#6
 280 0024 F2D9     	 bls .L6
 231:../Dave/Generated/ETH_LWIP/lwip/core/memp.c **** 
 232:../Dave/Generated/ETH_LWIP/lwip/core/memp.c **** #if LWIP_STATS && MEMP_STATS
 233:../Dave/Generated/ETH_LWIP/lwip/core/memp.c ****     lwip_stats.memp[i] = memp_pools[i]->stats;
 234:../Dave/Generated/ETH_LWIP/lwip/core/memp.c **** #endif
 235:../Dave/Generated/ETH_LWIP/lwip/core/memp.c ****   }
 236:../Dave/Generated/ETH_LWIP/lwip/core/memp.c **** 
 237:../Dave/Generated/ETH_LWIP/lwip/core/memp.c **** #if MEMP_OVERFLOW_CHECK >= 2
 238:../Dave/Generated/ETH_LWIP/lwip/core/memp.c ****   /* check everything a first time to see if it worked */
 239:../Dave/Generated/ETH_LWIP/lwip/core/memp.c ****   memp_overflow_check_all();
 240:../Dave/Generated/ETH_LWIP/lwip/core/memp.c **** #endif /* MEMP_OVERFLOW_CHECK >= 2 */
 241:../Dave/Generated/ETH_LWIP/lwip/core/memp.c **** }
 281              	 .loc 1 241 0 is_stmt 1
 282 0026 0837     	 adds r7,r7,#8
 283              	.LCFI9:
 284              	 .cfi_def_cfa_offset 8
 285 0028 BD46     	 mov sp,r7
 286              	.LCFI10:
 287              	 .cfi_def_cfa_register 13
 288              	 
 289 002a 80BD     	 pop {r7,pc}
 290              	.L8:
 291              	 .align 2
 292              	.L7:
 293 002c 00000000 	 .word memp_pools
 294              	 .cfi_endproc
 295              	.LFE134:
 297              	 .section .text.do_memp_malloc_pool,"ax",%progbits
 298              	 .align 2
 299              	 .thumb
 300              	 .thumb_func
 302              	do_memp_malloc_pool:
 303              	.LFB135:
 242:../Dave/Generated/ETH_LWIP/lwip/core/memp.c **** 
 243:../Dave/Generated/ETH_LWIP/lwip/core/memp.c **** static void *
 244:../Dave/Generated/ETH_LWIP/lwip/core/memp.c **** #if !MEMP_OVERFLOW_CHECK
 245:../Dave/Generated/ETH_LWIP/lwip/core/memp.c **** do_memp_malloc_pool(const struct memp_desc *desc)
 246:../Dave/Generated/ETH_LWIP/lwip/core/memp.c **** #else
 247:../Dave/Generated/ETH_LWIP/lwip/core/memp.c **** do_memp_malloc_pool_fn(const struct memp_desc *desc, const char *file, const int line)
 248:../Dave/Generated/ETH_LWIP/lwip/core/memp.c **** #endif
 249:../Dave/Generated/ETH_LWIP/lwip/core/memp.c **** {
 304              	 .loc 1 249 0
 305              	 .cfi_startproc
 306              	 
 307              	 
 308              	 
 309 0000 80B4     	 push {r7}
 310              	.LCFI11:
 311              	 .cfi_def_cfa_offset 4
 312              	 .cfi_offset 7,-4
 313 0002 85B0     	 sub sp,sp,#20
 314              	.LCFI12:
 315              	 .cfi_def_cfa_offset 24
 316 0004 00AF     	 add r7,sp,#0
 317              	.LCFI13:
 318              	 .cfi_def_cfa_register 7
 319 0006 7860     	 str r0,[r7,#4]
 250:../Dave/Generated/ETH_LWIP/lwip/core/memp.c ****   struct memp *memp;
 251:../Dave/Generated/ETH_LWIP/lwip/core/memp.c ****   SYS_ARCH_DECL_PROTECT(old_level);
 252:../Dave/Generated/ETH_LWIP/lwip/core/memp.c **** 
 253:../Dave/Generated/ETH_LWIP/lwip/core/memp.c **** #if MEMP_MEM_MALLOC
 254:../Dave/Generated/ETH_LWIP/lwip/core/memp.c ****   memp = (struct memp *)mem_malloc(MEMP_SIZE + MEMP_ALIGN_SIZE(desc->size));
 255:../Dave/Generated/ETH_LWIP/lwip/core/memp.c ****   SYS_ARCH_PROTECT(old_level);
 256:../Dave/Generated/ETH_LWIP/lwip/core/memp.c **** #else /* MEMP_MEM_MALLOC */
 257:../Dave/Generated/ETH_LWIP/lwip/core/memp.c ****   SYS_ARCH_PROTECT(old_level);
 258:../Dave/Generated/ETH_LWIP/lwip/core/memp.c **** 
 259:../Dave/Generated/ETH_LWIP/lwip/core/memp.c ****   memp = *desc->tab;
 320              	 .loc 1 259 0
 321 0008 7B68     	 ldr r3,[r7,#4]
 322 000a 9B68     	 ldr r3,[r3,#8]
 323 000c 1B68     	 ldr r3,[r3]
 324 000e FB60     	 str r3,[r7,#12]
 260:../Dave/Generated/ETH_LWIP/lwip/core/memp.c **** #endif /* MEMP_MEM_MALLOC */
 261:../Dave/Generated/ETH_LWIP/lwip/core/memp.c **** 
 262:../Dave/Generated/ETH_LWIP/lwip/core/memp.c ****   if (memp != NULL) {
 325              	 .loc 1 262 0
 326 0010 FB68     	 ldr r3,[r7,#12]
 327 0012 002B     	 cmp r3,#0
 328 0014 06D0     	 beq .L10
 263:../Dave/Generated/ETH_LWIP/lwip/core/memp.c **** #if !MEMP_MEM_MALLOC
 264:../Dave/Generated/ETH_LWIP/lwip/core/memp.c **** #if MEMP_OVERFLOW_CHECK == 1
 265:../Dave/Generated/ETH_LWIP/lwip/core/memp.c ****     memp_overflow_check_element(memp, desc);
 266:../Dave/Generated/ETH_LWIP/lwip/core/memp.c **** #endif /* MEMP_OVERFLOW_CHECK */
 267:../Dave/Generated/ETH_LWIP/lwip/core/memp.c **** 
 268:../Dave/Generated/ETH_LWIP/lwip/core/memp.c ****     *desc->tab = memp->next;
 329              	 .loc 1 268 0
 330 0016 7B68     	 ldr r3,[r7,#4]
 331 0018 9B68     	 ldr r3,[r3,#8]
 332 001a FA68     	 ldr r2,[r7,#12]
 333 001c 1268     	 ldr r2,[r2]
 334 001e 1A60     	 str r2,[r3]
 269:../Dave/Generated/ETH_LWIP/lwip/core/memp.c **** #if MEMP_OVERFLOW_CHECK
 270:../Dave/Generated/ETH_LWIP/lwip/core/memp.c ****     memp->next = NULL;
 271:../Dave/Generated/ETH_LWIP/lwip/core/memp.c **** #endif /* MEMP_OVERFLOW_CHECK */
 272:../Dave/Generated/ETH_LWIP/lwip/core/memp.c **** #endif /* !MEMP_MEM_MALLOC */
 273:../Dave/Generated/ETH_LWIP/lwip/core/memp.c **** #if MEMP_OVERFLOW_CHECK
 274:../Dave/Generated/ETH_LWIP/lwip/core/memp.c ****     memp->file = file;
 275:../Dave/Generated/ETH_LWIP/lwip/core/memp.c ****     memp->line = line;
 276:../Dave/Generated/ETH_LWIP/lwip/core/memp.c **** #if MEMP_MEM_MALLOC
 277:../Dave/Generated/ETH_LWIP/lwip/core/memp.c ****     memp_overflow_init_element(memp, desc);
 278:../Dave/Generated/ETH_LWIP/lwip/core/memp.c **** #endif /* MEMP_MEM_MALLOC */
 279:../Dave/Generated/ETH_LWIP/lwip/core/memp.c **** #endif /* MEMP_OVERFLOW_CHECK */
 280:../Dave/Generated/ETH_LWIP/lwip/core/memp.c ****     LWIP_ASSERT("memp_malloc: memp properly aligned",
 281:../Dave/Generated/ETH_LWIP/lwip/core/memp.c ****                 ((mem_ptr_t)memp % MEM_ALIGNMENT) == 0);
 282:../Dave/Generated/ETH_LWIP/lwip/core/memp.c **** #if MEMP_STATS
 283:../Dave/Generated/ETH_LWIP/lwip/core/memp.c ****     desc->stats->used++;
 284:../Dave/Generated/ETH_LWIP/lwip/core/memp.c ****     if (desc->stats->used > desc->stats->max) {
 285:../Dave/Generated/ETH_LWIP/lwip/core/memp.c ****       desc->stats->max = desc->stats->used;
 286:../Dave/Generated/ETH_LWIP/lwip/core/memp.c ****     }
 287:../Dave/Generated/ETH_LWIP/lwip/core/memp.c **** #endif
 288:../Dave/Generated/ETH_LWIP/lwip/core/memp.c ****     SYS_ARCH_UNPROTECT(old_level);
 289:../Dave/Generated/ETH_LWIP/lwip/core/memp.c ****     /* cast through u8_t* to get rid of alignment warnings */
 290:../Dave/Generated/ETH_LWIP/lwip/core/memp.c ****     return ((u8_t *)memp + MEMP_SIZE);
 335              	 .loc 1 290 0
 336 0020 FB68     	 ldr r3,[r7,#12]
 337 0022 00E0     	 b .L11
 338              	.L10:
 291:../Dave/Generated/ETH_LWIP/lwip/core/memp.c ****   } else {
 292:../Dave/Generated/ETH_LWIP/lwip/core/memp.c **** #if MEMP_STATS
 293:../Dave/Generated/ETH_LWIP/lwip/core/memp.c ****     desc->stats->err++;
 294:../Dave/Generated/ETH_LWIP/lwip/core/memp.c **** #endif
 295:../Dave/Generated/ETH_LWIP/lwip/core/memp.c ****     SYS_ARCH_UNPROTECT(old_level);
 296:../Dave/Generated/ETH_LWIP/lwip/core/memp.c ****     LWIP_DEBUGF(MEMP_DEBUG | LWIP_DBG_LEVEL_SERIOUS, ("memp_malloc: out of memory in pool %s\n", de
 297:../Dave/Generated/ETH_LWIP/lwip/core/memp.c ****   }
 298:../Dave/Generated/ETH_LWIP/lwip/core/memp.c **** 
 299:../Dave/Generated/ETH_LWIP/lwip/core/memp.c ****   return NULL;
 339              	 .loc 1 299 0
 340 0024 0023     	 movs r3,#0
 341              	.L11:
 300:../Dave/Generated/ETH_LWIP/lwip/core/memp.c **** }
 342              	 .loc 1 300 0
 343 0026 1846     	 mov r0,r3
 344 0028 1437     	 adds r7,r7,#20
 345              	.LCFI14:
 346              	 .cfi_def_cfa_offset 4
 347 002a BD46     	 mov sp,r7
 348              	.LCFI15:
 349              	 .cfi_def_cfa_register 13
 350              	 
 351 002c 5DF8047B 	 ldr r7,[sp],#4
 352              	.LCFI16:
 353              	 .cfi_restore 7
 354              	 .cfi_def_cfa_offset 0
 355 0030 7047     	 bx lr
 356              	 .cfi_endproc
 357              	.LFE135:
 359 0032 00BF     	 .section .text.memp_malloc_pool,"ax",%progbits
 360              	 .align 2
 361              	 .global memp_malloc_pool
 362              	 .thumb
 363              	 .thumb_func
 365              	memp_malloc_pool:
 366              	.LFB136:
 301:../Dave/Generated/ETH_LWIP/lwip/core/memp.c **** 
 302:../Dave/Generated/ETH_LWIP/lwip/core/memp.c **** /**
 303:../Dave/Generated/ETH_LWIP/lwip/core/memp.c ****  * Get an element from a custom pool.
 304:../Dave/Generated/ETH_LWIP/lwip/core/memp.c ****  *
 305:../Dave/Generated/ETH_LWIP/lwip/core/memp.c ****  * @param desc the pool to get an element from
 306:../Dave/Generated/ETH_LWIP/lwip/core/memp.c ****  *
 307:../Dave/Generated/ETH_LWIP/lwip/core/memp.c ****  * @return a pointer to the allocated memory or a NULL pointer on error
 308:../Dave/Generated/ETH_LWIP/lwip/core/memp.c ****  */
 309:../Dave/Generated/ETH_LWIP/lwip/core/memp.c **** void *
 310:../Dave/Generated/ETH_LWIP/lwip/core/memp.c **** #if !MEMP_OVERFLOW_CHECK
 311:../Dave/Generated/ETH_LWIP/lwip/core/memp.c **** memp_malloc_pool(const struct memp_desc *desc)
 312:../Dave/Generated/ETH_LWIP/lwip/core/memp.c **** #else
 313:../Dave/Generated/ETH_LWIP/lwip/core/memp.c **** memp_malloc_pool_fn(const struct memp_desc *desc, const char *file, const int line)
 314:../Dave/Generated/ETH_LWIP/lwip/core/memp.c **** #endif
 315:../Dave/Generated/ETH_LWIP/lwip/core/memp.c **** {
 367              	 .loc 1 315 0
 368              	 .cfi_startproc
 369              	 
 370              	 
 371 0000 80B5     	 push {r7,lr}
 372              	.LCFI17:
 373              	 .cfi_def_cfa_offset 8
 374              	 .cfi_offset 7,-8
 375              	 .cfi_offset 14,-4
 376 0002 82B0     	 sub sp,sp,#8
 377              	.LCFI18:
 378              	 .cfi_def_cfa_offset 16
 379 0004 00AF     	 add r7,sp,#0
 380              	.LCFI19:
 381              	 .cfi_def_cfa_register 7
 382 0006 7860     	 str r0,[r7,#4]
 316:../Dave/Generated/ETH_LWIP/lwip/core/memp.c ****   LWIP_ASSERT("invalid pool desc", desc != NULL);
 317:../Dave/Generated/ETH_LWIP/lwip/core/memp.c ****   if (desc == NULL) {
 383              	 .loc 1 317 0
 384 0008 7B68     	 ldr r3,[r7,#4]
 385 000a 002B     	 cmp r3,#0
 386 000c 01D1     	 bne .L13
 318:../Dave/Generated/ETH_LWIP/lwip/core/memp.c ****     return NULL;
 387              	 .loc 1 318 0
 388 000e 0023     	 movs r3,#0
 389 0010 03E0     	 b .L14
 390              	.L13:
 319:../Dave/Generated/ETH_LWIP/lwip/core/memp.c ****   }
 320:../Dave/Generated/ETH_LWIP/lwip/core/memp.c **** 
 321:../Dave/Generated/ETH_LWIP/lwip/core/memp.c **** #if !MEMP_OVERFLOW_CHECK
 322:../Dave/Generated/ETH_LWIP/lwip/core/memp.c ****   return do_memp_malloc_pool(desc);
 391              	 .loc 1 322 0
 392 0012 7868     	 ldr r0,[r7,#4]
 393 0014 FFF7FEFF 	 bl do_memp_malloc_pool
 394 0018 0346     	 mov r3,r0
 395              	.L14:
 323:../Dave/Generated/ETH_LWIP/lwip/core/memp.c **** #else
 324:../Dave/Generated/ETH_LWIP/lwip/core/memp.c ****   return do_memp_malloc_pool_fn(desc, file, line);
 325:../Dave/Generated/ETH_LWIP/lwip/core/memp.c **** #endif
 326:../Dave/Generated/ETH_LWIP/lwip/core/memp.c **** }
 396              	 .loc 1 326 0
 397 001a 1846     	 mov r0,r3
 398 001c 0837     	 adds r7,r7,#8
 399              	.LCFI20:
 400              	 .cfi_def_cfa_offset 8
 401 001e BD46     	 mov sp,r7
 402              	.LCFI21:
 403              	 .cfi_def_cfa_register 13
 404              	 
 405 0020 80BD     	 pop {r7,pc}
 406              	 .cfi_endproc
 407              	.LFE136:
 409 0022 00BF     	 .section .text.memp_malloc,"ax",%progbits
 410              	 .align 2
 411              	 .global memp_malloc
 412              	 .thumb
 413              	 .thumb_func
 415              	memp_malloc:
 416              	.LFB137:
 327:../Dave/Generated/ETH_LWIP/lwip/core/memp.c **** 
 328:../Dave/Generated/ETH_LWIP/lwip/core/memp.c **** /**
 329:../Dave/Generated/ETH_LWIP/lwip/core/memp.c ****  * Get an element from a specific pool.
 330:../Dave/Generated/ETH_LWIP/lwip/core/memp.c ****  *
 331:../Dave/Generated/ETH_LWIP/lwip/core/memp.c ****  * @param type the pool to get an element from
 332:../Dave/Generated/ETH_LWIP/lwip/core/memp.c ****  *
 333:../Dave/Generated/ETH_LWIP/lwip/core/memp.c ****  * @return a pointer to the allocated memory or a NULL pointer on error
 334:../Dave/Generated/ETH_LWIP/lwip/core/memp.c ****  */
 335:../Dave/Generated/ETH_LWIP/lwip/core/memp.c **** void *
 336:../Dave/Generated/ETH_LWIP/lwip/core/memp.c **** #if !MEMP_OVERFLOW_CHECK
 337:../Dave/Generated/ETH_LWIP/lwip/core/memp.c **** memp_malloc(memp_t type)
 338:../Dave/Generated/ETH_LWIP/lwip/core/memp.c **** #else
 339:../Dave/Generated/ETH_LWIP/lwip/core/memp.c **** memp_malloc_fn(memp_t type, const char *file, const int line)
 340:../Dave/Generated/ETH_LWIP/lwip/core/memp.c **** #endif
 341:../Dave/Generated/ETH_LWIP/lwip/core/memp.c **** {
 417              	 .loc 1 341 0
 418              	 .cfi_startproc
 419              	 
 420              	 
 421 0000 80B5     	 push {r7,lr}
 422              	.LCFI22:
 423              	 .cfi_def_cfa_offset 8
 424              	 .cfi_offset 7,-8
 425              	 .cfi_offset 14,-4
 426 0002 84B0     	 sub sp,sp,#16
 427              	.LCFI23:
 428              	 .cfi_def_cfa_offset 24
 429 0004 00AF     	 add r7,sp,#0
 430              	.LCFI24:
 431              	 .cfi_def_cfa_register 7
 432 0006 0346     	 mov r3,r0
 433 0008 FB71     	 strb r3,[r7,#7]
 342:../Dave/Generated/ETH_LWIP/lwip/core/memp.c ****   void *memp;
 343:../Dave/Generated/ETH_LWIP/lwip/core/memp.c ****   LWIP_ERROR("memp_malloc: type < MEMP_MAX", (type < MEMP_MAX), return NULL;);
 434              	 .loc 1 343 0
 435 000a FB79     	 ldrb r3,[r7,#7]
 436 000c 062B     	 cmp r3,#6
 437 000e 01D9     	 bls .L16
 438              	 .loc 1 343 0 is_stmt 0 discriminator 1
 439 0010 0023     	 movs r3,#0
 440 0012 08E0     	 b .L17
 441              	.L16:
 344:../Dave/Generated/ETH_LWIP/lwip/core/memp.c **** 
 345:../Dave/Generated/ETH_LWIP/lwip/core/memp.c **** #if MEMP_OVERFLOW_CHECK >= 2
 346:../Dave/Generated/ETH_LWIP/lwip/core/memp.c ****   memp_overflow_check_all();
 347:../Dave/Generated/ETH_LWIP/lwip/core/memp.c **** #endif /* MEMP_OVERFLOW_CHECK >= 2 */
 348:../Dave/Generated/ETH_LWIP/lwip/core/memp.c **** 
 349:../Dave/Generated/ETH_LWIP/lwip/core/memp.c **** #if !MEMP_OVERFLOW_CHECK
 350:../Dave/Generated/ETH_LWIP/lwip/core/memp.c ****   memp = do_memp_malloc_pool(memp_pools[type]);
 442              	 .loc 1 350 0 is_stmt 1
 443 0014 FB79     	 ldrb r3,[r7,#7]
 444 0016 064A     	 ldr r2,.L18
 445 0018 52F82330 	 ldr r3,[r2,r3,lsl#2]
 446 001c 1846     	 mov r0,r3
 447 001e FFF7FEFF 	 bl do_memp_malloc_pool
 448 0022 F860     	 str r0,[r7,#12]
 351:../Dave/Generated/ETH_LWIP/lwip/core/memp.c **** #else
 352:../Dave/Generated/ETH_LWIP/lwip/core/memp.c ****   memp = do_memp_malloc_pool_fn(memp_pools[type], file, line);
 353:../Dave/Generated/ETH_LWIP/lwip/core/memp.c **** #endif
 354:../Dave/Generated/ETH_LWIP/lwip/core/memp.c **** 
 355:../Dave/Generated/ETH_LWIP/lwip/core/memp.c ****   return memp;
 449              	 .loc 1 355 0
 450 0024 FB68     	 ldr r3,[r7,#12]
 451              	.L17:
 356:../Dave/Generated/ETH_LWIP/lwip/core/memp.c **** }
 452              	 .loc 1 356 0
 453 0026 1846     	 mov r0,r3
 454 0028 1037     	 adds r7,r7,#16
 455              	.LCFI25:
 456              	 .cfi_def_cfa_offset 8
 457 002a BD46     	 mov sp,r7
 458              	.LCFI26:
 459              	 .cfi_def_cfa_register 13
 460              	 
 461 002c 80BD     	 pop {r7,pc}
 462              	.L19:
 463 002e 00BF     	 .align 2
 464              	.L18:
 465 0030 00000000 	 .word memp_pools
 466              	 .cfi_endproc
 467              	.LFE137:
 469              	 .section .text.do_memp_free_pool,"ax",%progbits
 470              	 .align 2
 471              	 .thumb
 472              	 .thumb_func
 474              	do_memp_free_pool:
 475              	.LFB138:
 357:../Dave/Generated/ETH_LWIP/lwip/core/memp.c **** 
 358:../Dave/Generated/ETH_LWIP/lwip/core/memp.c **** static void
 359:../Dave/Generated/ETH_LWIP/lwip/core/memp.c **** do_memp_free_pool(const struct memp_desc *desc, void *mem)
 360:../Dave/Generated/ETH_LWIP/lwip/core/memp.c **** {
 476              	 .loc 1 360 0
 477              	 .cfi_startproc
 478              	 
 479              	 
 480              	 
 481 0000 80B4     	 push {r7}
 482              	.LCFI27:
 483              	 .cfi_def_cfa_offset 4
 484              	 .cfi_offset 7,-4
 485 0002 85B0     	 sub sp,sp,#20
 486              	.LCFI28:
 487              	 .cfi_def_cfa_offset 24
 488 0004 00AF     	 add r7,sp,#0
 489              	.LCFI29:
 490              	 .cfi_def_cfa_register 7
 491 0006 7860     	 str r0,[r7,#4]
 492 0008 3960     	 str r1,[r7]
 361:../Dave/Generated/ETH_LWIP/lwip/core/memp.c ****   struct memp *memp;
 362:../Dave/Generated/ETH_LWIP/lwip/core/memp.c ****   SYS_ARCH_DECL_PROTECT(old_level);
 363:../Dave/Generated/ETH_LWIP/lwip/core/memp.c **** 
 364:../Dave/Generated/ETH_LWIP/lwip/core/memp.c ****   LWIP_ASSERT("memp_free: mem properly aligned",
 365:../Dave/Generated/ETH_LWIP/lwip/core/memp.c ****               ((mem_ptr_t)mem % MEM_ALIGNMENT) == 0);
 366:../Dave/Generated/ETH_LWIP/lwip/core/memp.c **** 
 367:../Dave/Generated/ETH_LWIP/lwip/core/memp.c ****   /* cast through void* to get rid of alignment warnings */
 368:../Dave/Generated/ETH_LWIP/lwip/core/memp.c ****   memp = (struct memp *)(void *)((u8_t *)mem - MEMP_SIZE);
 493              	 .loc 1 368 0
 494 000a 3B68     	 ldr r3,[r7]
 495 000c FB60     	 str r3,[r7,#12]
 369:../Dave/Generated/ETH_LWIP/lwip/core/memp.c **** 
 370:../Dave/Generated/ETH_LWIP/lwip/core/memp.c ****   SYS_ARCH_PROTECT(old_level);
 371:../Dave/Generated/ETH_LWIP/lwip/core/memp.c **** 
 372:../Dave/Generated/ETH_LWIP/lwip/core/memp.c **** #if MEMP_OVERFLOW_CHECK == 1
 373:../Dave/Generated/ETH_LWIP/lwip/core/memp.c ****   memp_overflow_check_element(memp, desc);
 374:../Dave/Generated/ETH_LWIP/lwip/core/memp.c **** #endif /* MEMP_OVERFLOW_CHECK */
 375:../Dave/Generated/ETH_LWIP/lwip/core/memp.c **** 
 376:../Dave/Generated/ETH_LWIP/lwip/core/memp.c **** #if MEMP_STATS
 377:../Dave/Generated/ETH_LWIP/lwip/core/memp.c ****   desc->stats->used--;
 378:../Dave/Generated/ETH_LWIP/lwip/core/memp.c **** #endif
 379:../Dave/Generated/ETH_LWIP/lwip/core/memp.c **** 
 380:../Dave/Generated/ETH_LWIP/lwip/core/memp.c **** #if MEMP_MEM_MALLOC
 381:../Dave/Generated/ETH_LWIP/lwip/core/memp.c ****   LWIP_UNUSED_ARG(desc);
 382:../Dave/Generated/ETH_LWIP/lwip/core/memp.c ****   SYS_ARCH_UNPROTECT(old_level);
 383:../Dave/Generated/ETH_LWIP/lwip/core/memp.c ****   mem_free(memp);
 384:../Dave/Generated/ETH_LWIP/lwip/core/memp.c **** #else /* MEMP_MEM_MALLOC */
 385:../Dave/Generated/ETH_LWIP/lwip/core/memp.c ****   memp->next = *desc->tab;
 496              	 .loc 1 385 0
 497 000e 7B68     	 ldr r3,[r7,#4]
 498 0010 9B68     	 ldr r3,[r3,#8]
 499 0012 1A68     	 ldr r2,[r3]
 500 0014 FB68     	 ldr r3,[r7,#12]
 501 0016 1A60     	 str r2,[r3]
 386:../Dave/Generated/ETH_LWIP/lwip/core/memp.c ****   *desc->tab = memp;
 502              	 .loc 1 386 0
 503 0018 7B68     	 ldr r3,[r7,#4]
 504 001a 9B68     	 ldr r3,[r3,#8]
 505 001c FA68     	 ldr r2,[r7,#12]
 506 001e 1A60     	 str r2,[r3]
 387:../Dave/Generated/ETH_LWIP/lwip/core/memp.c **** 
 388:../Dave/Generated/ETH_LWIP/lwip/core/memp.c **** #if MEMP_SANITY_CHECK
 389:../Dave/Generated/ETH_LWIP/lwip/core/memp.c ****   LWIP_ASSERT("memp sanity", memp_sanity(desc));
 390:../Dave/Generated/ETH_LWIP/lwip/core/memp.c **** #endif /* MEMP_SANITY_CHECK */
 391:../Dave/Generated/ETH_LWIP/lwip/core/memp.c **** 
 392:../Dave/Generated/ETH_LWIP/lwip/core/memp.c ****   SYS_ARCH_UNPROTECT(old_level);
 393:../Dave/Generated/ETH_LWIP/lwip/core/memp.c **** #endif /* !MEMP_MEM_MALLOC */
 394:../Dave/Generated/ETH_LWIP/lwip/core/memp.c **** }
 507              	 .loc 1 394 0
 508 0020 1437     	 adds r7,r7,#20
 509              	.LCFI30:
 510              	 .cfi_def_cfa_offset 4
 511 0022 BD46     	 mov sp,r7
 512              	.LCFI31:
 513              	 .cfi_def_cfa_register 13
 514              	 
 515 0024 5DF8047B 	 ldr r7,[sp],#4
 516              	.LCFI32:
 517              	 .cfi_restore 7
 518              	 .cfi_def_cfa_offset 0
 519 0028 7047     	 bx lr
 520              	 .cfi_endproc
 521              	.LFE138:
 523 002a 00BF     	 .section .text.memp_free_pool,"ax",%progbits
 524              	 .align 2
 525              	 .global memp_free_pool
 526              	 .thumb
 527              	 .thumb_func
 529              	memp_free_pool:
 530              	.LFB139:
 395:../Dave/Generated/ETH_LWIP/lwip/core/memp.c **** 
 396:../Dave/Generated/ETH_LWIP/lwip/core/memp.c **** /**
 397:../Dave/Generated/ETH_LWIP/lwip/core/memp.c ****  * Put a custom pool element back into its pool.
 398:../Dave/Generated/ETH_LWIP/lwip/core/memp.c ****  *
 399:../Dave/Generated/ETH_LWIP/lwip/core/memp.c ****  * @param desc the pool where to put mem
 400:../Dave/Generated/ETH_LWIP/lwip/core/memp.c ****  * @param mem the memp element to free
 401:../Dave/Generated/ETH_LWIP/lwip/core/memp.c ****  */
 402:../Dave/Generated/ETH_LWIP/lwip/core/memp.c **** void
 403:../Dave/Generated/ETH_LWIP/lwip/core/memp.c **** memp_free_pool(const struct memp_desc *desc, void *mem)
 404:../Dave/Generated/ETH_LWIP/lwip/core/memp.c **** {
 531              	 .loc 1 404 0
 532              	 .cfi_startproc
 533              	 
 534              	 
 535 0000 80B5     	 push {r7,lr}
 536              	.LCFI33:
 537              	 .cfi_def_cfa_offset 8
 538              	 .cfi_offset 7,-8
 539              	 .cfi_offset 14,-4
 540 0002 82B0     	 sub sp,sp,#8
 541              	.LCFI34:
 542              	 .cfi_def_cfa_offset 16
 543 0004 00AF     	 add r7,sp,#0
 544              	.LCFI35:
 545              	 .cfi_def_cfa_register 7
 546 0006 7860     	 str r0,[r7,#4]
 547 0008 3960     	 str r1,[r7]
 405:../Dave/Generated/ETH_LWIP/lwip/core/memp.c ****   LWIP_ASSERT("invalid pool desc", desc != NULL);
 406:../Dave/Generated/ETH_LWIP/lwip/core/memp.c ****   if ((desc == NULL) || (mem == NULL)) {
 548              	 .loc 1 406 0
 549 000a 7B68     	 ldr r3,[r7,#4]
 550 000c 002B     	 cmp r3,#0
 551 000e 02D0     	 beq .L22
 552              	 .loc 1 406 0 is_stmt 0 discriminator 1
 553 0010 3B68     	 ldr r3,[r7]
 554 0012 002B     	 cmp r3,#0
 555 0014 00D1     	 bne .L23
 556              	.L22:
 407:../Dave/Generated/ETH_LWIP/lwip/core/memp.c ****     return;
 557              	 .loc 1 407 0 is_stmt 1
 558 0016 03E0     	 b .L21
 559              	.L23:
 408:../Dave/Generated/ETH_LWIP/lwip/core/memp.c ****   }
 409:../Dave/Generated/ETH_LWIP/lwip/core/memp.c **** 
 410:../Dave/Generated/ETH_LWIP/lwip/core/memp.c ****   do_memp_free_pool(desc, mem);
 560              	 .loc 1 410 0
 561 0018 7868     	 ldr r0,[r7,#4]
 562 001a 3968     	 ldr r1,[r7]
 563 001c FFF7FEFF 	 bl do_memp_free_pool
 564              	.L21:
 411:../Dave/Generated/ETH_LWIP/lwip/core/memp.c **** }
 565              	 .loc 1 411 0
 566 0020 0837     	 adds r7,r7,#8
 567              	.LCFI36:
 568              	 .cfi_def_cfa_offset 8
 569 0022 BD46     	 mov sp,r7
 570              	.LCFI37:
 571              	 .cfi_def_cfa_register 13
 572              	 
 573 0024 80BD     	 pop {r7,pc}
 574              	 .cfi_endproc
 575              	.LFE139:
 577 0026 00BF     	 .section .text.memp_free,"ax",%progbits
 578              	 .align 2
 579              	 .global memp_free
 580              	 .thumb
 581              	 .thumb_func
 583              	memp_free:
 584              	.LFB140:
 412:../Dave/Generated/ETH_LWIP/lwip/core/memp.c **** 
 413:../Dave/Generated/ETH_LWIP/lwip/core/memp.c **** /**
 414:../Dave/Generated/ETH_LWIP/lwip/core/memp.c ****  * Put an element back into its pool.
 415:../Dave/Generated/ETH_LWIP/lwip/core/memp.c ****  *
 416:../Dave/Generated/ETH_LWIP/lwip/core/memp.c ****  * @param type the pool where to put mem
 417:../Dave/Generated/ETH_LWIP/lwip/core/memp.c ****  * @param mem the memp element to free
 418:../Dave/Generated/ETH_LWIP/lwip/core/memp.c ****  */
 419:../Dave/Generated/ETH_LWIP/lwip/core/memp.c **** void
 420:../Dave/Generated/ETH_LWIP/lwip/core/memp.c **** memp_free(memp_t type, void *mem)
 421:../Dave/Generated/ETH_LWIP/lwip/core/memp.c **** {
 585              	 .loc 1 421 0
 586              	 .cfi_startproc
 587              	 
 588              	 
 589 0000 80B5     	 push {r7,lr}
 590              	.LCFI38:
 591              	 .cfi_def_cfa_offset 8
 592              	 .cfi_offset 7,-8
 593              	 .cfi_offset 14,-4
 594 0002 82B0     	 sub sp,sp,#8
 595              	.LCFI39:
 596              	 .cfi_def_cfa_offset 16
 597 0004 00AF     	 add r7,sp,#0
 598              	.LCFI40:
 599              	 .cfi_def_cfa_register 7
 600 0006 0346     	 mov r3,r0
 601 0008 3960     	 str r1,[r7]
 602 000a FB71     	 strb r3,[r7,#7]
 422:../Dave/Generated/ETH_LWIP/lwip/core/memp.c **** #ifdef LWIP_HOOK_MEMP_AVAILABLE
 423:../Dave/Generated/ETH_LWIP/lwip/core/memp.c ****   struct memp *old_first;
 424:../Dave/Generated/ETH_LWIP/lwip/core/memp.c **** #endif
 425:../Dave/Generated/ETH_LWIP/lwip/core/memp.c **** 
 426:../Dave/Generated/ETH_LWIP/lwip/core/memp.c ****   LWIP_ERROR("memp_free: type < MEMP_MAX", (type < MEMP_MAX), return;);
 603              	 .loc 1 426 0
 604 000c FB79     	 ldrb r3,[r7,#7]
 605 000e 062B     	 cmp r3,#6
 606 0010 00D9     	 bls .L26
 607 0012 0BE0     	 b .L25
 608              	.L26:
 427:../Dave/Generated/ETH_LWIP/lwip/core/memp.c **** 
 428:../Dave/Generated/ETH_LWIP/lwip/core/memp.c ****   if (mem == NULL) {
 609              	 .loc 1 428 0
 610 0014 3B68     	 ldr r3,[r7]
 611 0016 002B     	 cmp r3,#0
 612 0018 00D1     	 bne .L28
 429:../Dave/Generated/ETH_LWIP/lwip/core/memp.c ****     return;
 613              	 .loc 1 429 0 discriminator 2
 614 001a 07E0     	 b .L25
 615              	.L28:
 430:../Dave/Generated/ETH_LWIP/lwip/core/memp.c ****   }
 431:../Dave/Generated/ETH_LWIP/lwip/core/memp.c **** 
 432:../Dave/Generated/ETH_LWIP/lwip/core/memp.c **** #if MEMP_OVERFLOW_CHECK >= 2
 433:../Dave/Generated/ETH_LWIP/lwip/core/memp.c ****   memp_overflow_check_all();
 434:../Dave/Generated/ETH_LWIP/lwip/core/memp.c **** #endif /* MEMP_OVERFLOW_CHECK >= 2 */
 435:../Dave/Generated/ETH_LWIP/lwip/core/memp.c **** 
 436:../Dave/Generated/ETH_LWIP/lwip/core/memp.c **** #ifdef LWIP_HOOK_MEMP_AVAILABLE
 437:../Dave/Generated/ETH_LWIP/lwip/core/memp.c ****   old_first = *memp_pools[type]->tab;
 438:../Dave/Generated/ETH_LWIP/lwip/core/memp.c **** #endif
 439:../Dave/Generated/ETH_LWIP/lwip/core/memp.c **** 
 440:../Dave/Generated/ETH_LWIP/lwip/core/memp.c ****   do_memp_free_pool(memp_pools[type], mem);
 616              	 .loc 1 440 0
 617 001c FB79     	 ldrb r3,[r7,#7]
 618 001e 054A     	 ldr r2,.L29
 619 0020 52F82330 	 ldr r3,[r2,r3,lsl#2]
 620 0024 1846     	 mov r0,r3
 621 0026 3968     	 ldr r1,[r7]
 622 0028 FFF7FEFF 	 bl do_memp_free_pool
 623              	.L25:
 441:../Dave/Generated/ETH_LWIP/lwip/core/memp.c **** 
 442:../Dave/Generated/ETH_LWIP/lwip/core/memp.c **** #ifdef LWIP_HOOK_MEMP_AVAILABLE
 443:../Dave/Generated/ETH_LWIP/lwip/core/memp.c ****   if (old_first == NULL) {
 444:../Dave/Generated/ETH_LWIP/lwip/core/memp.c ****     LWIP_HOOK_MEMP_AVAILABLE(type);
 445:../Dave/Generated/ETH_LWIP/lwip/core/memp.c ****   }
 446:../Dave/Generated/ETH_LWIP/lwip/core/memp.c **** #endif
 447:../Dave/Generated/ETH_LWIP/lwip/core/memp.c **** }
 624              	 .loc 1 447 0
 625 002c 0837     	 adds r7,r7,#8
 626              	.LCFI41:
 627              	 .cfi_def_cfa_offset 8
 628 002e BD46     	 mov sp,r7
 629              	.LCFI42:
 630              	 .cfi_def_cfa_register 13
 631              	 
 632 0030 80BD     	 pop {r7,pc}
 633              	.L30:
 634 0032 00BF     	 .align 2
 635              	.L29:
 636 0034 00000000 	 .word memp_pools
 637              	 .cfi_endproc
 638              	.LFE140:
 640              	 .text
 641              	.Letext0:
 642              	 .file 2 "c:\\infineon\\tools\\dave ide\\4.5.0.202105191637\\eclipse\\arm-gcc-49\\arm-none-eabi\\include\\machine\\_default_types.h"
 643              	 .file 3 "c:\\infineon\\tools\\dave ide\\4.5.0.202105191637\\eclipse\\arm-gcc-49\\arm-none-eabi\\include\\stdint.h"
 644              	 .file 4 "C:/Infineon/Tools/DAVE IDE/4.5.0.202105191637/eclipse/workspace/ScpiRelax/Dave/Generated/ETH_LWIP/lwip/include/lwip/arch.h"
 645              	 .file 5 "C:/Infineon/Tools/DAVE IDE/4.5.0.202105191637/eclipse/workspace/ScpiRelax/Dave/Generated/ETH_LWIP/lwip/include/lwip/memp.h"
 646              	 .file 6 "C:/Infineon/Tools/DAVE IDE/4.5.0.202105191637/eclipse/workspace/ScpiRelax/Dave/Generated/ETH_LWIP/lwip/include/lwip/priv/memp_priv.h"
 647              	 .file 7 "C:/Infineon/Tools/DAVE IDE/4.5.0.202105191637/eclipse/workspace/ScpiRelax/Dave/Generated/ETH_LWIP/lwip/include/lwip/priv/memp_std.h"
 648              	 .file 8 "C:/Infineon/Tools/DAVE IDE/4.5.0.202105191637/eclipse/workspace/ScpiRelax/Libraries/CMSIS/Include/cmsis_gcc.h"
 649              	 .file 9 "C:/Infineon/Tools/DAVE IDE/4.5.0.202105191637/eclipse/workspace/ScpiRelax/Libraries/CMSIS/Include/core_cm4.h"